
autopilot.elf:     file format elf32-powerpc

Disassembly of section .text:

01800074 <send_boot>:
 1800074:	94 21 ff e0 	stwu    r1,-32(r1)
 1800078:	93 61 00 0c 	stw     r27,12(r1)
 180007c:	93 81 00 10 	stw     r28,16(r1)
 1800080:	93 a1 00 14 	stw     r29,20(r1)
 1800084:	93 c1 00 18 	stw     r30,24(r1)
 1800088:	93 e1 00 1c 	stw     r31,28(r1)
 180008c:	3d 20 01 82 	lis     r9,386
 1800090:	88 09 a3 4d 	lbz     r0,-23731(r9)
 1800094:	2c 00 00 00 	cmpwi   r0,0
 1800098:	41 82 07 78 	beq-    1800810 <send_boot+0x79c>
 180009c:	3d 20 01 82 	lis     r9,386
 18000a0:	3d 60 01 82 	lis     r11,386
 18000a4:	89 29 a3 f9 	lbz     r9,-23559(r9)
 18000a8:	88 0b a3 fa 	lbz     r0,-23558(r11)
 18000ac:	3c c0 01 82 	lis     r6,386
 18000b0:	7c 09 00 40 	cmplw   r9,r0
 18000b4:	3f 60 01 82 	lis     r27,386
 18000b8:	41 80 00 1c 	blt-    18000d4 <send_boot+0x60>
 18000bc:	88 1b a3 fa 	lbz     r0,-23558(r27)
 18000c0:	7c 00 48 50 	subf    r0,r0,r9
 18000c4:	20 00 00 ff 	subfic  r0,r0,255
 18000c8:	2c 00 00 06 	cmpwi   r0,6
 18000cc:	41 81 00 18 	bgt-    18000e4 <send_boot+0x70>
 18000d0:	48 00 01 b8 	b       1800288 <send_boot+0x214>
 18000d4:	88 1b a3 fa 	lbz     r0,-23558(r27)
 18000d8:	7c 09 00 50 	subf    r0,r9,r0
 18000dc:	2c 00 00 06 	cmpwi   r0,6
 18000e0:	40 81 01 a8 	ble-    1800288 <send_boot+0x214>
 18000e4:	3d 00 01 82 	lis     r8,386
 18000e8:	89 28 a3 f9 	lbz     r9,-23559(r8)
 18000ec:	3d 60 01 82 	lis     r11,386
 18000f0:	39 49 00 01 	addi    r10,r9,1
 18000f4:	55 40 06 3e 	clrlwi  r0,r10,24
 18000f8:	28 00 00 fe 	cmplwi  r0,254
 18000fc:	38 8b a8 b4 	addi    r4,r11,-22348
 1800100:	55 29 06 3e 	clrlwi  r9,r9,24
 1800104:	38 00 00 05 	li      r0,5
 1800108:	7c 04 49 ae 	stbx    r0,r4,r9
 180010c:	99 48 a3 f9 	stb     r10,-23559(r8)
 1800110:	40 81 00 0c 	ble-    180011c <send_boot+0xa8>
 1800114:	38 00 00 00 	li      r0,0
 1800118:	98 06 a3 f9 	stb     r0,-23559(r6)
 180011c:	89 26 a3 f9 	lbz     r9,-23559(r6)
 1800120:	39 40 00 01 	li      r10,1
 1800124:	39 69 00 01 	addi    r11,r9,1
 1800128:	55 60 06 3e 	clrlwi  r0,r11,24
 180012c:	55 29 06 3e 	clrlwi  r9,r9,24
 1800130:	28 00 00 fe 	cmplwi  r0,254
 1800134:	7d 44 49 ae 	stbx    r10,r4,r9
 1800138:	99 66 a3 f9 	stb     r11,-23559(r6)
 180013c:	40 81 00 0c 	ble-    1800148 <send_boot+0xd4>
 1800140:	38 00 00 00 	li      r0,0
 1800144:	98 06 a3 f9 	stb     r0,-23559(r6)
 1800148:	89 66 a3 f9 	lbz     r11,-23559(r6)
 180014c:	3d 20 01 82 	lis     r9,386
 1800150:	39 0b 00 01 	addi    r8,r11,1
 1800154:	89 49 a3 42 	lbz     r10,-23742(r9)
 1800158:	55 00 06 3e 	clrlwi  r0,r8,24
 180015c:	38 ea 00 01 	addi    r7,r10,1
 1800160:	55 6b 06 3e 	clrlwi  r11,r11,24
 1800164:	28 00 00 fe 	cmplwi  r0,254
 1800168:	7d 44 59 ae 	stbx    r10,r4,r11
 180016c:	38 a7 00 01 	addi    r5,r7,1
 1800170:	3c 60 01 82 	lis     r3,386
 1800174:	3f e0 01 82 	lis     r31,386
 1800178:	3b c9 a3 42 	addi    r30,r9,-23742
 180017c:	98 e3 a3 fc 	stb     r7,-23556(r3)
 1800180:	98 bf a3 f6 	stb     r5,-23562(r31)
 1800184:	99 06 a3 f9 	stb     r8,-23559(r6)
 1800188:	40 81 00 0c 	ble-    1800194 <send_boot+0x120>
 180018c:	38 00 00 00 	li      r0,0
 1800190:	98 06 a3 f9 	stb     r0,-23559(r6)
 1800194:	89 26 a3 f9 	lbz     r9,-23559(r6)
 1800198:	89 7e 00 01 	lbz     r11,1(r30)
 180019c:	39 49 00 01 	addi    r10,r9,1
 18001a0:	55 40 06 3e 	clrlwi  r0,r10,24
 18001a4:	7d 07 5a 14 	add     r8,r7,r11
 18001a8:	55 29 06 3e 	clrlwi  r9,r9,24
 18001ac:	28 00 00 fe 	cmplwi  r0,254
 18001b0:	7d 64 49 ae 	stbx    r11,r4,r9
 18001b4:	7c e5 42 14 	add     r7,r5,r8
 18001b8:	99 03 a3 fc 	stb     r8,-23556(r3)
 18001bc:	98 ff a3 f6 	stb     r7,-23562(r31)
 18001c0:	99 46 a3 f9 	stb     r10,-23559(r6)
 18001c4:	40 81 00 0c 	ble-    18001d0 <send_boot+0x15c>
 18001c8:	38 00 00 00 	li      r0,0
 18001cc:	98 06 a3 f9 	stb     r0,-23559(r6)
 18001d0:	89 26 a3 f9 	lbz     r9,-23559(r6)
 18001d4:	39 69 00 01 	addi    r11,r9,1
 18001d8:	55 60 06 3e 	clrlwi  r0,r11,24
 18001dc:	55 29 06 3e 	clrlwi  r9,r9,24
 18001e0:	28 00 00 fe 	cmplwi  r0,254
 18001e4:	7d 04 49 ae 	stbx    r8,r4,r9
 18001e8:	99 66 a3 f9 	stb     r11,-23559(r6)
 18001ec:	40 81 00 0c 	ble-    18001f8 <send_boot+0x184>
 18001f0:	38 00 00 00 	li      r0,0
 18001f4:	98 06 a3 f9 	stb     r0,-23559(r6)
 18001f8:	89 26 a3 f9 	lbz     r9,-23559(r6)
 18001fc:	39 69 00 01 	addi    r11,r9,1
 1800200:	55 60 06 3e 	clrlwi  r0,r11,24
 1800204:	55 29 06 3e 	clrlwi  r9,r9,24
 1800208:	28 00 00 fe 	cmplwi  r0,254
 180020c:	7c e4 49 ae 	stbx    r7,r4,r9
 1800210:	99 66 a3 f9 	stb     r11,-23559(r6)
 1800214:	40 81 00 0c 	ble-    1800220 <send_boot+0x1ac>
 1800218:	38 00 00 00 	li      r0,0
 180021c:	98 06 a3 f9 	stb     r0,-23559(r6)
 1800220:	38 a0 00 59 	li      r5,89
 1800224:	88 05 00 00 	lbz     r0,0(r5)
 1800228:	70 07 00 10 	andi.   r7,r0,16
 180022c:	40 82 00 6c 	bne-    1800298 <send_boot+0x224>
 1800230:	3d 60 01 82 	lis     r11,386
 1800234:	88 0b a3 fa 	lbz     r0,-23558(r11)
 1800238:	89 2b a3 fa 	lbz     r9,-23558(r11)
 180023c:	7d 04 00 ae 	lbzx    r8,r4,r0
 1800240:	39 29 00 01 	addi    r9,r9,1
 1800244:	99 2b a3 fa 	stb     r9,-23558(r11)
 1800248:	88 0b a3 fa 	lbz     r0,-23558(r11)
 180024c:	3d 40 01 82 	lis     r10,386
 1800250:	28 00 00 fe 	cmplwi  r0,254
 1800254:	3d 20 01 82 	lis     r9,386
 1800258:	99 0a a3 f8 	stb     r8,-23560(r10)
 180025c:	98 e9 a3 fb 	stb     r7,-23557(r9)
 1800260:	40 81 00 08 	ble-    1800268 <send_boot+0x1f4>
 1800264:	98 fb a3 fa 	stb     r7,-23558(r27)
 1800268:	39 20 00 58 	li      r9,88
 180026c:	88 09 00 00 	lbz     r0,0(r9)
 1800270:	60 00 00 01 	ori     r0,r0,1
 1800274:	98 09 00 00 	stb     r0,0(r9)
 1800278:	89 65 00 00 	lbz     r11,0(r5)
 180027c:	61 6b 00 10 	ori     r11,r11,16
 1800280:	99 65 00 00 	stb     r11,0(r5)
 1800284:	48 00 00 14 	b       1800298 <send_boot+0x224>
 1800288:	3d 60 01 82 	lis     r11,386
 180028c:	89 2b a3 f7 	lbz     r9,-23561(r11)
 1800290:	39 29 00 01 	addi    r9,r9,1
 1800294:	99 2b a3 f7 	stb     r9,-23561(r11)
 1800298:	3d 20 01 82 	lis     r9,386
 180029c:	3d 60 01 82 	lis     r11,386
 18002a0:	89 29 a3 f9 	lbz     r9,-23559(r9)
 18002a4:	88 0b a3 fa 	lbz     r0,-23558(r11)
 18002a8:	7c 09 00 40 	cmplw   r9,r0
 18002ac:	41 80 00 1c 	blt-    18002c8 <send_boot+0x254>
 18002b0:	88 1b a3 fa 	lbz     r0,-23558(r27)
 18002b4:	7c 00 48 50 	subf    r0,r0,r9
 18002b8:	20 00 00 ff 	subfic  r0,r0,255
 18002bc:	2c 00 00 14 	cmpwi   r0,20
 18002c0:	41 81 00 18 	bgt-    18002d8 <send_boot+0x264>
 18002c4:	48 00 05 30 	b       18007f4 <send_boot+0x780>
 18002c8:	88 1b a3 fa 	lbz     r0,-23558(r27)
 18002cc:	7c 09 00 50 	subf    r0,r9,r0
 18002d0:	2c 00 00 14 	cmpwi   r0,20
 18002d4:	40 81 05 20 	ble-    18007f4 <send_boot+0x780>
 18002d8:	3d 60 01 82 	lis     r11,386
 18002dc:	89 2b a3 f9 	lbz     r9,-23559(r11)
 18002e0:	3d 40 01 82 	lis     r10,386
 18002e4:	39 09 00 01 	addi    r8,r9,1
 18002e8:	38 6a a8 b4 	addi    r3,r10,-22348
 18002ec:	55 00 06 3e 	clrlwi  r0,r8,24
 18002f0:	55 29 06 3e 	clrlwi  r9,r9,24
 18002f4:	39 40 00 05 	li      r10,5
 18002f8:	28 00 00 fe 	cmplwi  r0,254
 18002fc:	7d 43 49 ae 	stbx    r10,r3,r9
 1800300:	38 8b a3 f9 	addi    r4,r11,-23559
 1800304:	99 0b a3 f9 	stb     r8,-23559(r11)
 1800308:	40 81 00 0c 	ble-    1800314 <send_boot+0x2a0>
 180030c:	38 00 00 00 	li      r0,0
 1800310:	98 06 a3 f9 	stb     r0,-23559(r6)
 1800314:	89 26 a3 f9 	lbz     r9,-23559(r6)
 1800318:	39 69 00 01 	addi    r11,r9,1
 180031c:	55 60 06 3e 	clrlwi  r0,r11,24
 1800320:	55 29 06 3e 	clrlwi  r9,r9,24
 1800324:	28 00 00 fe 	cmplwi  r0,254
 1800328:	7d 43 49 ae 	stbx    r10,r3,r9
 180032c:	99 66 a3 f9 	stb     r11,-23559(r6)
 1800330:	40 81 00 0c 	ble-    180033c <send_boot+0x2c8>
 1800334:	38 00 00 00 	li      r0,0
 1800338:	98 06 a3 f9 	stb     r0,-23559(r6)
 180033c:	89 46 a3 f9 	lbz     r10,-23559(r6)
 1800340:	3d 20 01 82 	lis     r9,386
 1800344:	39 0a 00 01 	addi    r8,r10,1
 1800348:	89 69 a4 d0 	lbz     r11,-23344(r9)
 180034c:	55 00 06 3e 	clrlwi  r0,r8,24
 1800350:	55 4a 06 3e 	clrlwi  r10,r10,24
 1800354:	28 00 00 fe 	cmplwi  r0,254
 1800358:	7d 63 51 ae 	stbx    r11,r3,r10
 180035c:	3f e0 01 82 	lis     r31,386
 1800360:	3d 80 01 82 	lis     r12,386
 1800364:	38 ab 00 0a 	addi    r5,r11,10
 1800368:	38 eb 00 05 	addi    r7,r11,5
 180036c:	3b c9 a4 d0 	addi    r30,r9,-23344
 1800370:	3b bf a3 fc 	addi    r29,r31,-23556
 1800374:	3b 8c a3 f6 	addi    r28,r12,-23562
 1800378:	98 ff a3 fc 	stb     r7,-23556(r31)
 180037c:	98 ac a3 f6 	stb     r5,-23562(r12)
 1800380:	99 06 a3 f9 	stb     r8,-23559(r6)
 1800384:	40 81 00 0c 	ble-    1800390 <send_boot+0x31c>
 1800388:	38 00 00 00 	li      r0,0
 180038c:	98 06 a3 f9 	stb     r0,-23559(r6)
 1800390:	89 26 a3 f9 	lbz     r9,-23559(r6)
 1800394:	89 7e 00 01 	lbz     r11,1(r30)
 1800398:	39 49 00 01 	addi    r10,r9,1
 180039c:	55 40 06 3e 	clrlwi  r0,r10,24
 18003a0:	7d 07 5a 14 	add     r8,r7,r11
 18003a4:	55 29 06 3e 	clrlwi  r9,r9,24
 18003a8:	28 00 00 fe 	cmplwi  r0,254
 18003ac:	7d 63 49 ae 	stbx    r11,r3,r9
 18003b0:	7c e5 42 14 	add     r7,r5,r8
 18003b4:	99 1f a3 fc 	stb     r8,-23556(r31)
 18003b8:	98 ec a3 f6 	stb     r7,-23562(r12)
 18003bc:	99 46 a3 f9 	stb     r10,-23559(r6)
 18003c0:	40 81 00 0c 	ble-    18003cc <send_boot+0x358>
 18003c4:	38 00 00 00 	li      r0,0
 18003c8:	98 06 a3 f9 	stb     r0,-23559(r6)
 18003cc:	89 26 a3 f9 	lbz     r9,-23559(r6)
 18003d0:	89 7e 00 02 	lbz     r11,2(r30)
 18003d4:	39 49 00 01 	addi    r10,r9,1
 18003d8:	55 40 06 3e 	clrlwi  r0,r10,24
 18003dc:	7d 08 5a 14 	add     r8,r8,r11
 18003e0:	55 29 06 3e 	clrlwi  r9,r9,24
 18003e4:	28 00 00 fe 	cmplwi  r0,254
 18003e8:	7d 63 49 ae 	stbx    r11,r3,r9
 18003ec:	7c a7 42 14 	add     r5,r7,r8
 18003f0:	99 1f a3 fc 	stb     r8,-23556(r31)
 18003f4:	98 ac a3 f6 	stb     r5,-23562(r12)
 18003f8:	99 46 a3 f9 	stb     r10,-23559(r6)
 18003fc:	40 81 00 0c 	ble-    1800408 <send_boot+0x394>
 1800400:	38 00 00 00 	li      r0,0
 1800404:	98 06 a3 f9 	stb     r0,-23559(r6)
 1800408:	89 26 a3 f9 	lbz     r9,-23559(r6)
 180040c:	89 7e 00 03 	lbz     r11,3(r30)
 1800410:	39 49 00 01 	addi    r10,r9,1
 1800414:	55 40 06 3e 	clrlwi  r0,r10,24
 1800418:	7c e8 5a 14 	add     r7,r8,r11
 180041c:	55 29 06 3e 	clrlwi  r9,r9,24
 1800420:	28 00 00 fe 	cmplwi  r0,254
 1800424:	7d 63 49 ae 	stbx    r11,r3,r9
 1800428:	7c a5 3a 14 	add     r5,r5,r7
 180042c:	98 ff a3 fc 	stb     r7,-23556(r31)
 1800430:	98 ac a3 f6 	stb     r5,-23562(r12)
 1800434:	99 46 a3 f9 	stb     r10,-23559(r6)
 1800438:	40 81 00 0c 	ble-    1800444 <send_boot+0x3d0>
 180043c:	38 00 00 00 	li      r0,0
 1800440:	98 06 a3 f9 	stb     r0,-23559(r6)
 1800444:	89 66 a3 f9 	lbz     r11,-23559(r6)
 1800448:	3d 20 01 82 	lis     r9,386
 180044c:	39 0b 00 01 	addi    r8,r11,1
 1800450:	89 49 a4 e8 	lbz     r10,-23320(r9)
 1800454:	55 00 06 3e 	clrlwi  r0,r8,24
 1800458:	7c e7 52 14 	add     r7,r7,r10
 180045c:	55 6b 06 3e 	clrlwi  r11,r11,24
 1800460:	28 00 00 fe 	cmplwi  r0,254
 1800464:	7d 43 59 ae 	stbx    r10,r3,r11
 1800468:	7c a5 3a 14 	add     r5,r5,r7
 180046c:	3b c9 a4 e8 	addi    r30,r9,-23320
 1800470:	98 ff a3 fc 	stb     r7,-23556(r31)
 1800474:	98 ac a3 f6 	stb     r5,-23562(r12)
 1800478:	99 06 a3 f9 	stb     r8,-23559(r6)
 180047c:	40 81 00 0c 	ble-    1800488 <send_boot+0x414>
 1800480:	38 00 00 00 	li      r0,0
 1800484:	98 06 a3 f9 	stb     r0,-23559(r6)
 1800488:	89 26 a3 f9 	lbz     r9,-23559(r6)
 180048c:	89 7e 00 01 	lbz     r11,1(r30)
 1800490:	39 49 00 01 	addi    r10,r9,1
 1800494:	55 40 06 3e 	clrlwi  r0,r10,24
 1800498:	7d 07 5a 14 	add     r8,r7,r11
 180049c:	55 29 06 3e 	clrlwi  r9,r9,24
 18004a0:	28 00 00 fe 	cmplwi  r0,254
 18004a4:	7d 63 49 ae 	stbx    r11,r3,r9
 18004a8:	7c e5 42 14 	add     r7,r5,r8
 18004ac:	99 1f a3 fc 	stb     r8,-23556(r31)
 18004b0:	98 ec a3 f6 	stb     r7,-23562(r12)
 18004b4:	99 46 a3 f9 	stb     r10,-23559(r6)
 18004b8:	40 81 00 0c 	ble-    18004c4 <send_boot+0x450>
 18004bc:	38 00 00 00 	li      r0,0
 18004c0:	98 06 a3 f9 	stb     r0,-23559(r6)
 18004c4:	89 26 a3 f9 	lbz     r9,-23559(r6)
 18004c8:	89 7e 00 02 	lbz     r11,2(r30)
 18004cc:	39 49 00 01 	addi    r10,r9,1
 18004d0:	55 40 06 3e 	clrlwi  r0,r10,24
 18004d4:	7d 08 5a 14 	add     r8,r8,r11
 18004d8:	55 29 06 3e 	clrlwi  r9,r9,24
 18004dc:	28 00 00 fe 	cmplwi  r0,254
 18004e0:	7d 63 49 ae 	stbx    r11,r3,r9
 18004e4:	7c a7 42 14 	add     r5,r7,r8
 18004e8:	99 1f a3 fc 	stb     r8,-23556(r31)
 18004ec:	98 ac a3 f6 	stb     r5,-23562(r12)
 18004f0:	99 46 a3 f9 	stb     r10,-23559(r6)
 18004f4:	40 81 00 0c 	ble-    1800500 <send_boot+0x48c>
 18004f8:	38 00 00 00 	li      r0,0
 18004fc:	98 06 a3 f9 	stb     r0,-23559(r6)
 1800500:	89 26 a3 f9 	lbz     r9,-23559(r6)
 1800504:	89 7e 00 03 	lbz     r11,3(r30)
 1800508:	39 49 00 01 	addi    r10,r9,1
 180050c:	55 40 06 3e 	clrlwi  r0,r10,24
 1800510:	7c e8 5a 14 	add     r7,r8,r11
 1800514:	55 29 06 3e 	clrlwi  r9,r9,24
 1800518:	28 00 00 fe 	cmplwi  r0,254
 180051c:	7d 63 49 ae 	stbx    r11,r3,r9
 1800520:	7c a5 3a 14 	add     r5,r5,r7
 1800524:	98 ff a3 fc 	stb     r7,-23556(r31)
 1800528:	98 ac a3 f6 	stb     r5,-23562(r12)
 180052c:	99 46 a3 f9 	stb     r10,-23559(r6)
 1800530:	40 81 00 0c 	ble-    180053c <send_boot+0x4c8>
 1800534:	38 00 00 00 	li      r0,0
 1800538:	98 06 a3 f9 	stb     r0,-23559(r6)
 180053c:	89 64 00 00 	lbz     r11,0(r4)
 1800540:	3d 20 01 82 	lis     r9,386
 1800544:	89 49 a4 c8 	lbz     r10,-23352(r9)
 1800548:	39 0b 00 01 	addi    r8,r11,1
 180054c:	7c c7 52 14 	add     r6,r7,r10
 1800550:	55 00 06 3e 	clrlwi  r0,r8,24
 1800554:	55 6b 06 3e 	clrlwi  r11,r11,24
 1800558:	7d 43 59 ae 	stbx    r10,r3,r11
 180055c:	7c a5 32 14 	add     r5,r5,r6
 1800560:	28 00 00 fe 	cmplwi  r0,254
 1800564:	98 df a3 fc 	stb     r6,-23556(r31)
 1800568:	98 ac a3 f6 	stb     r5,-23562(r12)
 180056c:	3b c9 a4 c8 	addi    r30,r9,-23352
 1800570:	99 04 00 00 	stb     r8,0(r4)
 1800574:	40 81 00 0c 	ble-    1800580 <send_boot+0x50c>
 1800578:	38 00 00 00 	li      r0,0
 180057c:	98 04 00 00 	stb     r0,0(r4)
 1800580:	89 1e 00 01 	lbz     r8,1(r30)
 1800584:	89 24 00 00 	lbz     r9,0(r4)
 1800588:	7d 46 42 14 	add     r10,r6,r8
 180058c:	38 e9 00 01 	addi    r7,r9,1
 1800590:	7d 65 52 14 	add     r11,r5,r10
 1800594:	99 6c a3 f6 	stb     r11,-23562(r12)
 1800598:	54 e0 06 3e 	clrlwi  r0,r7,24
 180059c:	55 29 06 3e 	clrlwi  r9,r9,24
 18005a0:	7d 03 49 ae 	stbx    r8,r3,r9
 18005a4:	28 00 00 fe 	cmplwi  r0,254
 18005a8:	99 5f a3 fc 	stb     r10,-23556(r31)
 18005ac:	98 e4 00 00 	stb     r7,0(r4)
 18005b0:	40 81 00 0c 	ble-    18005bc <send_boot+0x548>
 18005b4:	38 00 00 00 	li      r0,0
 18005b8:	98 04 00 00 	stb     r0,0(r4)
 18005bc:	89 24 00 00 	lbz     r9,0(r4)
 18005c0:	89 1e 00 02 	lbz     r8,2(r30)
 18005c4:	88 1d 00 00 	lbz     r0,0(r29)
 18005c8:	89 7c 00 00 	lbz     r11,0(r28)
 18005cc:	38 e9 00 01 	addi    r7,r9,1
 18005d0:	7c c0 42 14 	add     r6,r0,r8
 18005d4:	54 ea 06 3e 	clrlwi  r10,r7,24
 18005d8:	55 29 06 3e 	clrlwi  r9,r9,24
 18005dc:	7d 03 49 ae 	stbx    r8,r3,r9
 18005e0:	7c ab 32 14 	add     r5,r11,r6
 18005e4:	28 0a 00 fe 	cmplwi  r10,254
 18005e8:	98 dd 00 00 	stb     r6,0(r29)
 18005ec:	98 bc 00 00 	stb     r5,0(r28)
 18005f0:	98 e4 00 00 	stb     r7,0(r4)
 18005f4:	40 81 00 0c 	ble-    1800600 <send_boot+0x58c>
 18005f8:	38 00 00 00 	li      r0,0
 18005fc:	98 04 00 00 	stb     r0,0(r4)
 1800600:	89 24 00 00 	lbz     r9,0(r4)
 1800604:	89 7e 00 03 	lbz     r11,3(r30)
 1800608:	39 49 00 01 	addi    r10,r9,1
 180060c:	7c e6 5a 14 	add     r7,r6,r11
 1800610:	55 40 06 3e 	clrlwi  r0,r10,24
 1800614:	55 29 06 3e 	clrlwi  r9,r9,24
 1800618:	7d 63 49 ae 	stbx    r11,r3,r9
 180061c:	7c c5 3a 14 	add     r6,r5,r7
 1800620:	28 00 00 fe 	cmplwi  r0,254
 1800624:	98 fd 00 00 	stb     r7,0(r29)
 1800628:	98 dc 00 00 	stb     r6,0(r28)
 180062c:	99 44 00 00 	stb     r10,0(r4)
 1800630:	40 81 00 0c 	ble-    180063c <send_boot+0x5c8>
 1800634:	38 00 00 00 	li      r0,0
 1800638:	98 04 00 00 	stb     r0,0(r4)
 180063c:	89 64 00 00 	lbz     r11,0(r4)
 1800640:	3d 20 01 82 	lis     r9,386
 1800644:	89 49 a3 6a 	lbz     r10,-23702(r9)
 1800648:	39 0b 00 01 	addi    r8,r11,1
 180064c:	7c e7 52 14 	add     r7,r7,r10
 1800650:	55 00 06 3e 	clrlwi  r0,r8,24
 1800654:	55 6b 06 3e 	clrlwi  r11,r11,24
 1800658:	7d 43 59 ae 	stbx    r10,r3,r11
 180065c:	7c c6 3a 14 	add     r6,r6,r7
 1800660:	28 00 00 fe 	cmplwi  r0,254
 1800664:	98 fd 00 00 	stb     r7,0(r29)
 1800668:	98 dc 00 00 	stb     r6,0(r28)
 180066c:	38 a9 a3 6a 	addi    r5,r9,-23702
 1800670:	99 04 00 00 	stb     r8,0(r4)
 1800674:	40 81 00 0c 	ble-    1800680 <send_boot+0x60c>
 1800678:	38 00 00 00 	li      r0,0
 180067c:	98 04 00 00 	stb     r0,0(r4)
 1800680:	89 24 00 00 	lbz     r9,0(r4)
 1800684:	89 65 00 01 	lbz     r11,1(r5)
 1800688:	39 49 00 01 	addi    r10,r9,1
 180068c:	7c e7 5a 14 	add     r7,r7,r11
 1800690:	55 40 06 3e 	clrlwi  r0,r10,24
 1800694:	55 29 06 3e 	clrlwi  r9,r9,24
 1800698:	7d 63 49 ae 	stbx    r11,r3,r9
 180069c:	7c c6 3a 14 	add     r6,r6,r7
 18006a0:	28 00 00 fe 	cmplwi  r0,254
 18006a4:	98 fd 00 00 	stb     r7,0(r29)
 18006a8:	98 dc 00 00 	stb     r6,0(r28)
 18006ac:	99 44 00 00 	stb     r10,0(r4)
 18006b0:	40 81 00 0c 	ble-    18006bc <send_boot+0x648>
 18006b4:	38 00 00 00 	li      r0,0
 18006b8:	98 04 00 00 	stb     r0,0(r4)
 18006bc:	89 64 00 00 	lbz     r11,0(r4)
 18006c0:	3d 20 01 82 	lis     r9,386
 18006c4:	89 49 a3 6c 	lbz     r10,-23700(r9)
 18006c8:	39 0b 00 01 	addi    r8,r11,1
 18006cc:	7c e7 52 14 	add     r7,r7,r10
 18006d0:	55 00 06 3e 	clrlwi  r0,r8,24
 18006d4:	55 6b 06 3e 	clrlwi  r11,r11,24
 18006d8:	7d 43 59 ae 	stbx    r10,r3,r11
 18006dc:	7c c6 3a 14 	add     r6,r6,r7
 18006e0:	28 00 00 fe 	cmplwi  r0,254
 18006e4:	98 fd 00 00 	stb     r7,0(r29)
 18006e8:	98 dc 00 00 	stb     r6,0(r28)
 18006ec:	38 a9 a3 6c 	addi    r5,r9,-23700
 18006f0:	99 04 00 00 	stb     r8,0(r4)
 18006f4:	40 81 00 0c 	ble-    1800700 <send_boot+0x68c>
 18006f8:	38 00 00 00 	li      r0,0
 18006fc:	98 04 00 00 	stb     r0,0(r4)
 1800700:	89 24 00 00 	lbz     r9,0(r4)
 1800704:	89 65 00 01 	lbz     r11,1(r5)
 1800708:	39 49 00 01 	addi    r10,r9,1
 180070c:	7d 07 5a 14 	add     r8,r7,r11
 1800710:	55 40 06 3e 	clrlwi  r0,r10,24
 1800714:	55 29 06 3e 	clrlwi  r9,r9,24
 1800718:	7d 63 49 ae 	stbx    r11,r3,r9
 180071c:	7c e6 42 14 	add     r7,r6,r8
 1800720:	28 00 00 fe 	cmplwi  r0,254
 1800724:	99 1d 00 00 	stb     r8,0(r29)
 1800728:	98 fc 00 00 	stb     r7,0(r28)
 180072c:	99 44 00 00 	stb     r10,0(r4)
 1800730:	40 81 00 0c 	ble-    180073c <send_boot+0x6c8>
 1800734:	38 00 00 00 	li      r0,0
 1800738:	98 04 00 00 	stb     r0,0(r4)
 180073c:	89 24 00 00 	lbz     r9,0(r4)
 1800740:	39 69 00 01 	addi    r11,r9,1
 1800744:	55 60 06 3e 	clrlwi  r0,r11,24
 1800748:	55 29 06 3e 	clrlwi  r9,r9,24
 180074c:	28 00 00 fe 	cmplwi  r0,254
 1800750:	7d 03 49 ae 	stbx    r8,r3,r9
 1800754:	99 64 00 00 	stb     r11,0(r4)
 1800758:	40 81 00 0c 	ble-    1800764 <send_boot+0x6f0>
 180075c:	38 00 00 00 	li      r0,0
 1800760:	98 04 00 00 	stb     r0,0(r4)
 1800764:	89 24 00 00 	lbz     r9,0(r4)
 1800768:	39 69 00 01 	addi    r11,r9,1
 180076c:	55 60 06 3e 	clrlwi  r0,r11,24
 1800770:	55 29 06 3e 	clrlwi  r9,r9,24
 1800774:	28 00 00 fe 	cmplwi  r0,254
 1800778:	7c e3 49 ae 	stbx    r7,r3,r9
 180077c:	99 64 00 00 	stb     r11,0(r4)
 1800780:	40 81 00 0c 	ble-    180078c <send_boot+0x718>
 1800784:	38 00 00 00 	li      r0,0
 1800788:	98 04 00 00 	stb     r0,0(r4)
 180078c:	38 c0 00 59 	li      r6,89
 1800790:	88 06 00 00 	lbz     r0,0(r6)
 1800794:	70 07 00 10 	andi.   r7,r0,16
 1800798:	40 82 00 6c 	bne-    1800804 <send_boot+0x790>
 180079c:	3d 60 01 82 	lis     r11,386
 18007a0:	88 0b a3 fa 	lbz     r0,-23558(r11)
 18007a4:	89 2b a3 fa 	lbz     r9,-23558(r11)
 18007a8:	7d 03 00 ae 	lbzx    r8,r3,r0
 18007ac:	39 29 00 01 	addi    r9,r9,1
 18007b0:	99 2b a3 fa 	stb     r9,-23558(r11)
 18007b4:	88 0b a3 fa 	lbz     r0,-23558(r11)
 18007b8:	3d 40 01 82 	lis     r10,386
 18007bc:	28 00 00 fe 	cmplwi  r0,254
 18007c0:	3d 20 01 82 	lis     r9,386
 18007c4:	99 0a a3 f8 	stb     r8,-23560(r10)
 18007c8:	98 e9 a3 fb 	stb     r7,-23557(r9)
 18007cc:	40 81 00 08 	ble-    18007d4 <send_boot+0x760>
 18007d0:	98 fb a3 fa 	stb     r7,-23558(r27)
 18007d4:	39 20 00 58 	li      r9,88
 18007d8:	88 09 00 00 	lbz     r0,0(r9)
 18007dc:	60 00 00 01 	ori     r0,r0,1
 18007e0:	98 09 00 00 	stb     r0,0(r9)
 18007e4:	89 66 00 00 	lbz     r11,0(r6)
 18007e8:	61 6b 00 10 	ori     r11,r11,16
 18007ec:	99 66 00 00 	stb     r11,0(r6)
 18007f0:	48 00 00 14 	b       1800804 <send_boot+0x790>
 18007f4:	3d 60 01 82 	lis     r11,386
 18007f8:	89 2b a3 f7 	lbz     r9,-23561(r11)
 18007fc:	39 29 00 01 	addi    r9,r9,1
 1800800:	99 2b a3 f7 	stb     r9,-23561(r11)
 1800804:	3d 20 01 82 	lis     r9,386
 1800808:	38 00 00 00 	li      r0,0
 180080c:	98 09 a3 4d 	stb     r0,-23731(r9)
 1800810:	83 61 00 0c 	lwz     r27,12(r1)
 1800814:	83 81 00 10 	lwz     r28,16(r1)
 1800818:	83 a1 00 14 	lwz     r29,20(r1)
 180081c:	83 c1 00 18 	lwz     r30,24(r1)
 1800820:	83 e1 00 1c 	lwz     r31,28(r1)
 1800824:	38 21 00 20 	addi    r1,r1,32
 1800828:	4e 80 00 20 	blr

0180082c <send_attitude>:
 180082c:	94 21 ff e0 	stwu    r1,-32(r1)
 1800830:	93 61 00 0c 	stw     r27,12(r1)
 1800834:	93 81 00 10 	stw     r28,16(r1)
 1800838:	93 a1 00 14 	stw     r29,20(r1)
 180083c:	93 c1 00 18 	stw     r30,24(r1)
 1800840:	93 e1 00 1c 	stw     r31,28(r1)
 1800844:	3d 20 01 82 	lis     r9,386
 1800848:	89 49 a3 4d 	lbz     r10,-23731(r9)
 180084c:	2c 0a 00 00 	cmpwi   r10,0
 1800850:	40 82 04 c8 	bne-    1800d18 <send_attitude+0x4ec>
 1800854:	3d 60 01 82 	lis     r11,386
 1800858:	89 2b a3 e7 	lbz     r9,-23577(r11)
 180085c:	39 29 00 01 	addi    r9,r9,1
 1800860:	55 20 06 3e 	clrlwi  r0,r9,24
 1800864:	2c 00 00 fa 	cmpwi   r0,250
 1800868:	99 2b a3 e7 	stb     r9,-23577(r11)
 180086c:	40 82 00 08 	bne-    1800874 <send_attitude+0x48>
 1800870:	99 4b a3 e7 	stb     r10,-23577(r11)
 1800874:	88 0b a3 e7 	lbz     r0,-23577(r11)
 1800878:	3d 20 cc cc 	lis     r9,-13108
 180087c:	61 29 cc cd 	ori     r9,r9,52429
 1800880:	7d 20 48 16 	mulhwu  r9,r0,r9
 1800884:	55 29 f0 be 	rlwinm  r9,r9,30,2,31
 1800888:	55 2b 10 3a 	rlwinm  r11,r9,2,0,29
 180088c:	7d 6b 4a 14 	add     r11,r11,r9
 1800890:	7c 0b 00 50 	subf    r0,r11,r0
 1800894:	54 00 06 3e 	clrlwi  r0,r0,24
 1800898:	2c 00 00 00 	cmpwi   r0,0
 180089c:	40 82 04 7c 	bne-    1800d18 <send_attitude+0x4ec>
 18008a0:	3d 20 01 82 	lis     r9,386
 18008a4:	3d 60 01 82 	lis     r11,386
 18008a8:	89 29 a3 f9 	lbz     r9,-23559(r9)
 18008ac:	88 0b a3 fa 	lbz     r0,-23558(r11)
 18008b0:	3c c0 01 82 	lis     r6,386
 18008b4:	7c 09 00 40 	cmplw   r9,r0
 18008b8:	3f 60 01 82 	lis     r27,386
 18008bc:	41 80 00 1c 	blt-    18008d8 <send_attitude+0xac>
 18008c0:	88 1b a3 fa 	lbz     r0,-23558(r27)
 18008c4:	7c 00 48 50 	subf    r0,r0,r9
 18008c8:	20 00 00 ff 	subfic  r0,r0,255
 18008cc:	2c 00 00 10 	cmpwi   r0,16
 18008d0:	41 81 00 18 	bgt-    18008e8 <send_attitude+0xbc>
 18008d4:	48 00 04 34 	b       1800d08 <send_attitude+0x4dc>
 18008d8:	88 1b a3 fa 	lbz     r0,-23558(r27)
 18008dc:	7c 09 00 50 	subf    r0,r9,r0
 18008e0:	2c 00 00 10 	cmpwi   r0,16
 18008e4:	40 81 04 24 	ble-    1800d08 <send_attitude+0x4dc>
 18008e8:	3d 60 01 82 	lis     r11,386
 18008ec:	89 2b a3 f9 	lbz     r9,-23559(r11)
 18008f0:	3d 40 01 82 	lis     r10,386
 18008f4:	39 09 00 01 	addi    r8,r9,1
 18008f8:	55 00 06 3e 	clrlwi  r0,r8,24
 18008fc:	28 00 00 fe 	cmplwi  r0,254
 1800900:	38 6a a8 b4 	addi    r3,r10,-22348
 1800904:	55 29 06 3e 	clrlwi  r9,r9,24
 1800908:	38 00 00 05 	li      r0,5
 180090c:	7c 03 49 ae 	stbx    r0,r3,r9
 1800910:	38 8b a3 f9 	addi    r4,r11,-23559
 1800914:	99 0b a3 f9 	stb     r8,-23559(r11)
 1800918:	40 81 00 0c 	ble-    1800924 <send_attitude+0xf8>
 180091c:	38 00 00 00 	li      r0,0
 1800920:	98 06 a3 f9 	stb     r0,-23559(r6)
 1800924:	89 26 a3 f9 	lbz     r9,-23559(r6)
 1800928:	39 40 00 06 	li      r10,6
 180092c:	39 69 00 01 	addi    r11,r9,1
 1800930:	55 60 06 3e 	clrlwi  r0,r11,24
 1800934:	55 29 06 3e 	clrlwi  r9,r9,24
 1800938:	28 00 00 fe 	cmplwi  r0,254
 180093c:	7d 43 49 ae 	stbx    r10,r3,r9
 1800940:	99 66 a3 f9 	stb     r11,-23559(r6)
 1800944:	40 81 00 0c 	ble-    1800950 <send_attitude+0x124>
 1800948:	38 00 00 00 	li      r0,0
 180094c:	98 06 a3 f9 	stb     r0,-23559(r6)
 1800950:	89 46 a3 f9 	lbz     r10,-23559(r6)
 1800954:	3d 20 01 82 	lis     r9,386
 1800958:	39 0a 00 01 	addi    r8,r10,1
 180095c:	89 69 a4 d8 	lbz     r11,-23336(r9)
 1800960:	55 00 06 3e 	clrlwi  r0,r8,24
 1800964:	55 4a 06 3e 	clrlwi  r10,r10,24
 1800968:	28 00 00 fe 	cmplwi  r0,254
 180096c:	7d 63 51 ae 	stbx    r11,r3,r10
 1800970:	3f e0 01 82 	lis     r31,386
 1800974:	3d 80 01 82 	lis     r12,386
 1800978:	38 ab 00 0c 	addi    r5,r11,12
 180097c:	38 eb 00 06 	addi    r7,r11,6
 1800980:	3b c9 a4 d8 	addi    r30,r9,-23336
 1800984:	3b bf a3 fc 	addi    r29,r31,-23556
 1800988:	3b 8c a3 f6 	addi    r28,r12,-23562
 180098c:	98 ff a3 fc 	stb     r7,-23556(r31)
 1800990:	98 ac a3 f6 	stb     r5,-23562(r12)
 1800994:	99 06 a3 f9 	stb     r8,-23559(r6)
 1800998:	40 81 00 0c 	ble-    18009a4 <send_attitude+0x178>
 180099c:	38 00 00 00 	li      r0,0
 18009a0:	98 06 a3 f9 	stb     r0,-23559(r6)
 18009a4:	89 26 a3 f9 	lbz     r9,-23559(r6)
 18009a8:	89 7e 00 01 	lbz     r11,1(r30)
 18009ac:	39 49 00 01 	addi    r10,r9,1
 18009b0:	55 40 06 3e 	clrlwi  r0,r10,24
 18009b4:	7d 07 5a 14 	add     r8,r7,r11
 18009b8:	55 29 06 3e 	clrlwi  r9,r9,24
 18009bc:	28 00 00 fe 	cmplwi  r0,254
 18009c0:	7d 63 49 ae 	stbx    r11,r3,r9
 18009c4:	7c e5 42 14 	add     r7,r5,r8
 18009c8:	99 1f a3 fc 	stb     r8,-23556(r31)
 18009cc:	98 ec a3 f6 	stb     r7,-23562(r12)
 18009d0:	99 46 a3 f9 	stb     r10,-23559(r6)
 18009d4:	40 81 00 0c 	ble-    18009e0 <send_attitude+0x1b4>
 18009d8:	38 00 00 00 	li      r0,0
 18009dc:	98 06 a3 f9 	stb     r0,-23559(r6)
 18009e0:	89 26 a3 f9 	lbz     r9,-23559(r6)
 18009e4:	89 7e 00 02 	lbz     r11,2(r30)
 18009e8:	39 49 00 01 	addi    r10,r9,1
 18009ec:	55 40 06 3e 	clrlwi  r0,r10,24
 18009f0:	7d 08 5a 14 	add     r8,r8,r11
 18009f4:	55 29 06 3e 	clrlwi  r9,r9,24
 18009f8:	28 00 00 fe 	cmplwi  r0,254
 18009fc:	7d 63 49 ae 	stbx    r11,r3,r9
 1800a00:	7c a7 42 14 	add     r5,r7,r8
 1800a04:	99 1f a3 fc 	stb     r8,-23556(r31)
 1800a08:	98 ac a3 f6 	stb     r5,-23562(r12)
 1800a0c:	99 46 a3 f9 	stb     r10,-23559(r6)
 1800a10:	40 81 00 0c 	ble-    1800a1c <send_attitude+0x1f0>
 1800a14:	38 00 00 00 	li      r0,0
 1800a18:	98 06 a3 f9 	stb     r0,-23559(r6)
 1800a1c:	89 26 a3 f9 	lbz     r9,-23559(r6)
 1800a20:	89 7e 00 03 	lbz     r11,3(r30)
 1800a24:	39 49 00 01 	addi    r10,r9,1
 1800a28:	55 40 06 3e 	clrlwi  r0,r10,24
 1800a2c:	7c e8 5a 14 	add     r7,r8,r11
 1800a30:	55 29 06 3e 	clrlwi  r9,r9,24
 1800a34:	28 00 00 fe 	cmplwi  r0,254
 1800a38:	7d 63 49 ae 	stbx    r11,r3,r9
 1800a3c:	7c a5 3a 14 	add     r5,r5,r7
 1800a40:	98 ff a3 fc 	stb     r7,-23556(r31)
 1800a44:	98 ac a3 f6 	stb     r5,-23562(r12)
 1800a48:	99 46 a3 f9 	stb     r10,-23559(r6)
 1800a4c:	40 81 00 0c 	ble-    1800a58 <send_attitude+0x22c>
 1800a50:	38 00 00 00 	li      r0,0
 1800a54:	98 06 a3 f9 	stb     r0,-23559(r6)
 1800a58:	89 66 a3 f9 	lbz     r11,-23559(r6)
 1800a5c:	3d 20 01 82 	lis     r9,386
 1800a60:	39 0b 00 01 	addi    r8,r11,1
 1800a64:	89 49 a4 bc 	lbz     r10,-23364(r9)
 1800a68:	55 00 06 3e 	clrlwi  r0,r8,24
 1800a6c:	7c e7 52 14 	add     r7,r7,r10
 1800a70:	55 6b 06 3e 	clrlwi  r11,r11,24
 1800a74:	28 00 00 fe 	cmplwi  r0,254
 1800a78:	7d 43 59 ae 	stbx    r10,r3,r11
 1800a7c:	7c a5 3a 14 	add     r5,r5,r7
 1800a80:	3b c9 a4 bc 	addi    r30,r9,-23364
 1800a84:	98 ff a3 fc 	stb     r7,-23556(r31)
 1800a88:	98 ac a3 f6 	stb     r5,-23562(r12)
 1800a8c:	99 06 a3 f9 	stb     r8,-23559(r6)
 1800a90:	40 81 00 0c 	ble-    1800a9c <send_attitude+0x270>
 1800a94:	38 00 00 00 	li      r0,0
 1800a98:	98 06 a3 f9 	stb     r0,-23559(r6)
 1800a9c:	89 26 a3 f9 	lbz     r9,-23559(r6)
 1800aa0:	89 7e 00 01 	lbz     r11,1(r30)
 1800aa4:	39 49 00 01 	addi    r10,r9,1
 1800aa8:	55 40 06 3e 	clrlwi  r0,r10,24
 1800aac:	7d 07 5a 14 	add     r8,r7,r11
 1800ab0:	55 29 06 3e 	clrlwi  r9,r9,24
 1800ab4:	28 00 00 fe 	cmplwi  r0,254
 1800ab8:	7d 63 49 ae 	stbx    r11,r3,r9
 1800abc:	7c e5 42 14 	add     r7,r5,r8
 1800ac0:	99 1f a3 fc 	stb     r8,-23556(r31)
 1800ac4:	98 ec a3 f6 	stb     r7,-23562(r12)
 1800ac8:	99 46 a3 f9 	stb     r10,-23559(r6)
 1800acc:	40 81 00 0c 	ble-    1800ad8 <send_attitude+0x2ac>
 1800ad0:	38 00 00 00 	li      r0,0
 1800ad4:	98 06 a3 f9 	stb     r0,-23559(r6)
 1800ad8:	89 26 a3 f9 	lbz     r9,-23559(r6)
 1800adc:	89 7e 00 02 	lbz     r11,2(r30)
 1800ae0:	39 49 00 01 	addi    r10,r9,1
 1800ae4:	55 40 06 3e 	clrlwi  r0,r10,24
 1800ae8:	7d 08 5a 14 	add     r8,r8,r11
 1800aec:	55 29 06 3e 	clrlwi  r9,r9,24
 1800af0:	28 00 00 fe 	cmplwi  r0,254
 1800af4:	7d 63 49 ae 	stbx    r11,r3,r9
 1800af8:	7c a7 42 14 	add     r5,r7,r8
 1800afc:	99 1f a3 fc 	stb     r8,-23556(r31)
 1800b00:	98 ac a3 f6 	stb     r5,-23562(r12)
 1800b04:	99 46 a3 f9 	stb     r10,-23559(r6)
 1800b08:	40 81 00 0c 	ble-    1800b14 <send_attitude+0x2e8>
 1800b0c:	38 00 00 00 	li      r0,0
 1800b10:	98 06 a3 f9 	stb     r0,-23559(r6)
 1800b14:	89 26 a3 f9 	lbz     r9,-23559(r6)
 1800b18:	89 7e 00 03 	lbz     r11,3(r30)
 1800b1c:	39 49 00 01 	addi    r10,r9,1
 1800b20:	55 40 06 3e 	clrlwi  r0,r10,24
 1800b24:	7c e8 5a 14 	add     r7,r8,r11
 1800b28:	55 29 06 3e 	clrlwi  r9,r9,24
 1800b2c:	28 00 00 fe 	cmplwi  r0,254
 1800b30:	7d 63 49 ae 	stbx    r11,r3,r9
 1800b34:	7c a5 3a 14 	add     r5,r5,r7
 1800b38:	98 ff a3 fc 	stb     r7,-23556(r31)
 1800b3c:	98 ac a3 f6 	stb     r5,-23562(r12)
 1800b40:	99 46 a3 f9 	stb     r10,-23559(r6)
 1800b44:	40 81 00 0c 	ble-    1800b50 <send_attitude+0x324>
 1800b48:	38 00 00 00 	li      r0,0
 1800b4c:	98 06 a3 f9 	stb     r0,-23559(r6)
 1800b50:	89 64 00 00 	lbz     r11,0(r4)
 1800b54:	3d 20 01 82 	lis     r9,386
 1800b58:	89 49 a4 cc 	lbz     r10,-23348(r9)
 1800b5c:	39 0b 00 01 	addi    r8,r11,1
 1800b60:	7c c7 52 14 	add     r6,r7,r10
 1800b64:	55 00 06 3e 	clrlwi  r0,r8,24
 1800b68:	55 6b 06 3e 	clrlwi  r11,r11,24
 1800b6c:	7d 43 59 ae 	stbx    r10,r3,r11
 1800b70:	7c a5 32 14 	add     r5,r5,r6
 1800b74:	28 00 00 fe 	cmplwi  r0,254
 1800b78:	98 df a3 fc 	stb     r6,-23556(r31)
 1800b7c:	98 ac a3 f6 	stb     r5,-23562(r12)
 1800b80:	3b c9 a4 cc 	addi    r30,r9,-23348
 1800b84:	99 04 00 00 	stb     r8,0(r4)
 1800b88:	40 81 00 0c 	ble-    1800b94 <send_attitude+0x368>
 1800b8c:	38 00 00 00 	li      r0,0
 1800b90:	98 04 00 00 	stb     r0,0(r4)
 1800b94:	89 1e 00 01 	lbz     r8,1(r30)
 1800b98:	89 24 00 00 	lbz     r9,0(r4)
 1800b9c:	7d 46 42 14 	add     r10,r6,r8
 1800ba0:	38 e9 00 01 	addi    r7,r9,1
 1800ba4:	7d 65 52 14 	add     r11,r5,r10
 1800ba8:	99 6c a3 f6 	stb     r11,-23562(r12)
 1800bac:	54 e0 06 3e 	clrlwi  r0,r7,24
 1800bb0:	55 29 06 3e 	clrlwi  r9,r9,24
 1800bb4:	7d 03 49 ae 	stbx    r8,r3,r9
 1800bb8:	28 00 00 fe 	cmplwi  r0,254
 1800bbc:	99 5f a3 fc 	stb     r10,-23556(r31)
 1800bc0:	98 e4 00 00 	stb     r7,0(r4)
 1800bc4:	40 81 00 0c 	ble-    1800bd0 <send_attitude+0x3a4>
 1800bc8:	38 00 00 00 	li      r0,0
 1800bcc:	98 04 00 00 	stb     r0,0(r4)
 1800bd0:	89 24 00 00 	lbz     r9,0(r4)
 1800bd4:	89 1e 00 02 	lbz     r8,2(r30)
 1800bd8:	88 1d 00 00 	lbz     r0,0(r29)
 1800bdc:	89 7c 00 00 	lbz     r11,0(r28)
 1800be0:	38 e9 00 01 	addi    r7,r9,1
 1800be4:	7c c0 42 14 	add     r6,r0,r8
 1800be8:	54 ea 06 3e 	clrlwi  r10,r7,24
 1800bec:	55 29 06 3e 	clrlwi  r9,r9,24
 1800bf0:	7d 03 49 ae 	stbx    r8,r3,r9
 1800bf4:	7c ab 32 14 	add     r5,r11,r6
 1800bf8:	28 0a 00 fe 	cmplwi  r10,254
 1800bfc:	98 dd 00 00 	stb     r6,0(r29)
 1800c00:	98 bc 00 00 	stb     r5,0(r28)
 1800c04:	98 e4 00 00 	stb     r7,0(r4)
 1800c08:	40 81 00 0c 	ble-    1800c14 <send_attitude+0x3e8>
 1800c0c:	38 00 00 00 	li      r0,0
 1800c10:	98 04 00 00 	stb     r0,0(r4)
 1800c14:	89 24 00 00 	lbz     r9,0(r4)
 1800c18:	89 7e 00 03 	lbz     r11,3(r30)
 1800c1c:	39 49 00 01 	addi    r10,r9,1
 1800c20:	7d 06 5a 14 	add     r8,r6,r11
 1800c24:	55 40 06 3e 	clrlwi  r0,r10,24
 1800c28:	55 29 06 3e 	clrlwi  r9,r9,24
 1800c2c:	7d 63 49 ae 	stbx    r11,r3,r9
 1800c30:	7c e5 42 14 	add     r7,r5,r8
 1800c34:	28 00 00 fe 	cmplwi  r0,254
 1800c38:	99 1d 00 00 	stb     r8,0(r29)
 1800c3c:	98 fc 00 00 	stb     r7,0(r28)
 1800c40:	99 44 00 00 	stb     r10,0(r4)
 1800c44:	40 81 00 0c 	ble-    1800c50 <send_attitude+0x424>
 1800c48:	38 00 00 00 	li      r0,0
 1800c4c:	98 04 00 00 	stb     r0,0(r4)
 1800c50:	89 24 00 00 	lbz     r9,0(r4)
 1800c54:	39 69 00 01 	addi    r11,r9,1
 1800c58:	55 60 06 3e 	clrlwi  r0,r11,24
 1800c5c:	55 29 06 3e 	clrlwi  r9,r9,24
 1800c60:	28 00 00 fe 	cmplwi  r0,254
 1800c64:	7d 03 49 ae 	stbx    r8,r3,r9
 1800c68:	99 64 00 00 	stb     r11,0(r4)
 1800c6c:	40 81 00 0c 	ble-    1800c78 <send_attitude+0x44c>
 1800c70:	38 00 00 00 	li      r0,0
 1800c74:	98 04 00 00 	stb     r0,0(r4)
 1800c78:	89 24 00 00 	lbz     r9,0(r4)
 1800c7c:	39 69 00 01 	addi    r11,r9,1
 1800c80:	55 60 06 3e 	clrlwi  r0,r11,24
 1800c84:	55 29 06 3e 	clrlwi  r9,r9,24
 1800c88:	28 00 00 fe 	cmplwi  r0,254
 1800c8c:	7c e3 49 ae 	stbx    r7,r3,r9
 1800c90:	99 64 00 00 	stb     r11,0(r4)
 1800c94:	40 81 00 0c 	ble-    1800ca0 <send_attitude+0x474>
 1800c98:	38 00 00 00 	li      r0,0
 1800c9c:	98 04 00 00 	stb     r0,0(r4)
 1800ca0:	38 c0 00 59 	li      r6,89
 1800ca4:	88 06 00 00 	lbz     r0,0(r6)
 1800ca8:	70 07 00 10 	andi.   r7,r0,16
 1800cac:	40 82 00 6c 	bne-    1800d18 <send_attitude+0x4ec>
 1800cb0:	3d 60 01 82 	lis     r11,386
 1800cb4:	88 0b a3 fa 	lbz     r0,-23558(r11)
 1800cb8:	89 2b a3 fa 	lbz     r9,-23558(r11)
 1800cbc:	7d 03 00 ae 	lbzx    r8,r3,r0
 1800cc0:	39 29 00 01 	addi    r9,r9,1
 1800cc4:	99 2b a3 fa 	stb     r9,-23558(r11)
 1800cc8:	88 0b a3 fa 	lbz     r0,-23558(r11)
 1800ccc:	3d 40 01 82 	lis     r10,386
 1800cd0:	28 00 00 fe 	cmplwi  r0,254
 1800cd4:	3d 20 01 82 	lis     r9,386
 1800cd8:	99 0a a3 f8 	stb     r8,-23560(r10)
 1800cdc:	98 e9 a3 fb 	stb     r7,-23557(r9)
 1800ce0:	40 81 00 08 	ble-    1800ce8 <send_attitude+0x4bc>
 1800ce4:	98 fb a3 fa 	stb     r7,-23558(r27)
 1800ce8:	39 20 00 58 	li      r9,88
 1800cec:	88 09 00 00 	lbz     r0,0(r9)
 1800cf0:	60 00 00 01 	ori     r0,r0,1
 1800cf4:	98 09 00 00 	stb     r0,0(r9)
 1800cf8:	89 66 00 00 	lbz     r11,0(r6)
 1800cfc:	61 6b 00 10 	ori     r11,r11,16
 1800d00:	99 66 00 00 	stb     r11,0(r6)
 1800d04:	48 00 00 14 	b       1800d18 <send_attitude+0x4ec>
 1800d08:	3d 60 01 82 	lis     r11,386
 1800d0c:	89 2b a3 f7 	lbz     r9,-23561(r11)
 1800d10:	39 29 00 01 	addi    r9,r9,1
 1800d14:	99 2b a3 f7 	stb     r9,-23561(r11)
 1800d18:	83 61 00 0c 	lwz     r27,12(r1)
 1800d1c:	83 81 00 10 	lwz     r28,16(r1)
 1800d20:	83 a1 00 14 	lwz     r29,20(r1)
 1800d24:	83 c1 00 18 	lwz     r30,24(r1)
 1800d28:	83 e1 00 1c 	lwz     r31,28(r1)
 1800d2c:	38 21 00 20 	addi    r1,r1,32
 1800d30:	4e 80 00 20 	blr

01800d34 <send_adc>:
 1800d34:	94 21 ff f0 	stwu    r1,-16(r1)
 1800d38:	93 c1 00 08 	stw     r30,8(r1)
 1800d3c:	93 e1 00 0c 	stw     r31,12(r1)
 1800d40:	3d 20 01 82 	lis     r9,386
 1800d44:	88 09 a3 4d 	lbz     r0,-23731(r9)
 1800d48:	2c 00 00 00 	cmpwi   r0,0
 1800d4c:	40 82 02 b0 	bne-    1800ffc <send_adc+0x2c8>
 1800d50:	3d 20 01 82 	lis     r9,386
 1800d54:	89 69 a3 e7 	lbz     r11,-23577(r9)
 1800d58:	3c 00 cc cc 	lis     r0,-13108
 1800d5c:	60 00 cc cd 	ori     r0,r0,52429
 1800d60:	7c 0b 00 16 	mulhwu  r0,r11,r0
 1800d64:	54 00 f0 be 	rlwinm  r0,r0,30,2,31
 1800d68:	54 09 10 3a 	rlwinm  r9,r0,2,0,29
 1800d6c:	7d 29 02 14 	add     r9,r9,r0
 1800d70:	7d 69 58 50 	subf    r11,r9,r11
 1800d74:	55 6b 06 3e 	clrlwi  r11,r11,24
 1800d78:	2c 0b 00 01 	cmpwi   r11,1
 1800d7c:	40 82 02 80 	bne-    1800ffc <send_adc+0x2c8>
 1800d80:	3d 20 01 82 	lis     r9,386
 1800d84:	3d 60 01 82 	lis     r11,386
 1800d88:	89 29 a3 f9 	lbz     r9,-23559(r9)
 1800d8c:	88 0b a3 fa 	lbz     r0,-23558(r11)
 1800d90:	3c c0 01 82 	lis     r6,386
 1800d94:	7c 09 00 40 	cmplw   r9,r0
 1800d98:	3f c0 01 82 	lis     r30,386
 1800d9c:	41 80 00 1c 	blt-    1800db8 <send_adc+0x84>
 1800da0:	88 1e a3 fa 	lbz     r0,-23558(r30)
 1800da4:	7c 00 48 50 	subf    r0,r0,r9
 1800da8:	20 00 00 ff 	subfic  r0,r0,255
 1800dac:	2c 00 00 08 	cmpwi   r0,8
 1800db0:	41 81 00 18 	bgt-    1800dc8 <send_adc+0x94>
 1800db4:	48 00 02 38 	b       1800fec <send_adc+0x2b8>
 1800db8:	88 1e a3 fa 	lbz     r0,-23558(r30)
 1800dbc:	7c 09 00 50 	subf    r0,r9,r0
 1800dc0:	2c 00 00 08 	cmpwi   r0,8
 1800dc4:	40 81 02 28 	ble-    1800fec <send_adc+0x2b8>
 1800dc8:	3d 00 01 82 	lis     r8,386
 1800dcc:	89 28 a3 f9 	lbz     r9,-23559(r8)
 1800dd0:	3d 60 01 82 	lis     r11,386
 1800dd4:	39 49 00 01 	addi    r10,r9,1
 1800dd8:	55 40 06 3e 	clrlwi  r0,r10,24
 1800ddc:	28 00 00 fe 	cmplwi  r0,254
 1800de0:	38 8b a8 b4 	addi    r4,r11,-22348
 1800de4:	55 29 06 3e 	clrlwi  r9,r9,24
 1800de8:	38 00 00 05 	li      r0,5
 1800dec:	7c 04 49 ae 	stbx    r0,r4,r9
 1800df0:	99 48 a3 f9 	stb     r10,-23559(r8)
 1800df4:	40 81 00 0c 	ble-    1800e00 <send_adc+0xcc>
 1800df8:	38 00 00 00 	li      r0,0
 1800dfc:	98 06 a3 f9 	stb     r0,-23559(r6)
 1800e00:	89 26 a3 f9 	lbz     r9,-23559(r6)
 1800e04:	39 40 00 07 	li      r10,7
 1800e08:	39 69 00 01 	addi    r11,r9,1
 1800e0c:	55 60 06 3e 	clrlwi  r0,r11,24
 1800e10:	55 29 06 3e 	clrlwi  r9,r9,24
 1800e14:	28 00 00 fe 	cmplwi  r0,254
 1800e18:	7d 44 49 ae 	stbx    r10,r4,r9
 1800e1c:	99 66 a3 f9 	stb     r11,-23559(r6)
 1800e20:	40 81 00 0c 	ble-    1800e2c <send_adc+0xf8>
 1800e24:	38 00 00 00 	li      r0,0
 1800e28:	98 06 a3 f9 	stb     r0,-23559(r6)
 1800e2c:	89 46 a3 f9 	lbz     r10,-23559(r6)
 1800e30:	3d 20 01 82 	lis     r9,386
 1800e34:	39 0a 00 01 	addi    r8,r10,1
 1800e38:	89 69 a4 42 	lbz     r11,-23486(r9)
 1800e3c:	55 00 06 3e 	clrlwi  r0,r8,24
 1800e40:	55 4a 06 3e 	clrlwi  r10,r10,24
 1800e44:	28 00 00 fe 	cmplwi  r0,254
 1800e48:	7d 64 51 ae 	stbx    r11,r4,r10
 1800e4c:	38 ab 00 0e 	addi    r5,r11,14
 1800e50:	38 eb 00 07 	addi    r7,r11,7
 1800e54:	3c 60 01 82 	lis     r3,386
 1800e58:	3d 80 01 82 	lis     r12,386
 1800e5c:	3b e9 a4 42 	addi    r31,r9,-23486
 1800e60:	98 e3 a3 fc 	stb     r7,-23556(r3)
 1800e64:	98 ac a3 f6 	stb     r5,-23562(r12)
 1800e68:	99 06 a3 f9 	stb     r8,-23559(r6)
 1800e6c:	40 81 00 0c 	ble-    1800e78 <send_adc+0x144>
 1800e70:	38 00 00 00 	li      r0,0
 1800e74:	98 06 a3 f9 	stb     r0,-23559(r6)
 1800e78:	89 26 a3 f9 	lbz     r9,-23559(r6)
 1800e7c:	89 7f 00 01 	lbz     r11,1(r31)
 1800e80:	39 49 00 01 	addi    r10,r9,1
 1800e84:	55 40 06 3e 	clrlwi  r0,r10,24
 1800e88:	7c e7 5a 14 	add     r7,r7,r11
 1800e8c:	55 29 06 3e 	clrlwi  r9,r9,24
 1800e90:	28 00 00 fe 	cmplwi  r0,254
 1800e94:	7d 64 49 ae 	stbx    r11,r4,r9
 1800e98:	7c a5 3a 14 	add     r5,r5,r7
 1800e9c:	98 e3 a3 fc 	stb     r7,-23556(r3)
 1800ea0:	98 ac a3 f6 	stb     r5,-23562(r12)
 1800ea4:	99 46 a3 f9 	stb     r10,-23559(r6)
 1800ea8:	40 81 00 0c 	ble-    1800eb4 <send_adc+0x180>
 1800eac:	38 00 00 00 	li      r0,0
 1800eb0:	98 06 a3 f9 	stb     r0,-23559(r6)
 1800eb4:	89 66 a3 f9 	lbz     r11,-23559(r6)
 1800eb8:	3d 20 01 82 	lis     r9,386
 1800ebc:	39 0b 00 01 	addi    r8,r11,1
 1800ec0:	89 49 a4 40 	lbz     r10,-23488(r9)
 1800ec4:	55 00 06 3e 	clrlwi  r0,r8,24
 1800ec8:	7c e7 52 14 	add     r7,r7,r10
 1800ecc:	55 6b 06 3e 	clrlwi  r11,r11,24
 1800ed0:	28 00 00 fe 	cmplwi  r0,254
 1800ed4:	7d 44 59 ae 	stbx    r10,r4,r11
 1800ed8:	7c a5 3a 14 	add     r5,r5,r7
 1800edc:	3b e9 a4 40 	addi    r31,r9,-23488
 1800ee0:	98 e3 a3 fc 	stb     r7,-23556(r3)
 1800ee4:	98 ac a3 f6 	stb     r5,-23562(r12)
 1800ee8:	99 06 a3 f9 	stb     r8,-23559(r6)
 1800eec:	40 81 00 0c 	ble-    1800ef8 <send_adc+0x1c4>
 1800ef0:	38 00 00 00 	li      r0,0
 1800ef4:	98 06 a3 f9 	stb     r0,-23559(r6)
 1800ef8:	89 26 a3 f9 	lbz     r9,-23559(r6)
 1800efc:	89 7f 00 01 	lbz     r11,1(r31)
 1800f00:	39 49 00 01 	addi    r10,r9,1
 1800f04:	55 40 06 3e 	clrlwi  r0,r10,24
 1800f08:	7d 07 5a 14 	add     r8,r7,r11
 1800f0c:	55 29 06 3e 	clrlwi  r9,r9,24
 1800f10:	28 00 00 fe 	cmplwi  r0,254
 1800f14:	7d 64 49 ae 	stbx    r11,r4,r9
 1800f18:	7c e5 42 14 	add     r7,r5,r8
 1800f1c:	99 03 a3 fc 	stb     r8,-23556(r3)
 1800f20:	98 ec a3 f6 	stb     r7,-23562(r12)
 1800f24:	99 46 a3 f9 	stb     r10,-23559(r6)
 1800f28:	40 81 00 0c 	ble-    1800f34 <send_adc+0x200>
 1800f2c:	38 00 00 00 	li      r0,0
 1800f30:	98 06 a3 f9 	stb     r0,-23559(r6)
 1800f34:	89 26 a3 f9 	lbz     r9,-23559(r6)
 1800f38:	39 69 00 01 	addi    r11,r9,1
 1800f3c:	55 60 06 3e 	clrlwi  r0,r11,24
 1800f40:	55 29 06 3e 	clrlwi  r9,r9,24
 1800f44:	28 00 00 fe 	cmplwi  r0,254
 1800f48:	7d 04 49 ae 	stbx    r8,r4,r9
 1800f4c:	99 66 a3 f9 	stb     r11,-23559(r6)
 1800f50:	40 81 00 0c 	ble-    1800f5c <send_adc+0x228>
 1800f54:	38 00 00 00 	li      r0,0
 1800f58:	98 06 a3 f9 	stb     r0,-23559(r6)
 1800f5c:	89 26 a3 f9 	lbz     r9,-23559(r6)
 1800f60:	39 69 00 01 	addi    r11,r9,1
 1800f64:	55 60 06 3e 	clrlwi  r0,r11,24
 1800f68:	55 29 06 3e 	clrlwi  r9,r9,24
 1800f6c:	28 00 00 fe 	cmplwi  r0,254
 1800f70:	7c e4 49 ae 	stbx    r7,r4,r9
 1800f74:	99 66 a3 f9 	stb     r11,-23559(r6)
 1800f78:	40 81 00 0c 	ble-    1800f84 <send_adc+0x250>
 1800f7c:	38 00 00 00 	li      r0,0
 1800f80:	98 06 a3 f9 	stb     r0,-23559(r6)
 1800f84:	38 c0 00 59 	li      r6,89
 1800f88:	88 06 00 00 	lbz     r0,0(r6)
 1800f8c:	70 07 00 10 	andi.   r7,r0,16
 1800f90:	40 82 00 6c 	bne-    1800ffc <send_adc+0x2c8>
 1800f94:	3d 60 01 82 	lis     r11,386
 1800f98:	88 0b a3 fa 	lbz     r0,-23558(r11)
 1800f9c:	89 2b a3 fa 	lbz     r9,-23558(r11)
 1800fa0:	7d 04 00 ae 	lbzx    r8,r4,r0
 1800fa4:	39 29 00 01 	addi    r9,r9,1
 1800fa8:	99 2b a3 fa 	stb     r9,-23558(r11)
 1800fac:	88 0b a3 fa 	lbz     r0,-23558(r11)
 1800fb0:	3d 40 01 82 	lis     r10,386
 1800fb4:	28 00 00 fe 	cmplwi  r0,254
 1800fb8:	3d 20 01 82 	lis     r9,386
 1800fbc:	99 0a a3 f8 	stb     r8,-23560(r10)
 1800fc0:	98 e9 a3 fb 	stb     r7,-23557(r9)
 1800fc4:	40 81 00 08 	ble-    1800fcc <send_adc+0x298>
 1800fc8:	98 fe a3 fa 	stb     r7,-23558(r30)
 1800fcc:	39 20 00 58 	li      r9,88
 1800fd0:	88 09 00 00 	lbz     r0,0(r9)
 1800fd4:	60 00 00 01 	ori     r0,r0,1
 1800fd8:	98 09 00 00 	stb     r0,0(r9)
 1800fdc:	89 66 00 00 	lbz     r11,0(r6)
 1800fe0:	61 6b 00 10 	ori     r11,r11,16
 1800fe4:	99 66 00 00 	stb     r11,0(r6)
 1800fe8:	48 00 00 14 	b       1800ffc <send_adc+0x2c8>
 1800fec:	3d 60 01 82 	lis     r11,386
 1800ff0:	89 2b a3 f7 	lbz     r9,-23561(r11)
 1800ff4:	39 29 00 01 	addi    r9,r9,1
 1800ff8:	99 2b a3 f7 	stb     r9,-23561(r11)
 1800ffc:	83 c1 00 08 	lwz     r30,8(r1)
 1801000:	83 e1 00 0c 	lwz     r31,12(r1)
 1801004:	38 21 00 10 	addi    r1,r1,16
 1801008:	4e 80 00 20 	blr

0180100c <send_settings>:
 180100c:	94 21 ff e0 	stwu    r1,-32(r1)
 1801010:	93 81 00 10 	stw     r28,16(r1)
 1801014:	93 a1 00 14 	stw     r29,20(r1)
 1801018:	93 c1 00 18 	stw     r30,24(r1)
 180101c:	93 e1 00 1c 	stw     r31,28(r1)
 1801020:	3d 20 01 82 	lis     r9,386
 1801024:	88 09 a3 4d 	lbz     r0,-23731(r9)
 1801028:	2c 00 00 00 	cmpwi   r0,0
 180102c:	40 82 03 fc 	bne-    1801428 <send_settings+0x41c>
 1801030:	3d 20 01 82 	lis     r9,386
 1801034:	89 69 a3 e7 	lbz     r11,-23577(r9)
 1801038:	3c 00 cc cc 	lis     r0,-13108
 180103c:	60 00 cc cd 	ori     r0,r0,52429
 1801040:	7c 0b 00 16 	mulhwu  r0,r11,r0
 1801044:	54 00 f0 be 	rlwinm  r0,r0,30,2,31
 1801048:	54 09 10 3a 	rlwinm  r9,r0,2,0,29
 180104c:	7d 29 02 14 	add     r9,r9,r0
 1801050:	7d 69 58 50 	subf    r11,r9,r11
 1801054:	55 6b 06 3e 	clrlwi  r11,r11,24
 1801058:	2c 0b 00 02 	cmpwi   r11,2
 180105c:	40 82 03 cc 	bne-    1801428 <send_settings+0x41c>
 1801060:	3d 20 01 82 	lis     r9,386
 1801064:	88 09 a3 e1 	lbz     r0,-23583(r9)
 1801068:	2c 00 00 00 	cmpwi   r0,0
 180106c:	41 82 03 bc 	beq-    1801428 <send_settings+0x41c>
 1801070:	3d 20 01 82 	lis     r9,386
 1801074:	3d 60 01 82 	lis     r11,386
 1801078:	89 29 a3 f9 	lbz     r9,-23559(r9)
 180107c:	88 0b a3 fa 	lbz     r0,-23558(r11)
 1801080:	3c c0 01 82 	lis     r6,386
 1801084:	7c 09 00 40 	cmplw   r9,r0
 1801088:	3f a0 01 82 	lis     r29,386
 180108c:	41 80 00 1c 	blt-    18010a8 <send_settings+0x9c>
 1801090:	88 1d a3 fa 	lbz     r0,-23558(r29)
 1801094:	7c 00 48 50 	subf    r0,r0,r9
 1801098:	20 00 00 ff 	subfic  r0,r0,255
 180109c:	2c 00 00 0d 	cmpwi   r0,13
 18010a0:	41 81 00 18 	bgt-    18010b8 <send_settings+0xac>
 18010a4:	48 00 03 74 	b       1801418 <send_settings+0x40c>
 18010a8:	88 1d a3 fa 	lbz     r0,-23558(r29)
 18010ac:	7c 09 00 50 	subf    r0,r9,r0
 18010b0:	2c 00 00 0d 	cmpwi   r0,13
 18010b4:	40 81 03 64 	ble-    1801418 <send_settings+0x40c>
 18010b8:	3d 60 01 82 	lis     r11,386
 18010bc:	89 2b a3 f9 	lbz     r9,-23559(r11)
 18010c0:	3d 40 01 82 	lis     r10,386
 18010c4:	39 09 00 01 	addi    r8,r9,1
 18010c8:	55 00 06 3e 	clrlwi  r0,r8,24
 18010cc:	28 00 00 fe 	cmplwi  r0,254
 18010d0:	38 6a a8 b4 	addi    r3,r10,-22348
 18010d4:	55 29 06 3e 	clrlwi  r9,r9,24
 18010d8:	38 00 00 05 	li      r0,5
 18010dc:	7c 03 49 ae 	stbx    r0,r3,r9
 18010e0:	3b cb a3 f9 	addi    r30,r11,-23559
 18010e4:	99 0b a3 f9 	stb     r8,-23559(r11)
 18010e8:	40 81 00 0c 	ble-    18010f4 <send_settings+0xe8>
 18010ec:	38 00 00 00 	li      r0,0
 18010f0:	98 06 a3 f9 	stb     r0,-23559(r6)
 18010f4:	89 26 a3 f9 	lbz     r9,-23559(r6)
 18010f8:	39 40 00 11 	li      r10,17
 18010fc:	39 69 00 01 	addi    r11,r9,1
 1801100:	55 60 06 3e 	clrlwi  r0,r11,24
 1801104:	55 29 06 3e 	clrlwi  r9,r9,24
 1801108:	28 00 00 fe 	cmplwi  r0,254
 180110c:	7d 43 49 ae 	stbx    r10,r3,r9
 1801110:	99 66 a3 f9 	stb     r11,-23559(r6)
 1801114:	40 81 00 0c 	ble-    1801120 <send_settings+0x114>
 1801118:	38 00 00 00 	li      r0,0
 180111c:	98 06 a3 f9 	stb     r0,-23559(r6)
 1801120:	89 46 a3 f9 	lbz     r10,-23559(r6)
 1801124:	3d 20 01 82 	lis     r9,386
 1801128:	39 0a 00 01 	addi    r8,r10,1
 180112c:	89 69 a3 e1 	lbz     r11,-23583(r9)
 1801130:	55 00 06 3e 	clrlwi  r0,r8,24
 1801134:	55 4a 06 3e 	clrlwi  r10,r10,24
 1801138:	28 00 00 fe 	cmplwi  r0,254
 180113c:	7d 63 51 ae 	stbx    r11,r3,r10
 1801140:	3c 80 01 82 	lis     r4,386
 1801144:	38 ab 00 22 	addi    r5,r11,34
 1801148:	38 eb 00 11 	addi    r7,r11,17
 180114c:	3d 80 01 82 	lis     r12,386
 1801150:	3b 84 a3 f6 	addi    r28,r4,-23562
 1801154:	98 ec a3 fc 	stb     r7,-23556(r12)
 1801158:	98 a4 a3 f6 	stb     r5,-23562(r4)
 180115c:	99 06 a3 f9 	stb     r8,-23559(r6)
 1801160:	40 81 00 0c 	ble-    180116c <send_settings+0x160>
 1801164:	38 00 00 00 	li      r0,0
 1801168:	98 06 a3 f9 	stb     r0,-23559(r6)
 180116c:	89 66 a3 f9 	lbz     r11,-23559(r6)
 1801170:	3d 20 01 82 	lis     r9,386
 1801174:	39 0b 00 01 	addi    r8,r11,1
 1801178:	89 49 a3 f0 	lbz     r10,-23568(r9)
 180117c:	55 00 06 3e 	clrlwi  r0,r8,24
 1801180:	7c e7 52 14 	add     r7,r7,r10
 1801184:	55 6b 06 3e 	clrlwi  r11,r11,24
 1801188:	28 00 00 fe 	cmplwi  r0,254
 180118c:	7d 43 59 ae 	stbx    r10,r3,r11
 1801190:	7c a5 3a 14 	add     r5,r5,r7
 1801194:	3b e9 a3 f0 	addi    r31,r9,-23568
 1801198:	98 ec a3 fc 	stb     r7,-23556(r12)
 180119c:	98 a4 a3 f6 	stb     r5,-23562(r4)
 18011a0:	99 06 a3 f9 	stb     r8,-23559(r6)
 18011a4:	40 81 00 0c 	ble-    18011b0 <send_settings+0x1a4>
 18011a8:	38 00 00 00 	li      r0,0
 18011ac:	98 06 a3 f9 	stb     r0,-23559(r6)
 18011b0:	89 26 a3 f9 	lbz     r9,-23559(r6)
 18011b4:	89 7f 00 01 	lbz     r11,1(r31)
 18011b8:	39 49 00 01 	addi    r10,r9,1
 18011bc:	55 40 06 3e 	clrlwi  r0,r10,24
 18011c0:	7d 07 5a 14 	add     r8,r7,r11
 18011c4:	55 29 06 3e 	clrlwi  r9,r9,24
 18011c8:	28 00 00 fe 	cmplwi  r0,254
 18011cc:	7d 63 49 ae 	stbx    r11,r3,r9
 18011d0:	7c e5 42 14 	add     r7,r5,r8
 18011d4:	99 0c a3 fc 	stb     r8,-23556(r12)
 18011d8:	98 e4 a3 f6 	stb     r7,-23562(r4)
 18011dc:	99 46 a3 f9 	stb     r10,-23559(r6)
 18011e0:	40 81 00 0c 	ble-    18011ec <send_settings+0x1e0>
 18011e4:	38 00 00 00 	li      r0,0
 18011e8:	98 06 a3 f9 	stb     r0,-23559(r6)
 18011ec:	89 26 a3 f9 	lbz     r9,-23559(r6)
 18011f0:	89 7f 00 02 	lbz     r11,2(r31)
 18011f4:	39 49 00 01 	addi    r10,r9,1
 18011f8:	55 40 06 3e 	clrlwi  r0,r10,24
 18011fc:	7d 08 5a 14 	add     r8,r8,r11
 1801200:	55 29 06 3e 	clrlwi  r9,r9,24
 1801204:	28 00 00 fe 	cmplwi  r0,254
 1801208:	7d 63 49 ae 	stbx    r11,r3,r9
 180120c:	7c a7 42 14 	add     r5,r7,r8
 1801210:	99 0c a3 fc 	stb     r8,-23556(r12)
 1801214:	98 a4 a3 f6 	stb     r5,-23562(r4)
 1801218:	99 46 a3 f9 	stb     r10,-23559(r6)
 180121c:	40 81 00 0c 	ble-    1801228 <send_settings+0x21c>
 1801220:	38 00 00 00 	li      r0,0
 1801224:	98 06 a3 f9 	stb     r0,-23559(r6)
 1801228:	89 26 a3 f9 	lbz     r9,-23559(r6)
 180122c:	89 7f 00 03 	lbz     r11,3(r31)
 1801230:	39 49 00 01 	addi    r10,r9,1
 1801234:	55 40 06 3e 	clrlwi  r0,r10,24
 1801238:	7c e8 5a 14 	add     r7,r8,r11
 180123c:	55 29 06 3e 	clrlwi  r9,r9,24
 1801240:	28 00 00 fe 	cmplwi  r0,254
 1801244:	7d 63 49 ae 	stbx    r11,r3,r9
 1801248:	7c a5 3a 14 	add     r5,r5,r7
 180124c:	98 ec a3 fc 	stb     r7,-23556(r12)
 1801250:	98 a4 a3 f6 	stb     r5,-23562(r4)
 1801254:	99 46 a3 f9 	stb     r10,-23559(r6)
 1801258:	40 81 00 0c 	ble-    1801264 <send_settings+0x258>
 180125c:	38 00 00 00 	li      r0,0
 1801260:	98 06 a3 f9 	stb     r0,-23559(r6)
 1801264:	89 66 a3 f9 	lbz     r11,-23559(r6)
 1801268:	3d 20 01 82 	lis     r9,386
 180126c:	39 0b 00 01 	addi    r8,r11,1
 1801270:	89 49 a3 ec 	lbz     r10,-23572(r9)
 1801274:	55 00 06 3e 	clrlwi  r0,r8,24
 1801278:	7c e7 52 14 	add     r7,r7,r10
 180127c:	55 6b 06 3e 	clrlwi  r11,r11,24
 1801280:	28 00 00 fe 	cmplwi  r0,254
 1801284:	7d 43 59 ae 	stbx    r10,r3,r11
 1801288:	7c a5 3a 14 	add     r5,r5,r7
 180128c:	3b e9 a3 ec 	addi    r31,r9,-23572
 1801290:	98 ec a3 fc 	stb     r7,-23556(r12)
 1801294:	98 a4 a3 f6 	stb     r5,-23562(r4)
 1801298:	99 06 a3 f9 	stb     r8,-23559(r6)
 180129c:	40 81 00 0c 	ble-    18012a8 <send_settings+0x29c>
 18012a0:	38 00 00 00 	li      r0,0
 18012a4:	98 06 a3 f9 	stb     r0,-23559(r6)
 18012a8:	89 26 a3 f9 	lbz     r9,-23559(r6)
 18012ac:	89 7f 00 01 	lbz     r11,1(r31)
 18012b0:	39 49 00 01 	addi    r10,r9,1
 18012b4:	55 40 06 3e 	clrlwi  r0,r10,24
 18012b8:	7d 07 5a 14 	add     r8,r7,r11
 18012bc:	55 29 06 3e 	clrlwi  r9,r9,24
 18012c0:	28 00 00 fe 	cmplwi  r0,254
 18012c4:	7d 63 49 ae 	stbx    r11,r3,r9
 18012c8:	7c a5 42 14 	add     r5,r5,r8
 18012cc:	99 0c a3 fc 	stb     r8,-23556(r12)
 18012d0:	98 a4 a3 f6 	stb     r5,-23562(r4)
 18012d4:	99 46 a3 f9 	stb     r10,-23559(r6)
 18012d8:	40 81 00 0c 	ble-    18012e4 <send_settings+0x2d8>
 18012dc:	38 00 00 00 	li      r0,0
 18012e0:	98 06 a3 f9 	stb     r0,-23559(r6)
 18012e4:	89 26 a3 f9 	lbz     r9,-23559(r6)
 18012e8:	89 7f 00 02 	lbz     r11,2(r31)
 18012ec:	39 49 00 01 	addi    r10,r9,1
 18012f0:	55 40 06 3e 	clrlwi  r0,r10,24
 18012f4:	7c e8 5a 14 	add     r7,r8,r11
 18012f8:	55 29 06 3e 	clrlwi  r9,r9,24
 18012fc:	28 00 00 fe 	cmplwi  r0,254
 1801300:	7d 63 49 ae 	stbx    r11,r3,r9
 1801304:	7c a5 3a 14 	add     r5,r5,r7
 1801308:	98 ec a3 fc 	stb     r7,-23556(r12)
 180130c:	98 a4 a3 f6 	stb     r5,-23562(r4)
 1801310:	99 46 a3 f9 	stb     r10,-23559(r6)
 1801314:	40 81 00 0c 	ble-    1801320 <send_settings+0x314>
 1801318:	38 00 00 00 	li      r0,0
 180131c:	98 06 a3 f9 	stb     r0,-23559(r6)
 1801320:	89 5f 00 03 	lbz     r10,3(r31)
 1801324:	89 3e 00 00 	lbz     r9,0(r30)
 1801328:	7c e7 52 14 	add     r7,r7,r10
 180132c:	39 09 00 01 	addi    r8,r9,1
 1801330:	55 00 06 3e 	clrlwi  r0,r8,24
 1801334:	7d 65 3a 14 	add     r11,r5,r7
 1801338:	55 29 06 3e 	clrlwi  r9,r9,24
 180133c:	99 64 a3 f6 	stb     r11,-23562(r4)
 1801340:	28 00 00 fe 	cmplwi  r0,254
 1801344:	7d 43 49 ae 	stbx    r10,r3,r9
 1801348:	98 ec a3 fc 	stb     r7,-23556(r12)
 180134c:	99 1e 00 00 	stb     r8,0(r30)
 1801350:	40 81 00 0c 	ble-    180135c <send_settings+0x350>
 1801354:	38 00 00 00 	li      r0,0
 1801358:	98 1e 00 00 	stb     r0,0(r30)
 180135c:	89 3e 00 00 	lbz     r9,0(r30)
 1801360:	39 69 00 01 	addi    r11,r9,1
 1801364:	55 60 06 3e 	clrlwi  r0,r11,24
 1801368:	55 29 06 3e 	clrlwi  r9,r9,24
 180136c:	28 00 00 fe 	cmplwi  r0,254
 1801370:	7c e3 49 ae 	stbx    r7,r3,r9
 1801374:	99 7e 00 00 	stb     r11,0(r30)
 1801378:	40 81 00 0c 	ble-    1801384 <send_settings+0x378>
 180137c:	38 00 00 00 	li      r0,0
 1801380:	98 1e 00 00 	stb     r0,0(r30)
 1801384:	89 3e 00 00 	lbz     r9,0(r30)
 1801388:	89 5c 00 00 	lbz     r10,0(r28)
 180138c:	39 69 00 01 	addi    r11,r9,1
 1801390:	55 60 06 3e 	clrlwi  r0,r11,24
 1801394:	55 29 06 3e 	clrlwi  r9,r9,24
 1801398:	28 00 00 fe 	cmplwi  r0,254
 180139c:	7d 43 49 ae 	stbx    r10,r3,r9
 18013a0:	99 7e 00 00 	stb     r11,0(r30)
 18013a4:	40 81 00 0c 	ble-    18013b0 <send_settings+0x3a4>
 18013a8:	38 00 00 00 	li      r0,0
 18013ac:	98 1e 00 00 	stb     r0,0(r30)
 18013b0:	38 c0 00 59 	li      r6,89
 18013b4:	88 06 00 00 	lbz     r0,0(r6)
 18013b8:	70 07 00 10 	andi.   r7,r0,16
 18013bc:	40 82 00 6c 	bne-    1801428 <send_settings+0x41c>
 18013c0:	3d 60 01 82 	lis     r11,386
 18013c4:	88 0b a3 fa 	lbz     r0,-23558(r11)
 18013c8:	89 2b a3 fa 	lbz     r9,-23558(r11)
 18013cc:	7d 03 00 ae 	lbzx    r8,r3,r0
 18013d0:	39 29 00 01 	addi    r9,r9,1
 18013d4:	99 2b a3 fa 	stb     r9,-23558(r11)
 18013d8:	88 0b a3 fa 	lbz     r0,-23558(r11)
 18013dc:	3d 40 01 82 	lis     r10,386
 18013e0:	28 00 00 fe 	cmplwi  r0,254
 18013e4:	3d 20 01 82 	lis     r9,386
 18013e8:	99 0a a3 f8 	stb     r8,-23560(r10)
 18013ec:	98 e9 a3 fb 	stb     r7,-23557(r9)
 18013f0:	40 81 00 08 	ble-    18013f8 <send_settings+0x3ec>
 18013f4:	98 fd a3 fa 	stb     r7,-23558(r29)
 18013f8:	39 20 00 58 	li      r9,88
 18013fc:	88 09 00 00 	lbz     r0,0(r9)
 1801400:	60 00 00 01 	ori     r0,r0,1
 1801404:	98 09 00 00 	stb     r0,0(r9)
 1801408:	89 66 00 00 	lbz     r11,0(r6)
 180140c:	61 6b 00 10 	ori     r11,r11,16
 1801410:	99 66 00 00 	stb     r11,0(r6)
 1801414:	48 00 00 14 	b       1801428 <send_settings+0x41c>
 1801418:	3d 60 01 82 	lis     r11,386
 180141c:	89 2b a3 f7 	lbz     r9,-23561(r11)
 1801420:	39 29 00 01 	addi    r9,r9,1
 1801424:	99 2b a3 f7 	stb     r9,-23561(r11)
 1801428:	83 81 00 10 	lwz     r28,16(r1)
 180142c:	83 a1 00 14 	lwz     r29,20(r1)
 1801430:	83 c1 00 18 	lwz     r30,24(r1)
 1801434:	83 e1 00 1c 	lwz     r31,28(r1)
 1801438:	38 21 00 20 	addi    r1,r1,32
 180143c:	4e 80 00 20 	blr

01801440 <send_desired>:
 1801440:	94 21 ff e0 	stwu    r1,-32(r1)
 1801444:	93 61 00 0c 	stw     r27,12(r1)
 1801448:	93 81 00 10 	stw     r28,16(r1)
 180144c:	93 a1 00 14 	stw     r29,20(r1)
 1801450:	93 c1 00 18 	stw     r30,24(r1)
 1801454:	93 e1 00 1c 	stw     r31,28(r1)
 1801458:	3d 20 01 82 	lis     r9,386
 180145c:	88 09 a3 4d 	lbz     r0,-23731(r9)
 1801460:	2c 00 00 00 	cmpwi   r0,0
 1801464:	40 82 06 a0 	bne-    1801b04 <send_desired+0x6c4>
 1801468:	3d 20 01 82 	lis     r9,386
 180146c:	89 69 a3 e7 	lbz     r11,-23577(r9)
 1801470:	3c 00 cc cc 	lis     r0,-13108
 1801474:	60 00 cc cd 	ori     r0,r0,52429
 1801478:	7c 0b 00 16 	mulhwu  r0,r11,r0
 180147c:	54 00 e8 fe 	rlwinm  r0,r0,29,3,31
 1801480:	54 09 18 38 	rlwinm  r9,r0,3,0,28
 1801484:	7d 29 02 14 	add     r9,r9,r0
 1801488:	7d 29 02 14 	add     r9,r9,r0
 180148c:	7d 69 58 50 	subf    r11,r9,r11
 1801490:	55 6b 06 3e 	clrlwi  r11,r11,24
 1801494:	2c 0b 00 03 	cmpwi   r11,3
 1801498:	40 82 06 6c 	bne-    1801b04 <send_desired+0x6c4>
 180149c:	3d 20 01 82 	lis     r9,386
 18014a0:	3d 60 01 82 	lis     r11,386
 18014a4:	89 29 a3 f9 	lbz     r9,-23559(r9)
 18014a8:	88 0b a3 fa 	lbz     r0,-23558(r11)
 18014ac:	3c c0 01 82 	lis     r6,386
 18014b0:	7c 09 00 40 	cmplw   r9,r0
 18014b4:	3f 60 01 82 	lis     r27,386
 18014b8:	41 80 00 1c 	blt-    18014d4 <send_desired+0x94>
 18014bc:	88 1b a3 fa 	lbz     r0,-23558(r27)
 18014c0:	7c 00 48 50 	subf    r0,r0,r9
 18014c4:	20 00 00 ff 	subfic  r0,r0,255
 18014c8:	2c 00 00 18 	cmpwi   r0,24
 18014cc:	41 81 00 18 	bgt-    18014e4 <send_desired+0xa4>
 18014d0:	48 00 06 24 	b       1801af4 <send_desired+0x6b4>
 18014d4:	88 1b a3 fa 	lbz     r0,-23558(r27)
 18014d8:	7c 09 00 50 	subf    r0,r9,r0
 18014dc:	2c 00 00 18 	cmpwi   r0,24
 18014e0:	40 81 06 14 	ble-    1801af4 <send_desired+0x6b4>
 18014e4:	3d 60 01 82 	lis     r11,386
 18014e8:	89 2b a3 f9 	lbz     r9,-23559(r11)
 18014ec:	3d 40 01 82 	lis     r10,386
 18014f0:	39 09 00 01 	addi    r8,r9,1
 18014f4:	55 00 06 3e 	clrlwi  r0,r8,24
 18014f8:	28 00 00 fe 	cmplwi  r0,254
 18014fc:	38 6a a8 b4 	addi    r3,r10,-22348
 1801500:	55 29 06 3e 	clrlwi  r9,r9,24
 1801504:	38 00 00 05 	li      r0,5
 1801508:	7c 03 49 ae 	stbx    r0,r3,r9
 180150c:	38 ab a3 f9 	addi    r5,r11,-23559
 1801510:	99 0b a3 f9 	stb     r8,-23559(r11)
 1801514:	40 81 00 0c 	ble-    1801520 <send_desired+0xe0>
 1801518:	38 00 00 00 	li      r0,0
 180151c:	98 06 a3 f9 	stb     r0,-23559(r6)
 1801520:	89 26 a3 f9 	lbz     r9,-23559(r6)
 1801524:	39 40 00 12 	li      r10,18
 1801528:	39 69 00 01 	addi    r11,r9,1
 180152c:	55 60 06 3e 	clrlwi  r0,r11,24
 1801530:	55 29 06 3e 	clrlwi  r9,r9,24
 1801534:	28 00 00 fe 	cmplwi  r0,254
 1801538:	7d 43 49 ae 	stbx    r10,r3,r9
 180153c:	99 66 a3 f9 	stb     r11,-23559(r6)
 1801540:	40 81 00 0c 	ble-    180154c <send_desired+0x10c>
 1801544:	38 00 00 00 	li      r0,0
 1801548:	98 06 a3 f9 	stb     r0,-23559(r6)
 180154c:	89 46 a3 f9 	lbz     r10,-23559(r6)
 1801550:	3d 20 01 82 	lis     r9,386
 1801554:	39 0a 00 01 	addi    r8,r10,1
 1801558:	89 69 a3 74 	lbz     r11,-23692(r9)
 180155c:	55 00 06 3e 	clrlwi  r0,r8,24
 1801560:	55 4a 06 3e 	clrlwi  r10,r10,24
 1801564:	28 00 00 fe 	cmplwi  r0,254
 1801568:	7d 63 51 ae 	stbx    r11,r3,r10
 180156c:	3f e0 01 82 	lis     r31,386
 1801570:	3d 80 01 82 	lis     r12,386
 1801574:	38 8b 00 24 	addi    r4,r11,36
 1801578:	38 eb 00 12 	addi    r7,r11,18
 180157c:	3b c9 a3 74 	addi    r30,r9,-23692
 1801580:	3b bf a3 fc 	addi    r29,r31,-23556
 1801584:	3b 8c a3 f6 	addi    r28,r12,-23562
 1801588:	98 ff a3 fc 	stb     r7,-23556(r31)
 180158c:	98 8c a3 f6 	stb     r4,-23562(r12)
 1801590:	99 06 a3 f9 	stb     r8,-23559(r6)
 1801594:	40 81 00 0c 	ble-    18015a0 <send_desired+0x160>
 1801598:	38 00 00 00 	li      r0,0
 180159c:	98 06 a3 f9 	stb     r0,-23559(r6)
 18015a0:	89 26 a3 f9 	lbz     r9,-23559(r6)
 18015a4:	89 7e 00 01 	lbz     r11,1(r30)
 18015a8:	39 49 00 01 	addi    r10,r9,1
 18015ac:	55 40 06 3e 	clrlwi  r0,r10,24
 18015b0:	7d 07 5a 14 	add     r8,r7,r11
 18015b4:	55 29 06 3e 	clrlwi  r9,r9,24
 18015b8:	28 00 00 fe 	cmplwi  r0,254
 18015bc:	7d 63 49 ae 	stbx    r11,r3,r9
 18015c0:	7c e4 42 14 	add     r7,r4,r8
 18015c4:	99 1f a3 fc 	stb     r8,-23556(r31)
 18015c8:	98 ec a3 f6 	stb     r7,-23562(r12)
 18015cc:	99 46 a3 f9 	stb     r10,-23559(r6)
 18015d0:	40 81 00 0c 	ble-    18015dc <send_desired+0x19c>
 18015d4:	38 00 00 00 	li      r0,0
 18015d8:	98 06 a3 f9 	stb     r0,-23559(r6)
 18015dc:	89 26 a3 f9 	lbz     r9,-23559(r6)
 18015e0:	89 7e 00 02 	lbz     r11,2(r30)
 18015e4:	39 49 00 01 	addi    r10,r9,1
 18015e8:	55 40 06 3e 	clrlwi  r0,r10,24
 18015ec:	7d 08 5a 14 	add     r8,r8,r11
 18015f0:	55 29 06 3e 	clrlwi  r9,r9,24
 18015f4:	28 00 00 fe 	cmplwi  r0,254
 18015f8:	7d 63 49 ae 	stbx    r11,r3,r9
 18015fc:	7c 87 42 14 	add     r4,r7,r8
 1801600:	99 1f a3 fc 	stb     r8,-23556(r31)
 1801604:	98 8c a3 f6 	stb     r4,-23562(r12)
 1801608:	99 46 a3 f9 	stb     r10,-23559(r6)
 180160c:	40 81 00 0c 	ble-    1801618 <send_desired+0x1d8>
 1801610:	38 00 00 00 	li      r0,0
 1801614:	98 06 a3 f9 	stb     r0,-23559(r6)
 1801618:	89 26 a3 f9 	lbz     r9,-23559(r6)
 180161c:	89 7e 00 03 	lbz     r11,3(r30)
 1801620:	39 49 00 01 	addi    r10,r9,1
 1801624:	55 40 06 3e 	clrlwi  r0,r10,24
 1801628:	7c e8 5a 14 	add     r7,r8,r11
 180162c:	55 29 06 3e 	clrlwi  r9,r9,24
 1801630:	28 00 00 fe 	cmplwi  r0,254
 1801634:	7d 63 49 ae 	stbx    r11,r3,r9
 1801638:	7c 84 3a 14 	add     r4,r4,r7
 180163c:	98 ff a3 fc 	stb     r7,-23556(r31)
 1801640:	98 8c a3 f6 	stb     r4,-23562(r12)
 1801644:	99 46 a3 f9 	stb     r10,-23559(r6)
 1801648:	40 81 00 0c 	ble-    1801654 <send_desired+0x214>
 180164c:	38 00 00 00 	li      r0,0
 1801650:	98 06 a3 f9 	stb     r0,-23559(r6)
 1801654:	89 66 a3 f9 	lbz     r11,-23559(r6)
 1801658:	3d 20 01 82 	lis     r9,386
 180165c:	39 0b 00 01 	addi    r8,r11,1
 1801660:	89 49 a3 78 	lbz     r10,-23688(r9)
 1801664:	55 00 06 3e 	clrlwi  r0,r8,24
 1801668:	7c e7 52 14 	add     r7,r7,r10
 180166c:	55 6b 06 3e 	clrlwi  r11,r11,24
 1801670:	28 00 00 fe 	cmplwi  r0,254
 1801674:	7d 43 59 ae 	stbx    r10,r3,r11
 1801678:	7c 84 3a 14 	add     r4,r4,r7
 180167c:	3b c9 a3 78 	addi    r30,r9,-23688
 1801680:	98 ff a3 fc 	stb     r7,-23556(r31)
 1801684:	98 8c a3 f6 	stb     r4,-23562(r12)
 1801688:	99 06 a3 f9 	stb     r8,-23559(r6)
 180168c:	40 81 00 0c 	ble-    1801698 <send_desired+0x258>
 1801690:	38 00 00 00 	li      r0,0
 1801694:	98 06 a3 f9 	stb     r0,-23559(r6)
 1801698:	89 26 a3 f9 	lbz     r9,-23559(r6)
 180169c:	89 7e 00 01 	lbz     r11,1(r30)
 18016a0:	39 49 00 01 	addi    r10,r9,1
 18016a4:	55 40 06 3e 	clrlwi  r0,r10,24
 18016a8:	7d 07 5a 14 	add     r8,r7,r11
 18016ac:	55 29 06 3e 	clrlwi  r9,r9,24
 18016b0:	28 00 00 fe 	cmplwi  r0,254
 18016b4:	7d 63 49 ae 	stbx    r11,r3,r9
 18016b8:	7c e4 42 14 	add     r7,r4,r8
 18016bc:	99 1f a3 fc 	stb     r8,-23556(r31)
 18016c0:	98 ec a3 f6 	stb     r7,-23562(r12)
 18016c4:	99 46 a3 f9 	stb     r10,-23559(r6)
 18016c8:	40 81 00 0c 	ble-    18016d4 <send_desired+0x294>
 18016cc:	38 00 00 00 	li      r0,0
 18016d0:	98 06 a3 f9 	stb     r0,-23559(r6)
 18016d4:	89 26 a3 f9 	lbz     r9,-23559(r6)
 18016d8:	89 7e 00 02 	lbz     r11,2(r30)
 18016dc:	39 49 00 01 	addi    r10,r9,1
 18016e0:	55 40 06 3e 	clrlwi  r0,r10,24
 18016e4:	7d 08 5a 14 	add     r8,r8,r11
 18016e8:	55 29 06 3e 	clrlwi  r9,r9,24
 18016ec:	28 00 00 fe 	cmplwi  r0,254
 18016f0:	7d 63 49 ae 	stbx    r11,r3,r9
 18016f4:	7c 87 42 14 	add     r4,r7,r8
 18016f8:	99 1f a3 fc 	stb     r8,-23556(r31)
 18016fc:	98 8c a3 f6 	stb     r4,-23562(r12)
 1801700:	99 46 a3 f9 	stb     r10,-23559(r6)
 1801704:	40 81 00 0c 	ble-    1801710 <send_desired+0x2d0>
 1801708:	38 00 00 00 	li      r0,0
 180170c:	98 06 a3 f9 	stb     r0,-23559(r6)
 1801710:	89 26 a3 f9 	lbz     r9,-23559(r6)
 1801714:	89 7e 00 03 	lbz     r11,3(r30)
 1801718:	39 49 00 01 	addi    r10,r9,1
 180171c:	55 40 06 3e 	clrlwi  r0,r10,24
 1801720:	7c e8 5a 14 	add     r7,r8,r11
 1801724:	55 29 06 3e 	clrlwi  r9,r9,24
 1801728:	28 00 00 fe 	cmplwi  r0,254
 180172c:	7d 63 49 ae 	stbx    r11,r3,r9
 1801730:	7c 84 3a 14 	add     r4,r4,r7
 1801734:	98 ff a3 fc 	stb     r7,-23556(r31)
 1801738:	98 8c a3 f6 	stb     r4,-23562(r12)
 180173c:	99 46 a3 f9 	stb     r10,-23559(r6)
 1801740:	40 81 00 0c 	ble-    180174c <send_desired+0x30c>
 1801744:	38 00 00 00 	li      r0,0
 1801748:	98 06 a3 f9 	stb     r0,-23559(r6)
 180174c:	89 65 00 00 	lbz     r11,0(r5)
 1801750:	3d 20 01 82 	lis     r9,386
 1801754:	89 49 a4 74 	lbz     r10,-23436(r9)
 1801758:	39 0b 00 01 	addi    r8,r11,1
 180175c:	7c c7 52 14 	add     r6,r7,r10
 1801760:	55 00 06 3e 	clrlwi  r0,r8,24
 1801764:	55 6b 06 3e 	clrlwi  r11,r11,24
 1801768:	7d 43 59 ae 	stbx    r10,r3,r11
 180176c:	7c 84 32 14 	add     r4,r4,r6
 1801770:	28 00 00 fe 	cmplwi  r0,254
 1801774:	98 df a3 fc 	stb     r6,-23556(r31)
 1801778:	98 8c a3 f6 	stb     r4,-23562(r12)
 180177c:	3b c9 a4 74 	addi    r30,r9,-23436
 1801780:	99 05 00 00 	stb     r8,0(r5)
 1801784:	40 81 00 0c 	ble-    1801790 <send_desired+0x350>
 1801788:	38 00 00 00 	li      r0,0
 180178c:	98 05 00 00 	stb     r0,0(r5)
 1801790:	89 1e 00 01 	lbz     r8,1(r30)
 1801794:	89 25 00 00 	lbz     r9,0(r5)
 1801798:	7d 46 42 14 	add     r10,r6,r8
 180179c:	38 e9 00 01 	addi    r7,r9,1
 18017a0:	7d 64 52 14 	add     r11,r4,r10
 18017a4:	99 6c a3 f6 	stb     r11,-23562(r12)
 18017a8:	54 e0 06 3e 	clrlwi  r0,r7,24
 18017ac:	55 29 06 3e 	clrlwi  r9,r9,24
 18017b0:	7d 03 49 ae 	stbx    r8,r3,r9
 18017b4:	28 00 00 fe 	cmplwi  r0,254
 18017b8:	99 5f a3 fc 	stb     r10,-23556(r31)
 18017bc:	98 e5 00 00 	stb     r7,0(r5)
 18017c0:	40 81 00 0c 	ble-    18017cc <send_desired+0x38c>
 18017c4:	38 00 00 00 	li      r0,0
 18017c8:	98 05 00 00 	stb     r0,0(r5)
 18017cc:	89 25 00 00 	lbz     r9,0(r5)
 18017d0:	89 1e 00 02 	lbz     r8,2(r30)
 18017d4:	88 1d 00 00 	lbz     r0,0(r29)
 18017d8:	89 7c 00 00 	lbz     r11,0(r28)
 18017dc:	38 e9 00 01 	addi    r7,r9,1
 18017e0:	7c c0 42 14 	add     r6,r0,r8
 18017e4:	54 ea 06 3e 	clrlwi  r10,r7,24
 18017e8:	55 29 06 3e 	clrlwi  r9,r9,24
 18017ec:	7d 03 49 ae 	stbx    r8,r3,r9
 18017f0:	7c 8b 32 14 	add     r4,r11,r6
 18017f4:	28 0a 00 fe 	cmplwi  r10,254
 18017f8:	98 dd 00 00 	stb     r6,0(r29)
 18017fc:	98 9c 00 00 	stb     r4,0(r28)
 1801800:	98 e5 00 00 	stb     r7,0(r5)
 1801804:	40 81 00 0c 	ble-    1801810 <send_desired+0x3d0>
 1801808:	38 00 00 00 	li      r0,0
 180180c:	98 05 00 00 	stb     r0,0(r5)
 1801810:	89 25 00 00 	lbz     r9,0(r5)
 1801814:	89 7e 00 03 	lbz     r11,3(r30)
 1801818:	39 49 00 01 	addi    r10,r9,1
 180181c:	7c e6 5a 14 	add     r7,r6,r11
 1801820:	55 40 06 3e 	clrlwi  r0,r10,24
 1801824:	55 29 06 3e 	clrlwi  r9,r9,24
 1801828:	7d 63 49 ae 	stbx    r11,r3,r9
 180182c:	7c c4 3a 14 	add     r6,r4,r7
 1801830:	28 00 00 fe 	cmplwi  r0,254
 1801834:	98 fd 00 00 	stb     r7,0(r29)
 1801838:	98 dc 00 00 	stb     r6,0(r28)
 180183c:	99 45 00 00 	stb     r10,0(r5)
 1801840:	40 81 00 0c 	ble-    180184c <send_desired+0x40c>
 1801844:	38 00 00 00 	li      r0,0
 1801848:	98 05 00 00 	stb     r0,0(r5)
 180184c:	89 65 00 00 	lbz     r11,0(r5)
 1801850:	3d 20 01 82 	lis     r9,386
 1801854:	89 49 a4 7c 	lbz     r10,-23428(r9)
 1801858:	39 0b 00 01 	addi    r8,r11,1
 180185c:	7c e7 52 14 	add     r7,r7,r10
 1801860:	55 00 06 3e 	clrlwi  r0,r8,24
 1801864:	55 6b 06 3e 	clrlwi  r11,r11,24
 1801868:	7d 43 59 ae 	stbx    r10,r3,r11
 180186c:	7c c6 3a 14 	add     r6,r6,r7
 1801870:	28 00 00 fe 	cmplwi  r0,254
 1801874:	98 fd 00 00 	stb     r7,0(r29)
 1801878:	98 dc 00 00 	stb     r6,0(r28)
 180187c:	38 89 a4 7c 	addi    r4,r9,-23428
 1801880:	99 05 00 00 	stb     r8,0(r5)
 1801884:	40 81 00 0c 	ble-    1801890 <send_desired+0x450>
 1801888:	38 00 00 00 	li      r0,0
 180188c:	98 05 00 00 	stb     r0,0(r5)
 1801890:	89 25 00 00 	lbz     r9,0(r5)
 1801894:	89 64 00 01 	lbz     r11,1(r4)
 1801898:	39 49 00 01 	addi    r10,r9,1
 180189c:	7d 07 5a 14 	add     r8,r7,r11
 18018a0:	55 40 06 3e 	clrlwi  r0,r10,24
 18018a4:	55 29 06 3e 	clrlwi  r9,r9,24
 18018a8:	7d 63 49 ae 	stbx    r11,r3,r9
 18018ac:	7c e6 42 14 	add     r7,r6,r8
 18018b0:	28 00 00 fe 	cmplwi  r0,254
 18018b4:	99 1d 00 00 	stb     r8,0(r29)
 18018b8:	98 fc 00 00 	stb     r7,0(r28)
 18018bc:	99 45 00 00 	stb     r10,0(r5)
 18018c0:	40 81 00 0c 	ble-    18018cc <send_desired+0x48c>
 18018c4:	38 00 00 00 	li      r0,0
 18018c8:	98 05 00 00 	stb     r0,0(r5)
 18018cc:	89 25 00 00 	lbz     r9,0(r5)
 18018d0:	89 64 00 02 	lbz     r11,2(r4)
 18018d4:	39 49 00 01 	addi    r10,r9,1
 18018d8:	7d 08 5a 14 	add     r8,r8,r11
 18018dc:	55 40 06 3e 	clrlwi  r0,r10,24
 18018e0:	55 29 06 3e 	clrlwi  r9,r9,24
 18018e4:	7d 63 49 ae 	stbx    r11,r3,r9
 18018e8:	7c c7 42 14 	add     r6,r7,r8
 18018ec:	28 00 00 fe 	cmplwi  r0,254
 18018f0:	99 1d 00 00 	stb     r8,0(r29)
 18018f4:	98 dc 00 00 	stb     r6,0(r28)
 18018f8:	99 45 00 00 	stb     r10,0(r5)
 18018fc:	40 81 00 0c 	ble-    1801908 <send_desired+0x4c8>
 1801900:	38 00 00 00 	li      r0,0
 1801904:	98 05 00 00 	stb     r0,0(r5)
 1801908:	89 25 00 00 	lbz     r9,0(r5)
 180190c:	89 64 00 03 	lbz     r11,3(r4)
 1801910:	39 49 00 01 	addi    r10,r9,1
 1801914:	7c e8 5a 14 	add     r7,r8,r11
 1801918:	55 40 06 3e 	clrlwi  r0,r10,24
 180191c:	55 29 06 3e 	clrlwi  r9,r9,24
 1801920:	7d 63 49 ae 	stbx    r11,r3,r9
 1801924:	7c c6 3a 14 	add     r6,r6,r7
 1801928:	28 00 00 fe 	cmplwi  r0,254
 180192c:	98 fd 00 00 	stb     r7,0(r29)
 1801930:	98 dc 00 00 	stb     r6,0(r28)
 1801934:	99 45 00 00 	stb     r10,0(r5)
 1801938:	40 81 00 0c 	ble-    1801944 <send_desired+0x504>
 180193c:	38 00 00 00 	li      r0,0
 1801940:	98 05 00 00 	stb     r0,0(r5)
 1801944:	89 65 00 00 	lbz     r11,0(r5)
 1801948:	3d 20 01 82 	lis     r9,386
 180194c:	89 49 a3 d4 	lbz     r10,-23596(r9)
 1801950:	39 0b 00 01 	addi    r8,r11,1
 1801954:	7c e7 52 14 	add     r7,r7,r10
 1801958:	55 00 06 3e 	clrlwi  r0,r8,24
 180195c:	55 6b 06 3e 	clrlwi  r11,r11,24
 1801960:	7d 43 59 ae 	stbx    r10,r3,r11
 1801964:	7c c6 3a 14 	add     r6,r6,r7
 1801968:	28 00 00 fe 	cmplwi  r0,254
 180196c:	98 fd 00 00 	stb     r7,0(r29)
 1801970:	98 dc 00 00 	stb     r6,0(r28)
 1801974:	38 89 a3 d4 	addi    r4,r9,-23596
 1801978:	99 05 00 00 	stb     r8,0(r5)
 180197c:	40 81 00 0c 	ble-    1801988 <send_desired+0x548>
 1801980:	38 00 00 00 	li      r0,0
 1801984:	98 05 00 00 	stb     r0,0(r5)
 1801988:	89 25 00 00 	lbz     r9,0(r5)
 180198c:	89 64 00 01 	lbz     r11,1(r4)
 1801990:	39 49 00 01 	addi    r10,r9,1
 1801994:	7d 07 5a 14 	add     r8,r7,r11
 1801998:	55 40 06 3e 	clrlwi  r0,r10,24
 180199c:	55 29 06 3e 	clrlwi  r9,r9,24
 18019a0:	7d 63 49 ae 	stbx    r11,r3,r9
 18019a4:	7c e6 42 14 	add     r7,r6,r8
 18019a8:	28 00 00 fe 	cmplwi  r0,254
 18019ac:	99 1d 00 00 	stb     r8,0(r29)
 18019b0:	98 fc 00 00 	stb     r7,0(r28)
 18019b4:	99 45 00 00 	stb     r10,0(r5)
 18019b8:	40 81 00 0c 	ble-    18019c4 <send_desired+0x584>
 18019bc:	38 00 00 00 	li      r0,0
 18019c0:	98 05 00 00 	stb     r0,0(r5)
 18019c4:	89 25 00 00 	lbz     r9,0(r5)
 18019c8:	89 64 00 02 	lbz     r11,2(r4)
 18019cc:	39 49 00 01 	addi    r10,r9,1
 18019d0:	7d 08 5a 14 	add     r8,r8,r11
 18019d4:	55 40 06 3e 	clrlwi  r0,r10,24
 18019d8:	55 29 06 3e 	clrlwi  r9,r9,24
 18019dc:	7d 63 49 ae 	stbx    r11,r3,r9
 18019e0:	7c e7 42 14 	add     r7,r7,r8
 18019e4:	28 00 00 fe 	cmplwi  r0,254
 18019e8:	99 1d 00 00 	stb     r8,0(r29)
 18019ec:	98 fc 00 00 	stb     r7,0(r28)
 18019f0:	99 45 00 00 	stb     r10,0(r5)
 18019f4:	40 81 00 0c 	ble-    1801a00 <send_desired+0x5c0>
 18019f8:	38 00 00 00 	li      r0,0
 18019fc:	98 05 00 00 	stb     r0,0(r5)
 1801a00:	89 25 00 00 	lbz     r9,0(r5)
 1801a04:	89 64 00 03 	lbz     r11,3(r4)
 1801a08:	39 49 00 01 	addi    r10,r9,1
 1801a0c:	7d 08 5a 14 	add     r8,r8,r11
 1801a10:	55 40 06 3e 	clrlwi  r0,r10,24
 1801a14:	55 29 06 3e 	clrlwi  r9,r9,24
 1801a18:	7d 63 49 ae 	stbx    r11,r3,r9
 1801a1c:	7c e7 42 14 	add     r7,r7,r8
 1801a20:	28 00 00 fe 	cmplwi  r0,254
 1801a24:	99 1d 00 00 	stb     r8,0(r29)
 1801a28:	98 fc 00 00 	stb     r7,0(r28)
 1801a2c:	99 45 00 00 	stb     r10,0(r5)
 1801a30:	40 81 00 0c 	ble-    1801a3c <send_desired+0x5fc>
 1801a34:	38 00 00 00 	li      r0,0
 1801a38:	98 05 00 00 	stb     r0,0(r5)
 1801a3c:	89 25 00 00 	lbz     r9,0(r5)
 1801a40:	39 69 00 01 	addi    r11,r9,1
 1801a44:	55 60 06 3e 	clrlwi  r0,r11,24
 1801a48:	55 29 06 3e 	clrlwi  r9,r9,24
 1801a4c:	28 00 00 fe 	cmplwi  r0,254
 1801a50:	7d 03 49 ae 	stbx    r8,r3,r9
 1801a54:	99 65 00 00 	stb     r11,0(r5)
 1801a58:	40 81 00 0c 	ble-    1801a64 <send_desired+0x624>
 1801a5c:	38 00 00 00 	li      r0,0
 1801a60:	98 05 00 00 	stb     r0,0(r5)
 1801a64:	89 25 00 00 	lbz     r9,0(r5)
 1801a68:	39 69 00 01 	addi    r11,r9,1
 1801a6c:	55 60 06 3e 	clrlwi  r0,r11,24
 1801a70:	55 29 06 3e 	clrlwi  r9,r9,24
 1801a74:	28 00 00 fe 	cmplwi  r0,254
 1801a78:	7c e3 49 ae 	stbx    r7,r3,r9
 1801a7c:	99 65 00 00 	stb     r11,0(r5)
 1801a80:	40 81 00 0c 	ble-    1801a8c <send_desired+0x64c>
 1801a84:	38 00 00 00 	li      r0,0
 1801a88:	98 05 00 00 	stb     r0,0(r5)
 1801a8c:	38 c0 00 59 	li      r6,89
 1801a90:	88 06 00 00 	lbz     r0,0(r6)
 1801a94:	70 07 00 10 	andi.   r7,r0,16
 1801a98:	40 82 00 6c 	bne-    1801b04 <send_desired+0x6c4>
 1801a9c:	3d 60 01 82 	lis     r11,386
 1801aa0:	88 0b a3 fa 	lbz     r0,-23558(r11)
 1801aa4:	89 2b a3 fa 	lbz     r9,-23558(r11)
 1801aa8:	7d 03 00 ae 	lbzx    r8,r3,r0
 1801aac:	39 29 00 01 	addi    r9,r9,1
 1801ab0:	99 2b a3 fa 	stb     r9,-23558(r11)
 1801ab4:	88 0b a3 fa 	lbz     r0,-23558(r11)
 1801ab8:	3d 40 01 82 	lis     r10,386
 1801abc:	28 00 00 fe 	cmplwi  r0,254
 1801ac0:	3d 20 01 82 	lis     r9,386
 1801ac4:	99 0a a3 f8 	stb     r8,-23560(r10)
 1801ac8:	98 e9 a3 fb 	stb     r7,-23557(r9)
 1801acc:	40 81 00 08 	ble-    1801ad4 <send_desired+0x694>
 1801ad0:	98 fb a3 fa 	stb     r7,-23558(r27)
 1801ad4:	39 20 00 58 	li      r9,88
 1801ad8:	88 09 00 00 	lbz     r0,0(r9)
 1801adc:	60 00 00 01 	ori     r0,r0,1
 1801ae0:	98 09 00 00 	stb     r0,0(r9)
 1801ae4:	89 66 00 00 	lbz     r11,0(r6)
 1801ae8:	61 6b 00 10 	ori     r11,r11,16
 1801aec:	99 66 00 00 	stb     r11,0(r6)
 1801af0:	48 00 00 14 	b       1801b04 <send_desired+0x6c4>
 1801af4:	3d 60 01 82 	lis     r11,386
 1801af8:	89 2b a3 f7 	lbz     r9,-23561(r11)
 1801afc:	39 29 00 01 	addi    r9,r9,1
 1801b00:	99 2b a3 f7 	stb     r9,-23561(r11)
 1801b04:	83 61 00 0c 	lwz     r27,12(r1)
 1801b08:	83 81 00 10 	lwz     r28,16(r1)
 1801b0c:	83 a1 00 14 	lwz     r29,20(r1)
 1801b10:	83 c1 00 18 	lwz     r30,24(r1)
 1801b14:	83 e1 00 1c 	lwz     r31,28(r1)
 1801b18:	38 21 00 20 	addi    r1,r1,32
 1801b1c:	4e 80 00 20 	blr

01801b20 <send_bat>:
 1801b20:	94 21 ff e0 	stwu    r1,-32(r1)
 1801b24:	93 a1 00 14 	stw     r29,20(r1)
 1801b28:	93 c1 00 18 	stw     r30,24(r1)
 1801b2c:	93 e1 00 1c 	stw     r31,28(r1)
 1801b30:	3d 20 01 82 	lis     r9,386
 1801b34:	88 09 a3 4d 	lbz     r0,-23731(r9)
 1801b38:	2c 00 00 00 	cmpwi   r0,0
 1801b3c:	40 82 03 b8 	bne-    1801ef4 <send_bat+0x3d4>
 1801b40:	3d 20 01 82 	lis     r9,386
 1801b44:	89 69 a3 e7 	lbz     r11,-23577(r9)
 1801b48:	3c 00 cc cc 	lis     r0,-13108
 1801b4c:	60 00 cc cd 	ori     r0,r0,52429
 1801b50:	7c 0b 00 16 	mulhwu  r0,r11,r0
 1801b54:	54 00 e1 3e 	rlwinm  r0,r0,28,4,31
 1801b58:	54 09 10 3a 	rlwinm  r9,r0,2,0,29
 1801b5c:	7d 29 02 14 	add     r9,r9,r0
 1801b60:	55 29 10 3a 	rlwinm  r9,r9,2,0,29
 1801b64:	7d 69 58 50 	subf    r11,r9,r11
 1801b68:	55 6b 06 3e 	clrlwi  r11,r11,24
 1801b6c:	2c 0b 00 08 	cmpwi   r11,8
 1801b70:	40 82 03 84 	bne-    1801ef4 <send_bat+0x3d4>
 1801b74:	3d 20 01 82 	lis     r9,386
 1801b78:	3d 60 01 82 	lis     r11,386
 1801b7c:	89 29 a3 f9 	lbz     r9,-23559(r9)
 1801b80:	88 0b a3 fa 	lbz     r0,-23558(r11)
 1801b84:	3c c0 01 82 	lis     r6,386
 1801b88:	7c 09 00 40 	cmplw   r9,r0
 1801b8c:	3f a0 01 82 	lis     r29,386
 1801b90:	41 80 00 1c 	blt-    1801bac <send_bat+0x8c>
 1801b94:	88 1d a3 fa 	lbz     r0,-23558(r29)
 1801b98:	7c 00 48 50 	subf    r0,r0,r9
 1801b9c:	20 00 00 ff 	subfic  r0,r0,255
 1801ba0:	2c 00 00 0c 	cmpwi   r0,12
 1801ba4:	41 81 00 18 	bgt-    1801bbc <send_bat+0x9c>
 1801ba8:	48 00 03 3c 	b       1801ee4 <send_bat+0x3c4>
 1801bac:	88 1d a3 fa 	lbz     r0,-23558(r29)
 1801bb0:	7c 09 00 50 	subf    r0,r9,r0
 1801bb4:	2c 00 00 0c 	cmpwi   r0,12
 1801bb8:	40 81 03 2c 	ble-    1801ee4 <send_bat+0x3c4>
 1801bbc:	3d 60 01 82 	lis     r11,386
 1801bc0:	89 2b a3 f9 	lbz     r9,-23559(r11)
 1801bc4:	3d 40 01 82 	lis     r10,386
 1801bc8:	39 09 00 01 	addi    r8,r9,1
 1801bcc:	55 00 06 3e 	clrlwi  r0,r8,24
 1801bd0:	28 00 00 fe 	cmplwi  r0,254
 1801bd4:	38 8a a8 b4 	addi    r4,r10,-22348
 1801bd8:	55 29 06 3e 	clrlwi  r9,r9,24
 1801bdc:	38 00 00 05 	li      r0,5
 1801be0:	7c 04 49 ae 	stbx    r0,r4,r9
 1801be4:	3b cb a3 f9 	addi    r30,r11,-23559
 1801be8:	99 0b a3 f9 	stb     r8,-23559(r11)
 1801bec:	40 81 00 0c 	ble-    1801bf8 <send_bat+0xd8>
 1801bf0:	38 00 00 00 	li      r0,0
 1801bf4:	98 06 a3 f9 	stb     r0,-23559(r6)
 1801bf8:	89 26 a3 f9 	lbz     r9,-23559(r6)
 1801bfc:	39 40 00 0c 	li      r10,12
 1801c00:	39 69 00 01 	addi    r11,r9,1
 1801c04:	55 60 06 3e 	clrlwi  r0,r11,24
 1801c08:	55 29 06 3e 	clrlwi  r9,r9,24
 1801c0c:	28 00 00 fe 	cmplwi  r0,254
 1801c10:	7d 44 49 ae 	stbx    r10,r4,r9
 1801c14:	99 66 a3 f9 	stb     r11,-23559(r6)
 1801c18:	40 81 00 0c 	ble-    1801c24 <send_bat+0x104>
 1801c1c:	38 00 00 00 	li      r0,0
 1801c20:	98 06 a3 f9 	stb     r0,-23559(r6)
 1801c24:	89 46 a3 f9 	lbz     r10,-23559(r6)
 1801c28:	3d 20 01 82 	lis     r9,386
 1801c2c:	39 0a 00 01 	addi    r8,r10,1
 1801c30:	89 69 a3 f5 	lbz     r11,-23563(r9)
 1801c34:	55 00 06 3e 	clrlwi  r0,r8,24
 1801c38:	55 4a 06 3e 	clrlwi  r10,r10,24
 1801c3c:	28 00 00 fe 	cmplwi  r0,254
 1801c40:	7d 64 51 ae 	stbx    r11,r4,r10
 1801c44:	38 ab 00 18 	addi    r5,r11,24
 1801c48:	38 eb 00 0c 	addi    r7,r11,12
 1801c4c:	3c 60 01 82 	lis     r3,386
 1801c50:	3d 80 01 82 	lis     r12,386
 1801c54:	98 e3 a3 fc 	stb     r7,-23556(r3)
 1801c58:	98 ac a3 f6 	stb     r5,-23562(r12)
 1801c5c:	99 06 a3 f9 	stb     r8,-23559(r6)
 1801c60:	40 81 00 0c 	ble-    1801c6c <send_bat+0x14c>
 1801c64:	38 00 00 00 	li      r0,0
 1801c68:	98 06 a3 f9 	stb     r0,-23559(r6)
 1801c6c:	89 66 a3 f9 	lbz     r11,-23559(r6)
 1801c70:	3d 20 01 82 	lis     r9,386
 1801c74:	39 0b 00 01 	addi    r8,r11,1
 1801c78:	89 49 a4 b4 	lbz     r10,-23372(r9)
 1801c7c:	55 00 06 3e 	clrlwi  r0,r8,24
 1801c80:	7c e7 52 14 	add     r7,r7,r10
 1801c84:	55 6b 06 3e 	clrlwi  r11,r11,24
 1801c88:	28 00 00 fe 	cmplwi  r0,254
 1801c8c:	7d 44 59 ae 	stbx    r10,r4,r11
 1801c90:	7c a5 3a 14 	add     r5,r5,r7
 1801c94:	3b e9 a4 b4 	addi    r31,r9,-23372
 1801c98:	98 e3 a3 fc 	stb     r7,-23556(r3)
 1801c9c:	98 ac a3 f6 	stb     r5,-23562(r12)
 1801ca0:	99 06 a3 f9 	stb     r8,-23559(r6)
 1801ca4:	40 81 00 0c 	ble-    1801cb0 <send_bat+0x190>
 1801ca8:	38 00 00 00 	li      r0,0
 1801cac:	98 06 a3 f9 	stb     r0,-23559(r6)
 1801cb0:	89 26 a3 f9 	lbz     r9,-23559(r6)
 1801cb4:	89 7f 00 01 	lbz     r11,1(r31)
 1801cb8:	39 49 00 01 	addi    r10,r9,1
 1801cbc:	55 40 06 3e 	clrlwi  r0,r10,24
 1801cc0:	7c e7 5a 14 	add     r7,r7,r11
 1801cc4:	55 29 06 3e 	clrlwi  r9,r9,24
 1801cc8:	28 00 00 fe 	cmplwi  r0,254
 1801ccc:	7d 64 49 ae 	stbx    r11,r4,r9
 1801cd0:	7c a5 3a 14 	add     r5,r5,r7
 1801cd4:	98 e3 a3 fc 	stb     r7,-23556(r3)
 1801cd8:	98 ac a3 f6 	stb     r5,-23562(r12)
 1801cdc:	99 46 a3 f9 	stb     r10,-23559(r6)
 1801ce0:	40 81 00 0c 	ble-    1801cec <send_bat+0x1cc>
 1801ce4:	38 00 00 00 	li      r0,0
 1801ce8:	98 06 a3 f9 	stb     r0,-23559(r6)
 1801cec:	89 66 a3 f9 	lbz     r11,-23559(r6)
 1801cf0:	3d 20 01 82 	lis     r9,386
 1801cf4:	39 0b 00 01 	addi    r8,r11,1
 1801cf8:	89 49 a3 4b 	lbz     r10,-23733(r9)
 1801cfc:	55 00 06 3e 	clrlwi  r0,r8,24
 1801d00:	7c e7 52 14 	add     r7,r7,r10
 1801d04:	55 6b 06 3e 	clrlwi  r11,r11,24
 1801d08:	28 00 00 fe 	cmplwi  r0,254
 1801d0c:	7d 44 59 ae 	stbx    r10,r4,r11
 1801d10:	7c a5 3a 14 	add     r5,r5,r7
 1801d14:	98 e3 a3 fc 	stb     r7,-23556(r3)
 1801d18:	98 ac a3 f6 	stb     r5,-23562(r12)
 1801d1c:	99 06 a3 f9 	stb     r8,-23559(r6)
 1801d20:	40 81 00 0c 	ble-    1801d2c <send_bat+0x20c>
 1801d24:	38 00 00 00 	li      r0,0
 1801d28:	98 06 a3 f9 	stb     r0,-23559(r6)
 1801d2c:	89 66 a3 f9 	lbz     r11,-23559(r6)
 1801d30:	3d 20 01 82 	lis     r9,386
 1801d34:	39 0b 00 01 	addi    r8,r11,1
 1801d38:	89 49 a4 98 	lbz     r10,-23400(r9)
 1801d3c:	55 00 06 3e 	clrlwi  r0,r8,24
 1801d40:	7c e7 52 14 	add     r7,r7,r10
 1801d44:	55 6b 06 3e 	clrlwi  r11,r11,24
 1801d48:	28 00 00 fe 	cmplwi  r0,254
 1801d4c:	7d 44 59 ae 	stbx    r10,r4,r11
 1801d50:	7c a5 3a 14 	add     r5,r5,r7
 1801d54:	3b e9 a4 98 	addi    r31,r9,-23400
 1801d58:	98 e3 a3 fc 	stb     r7,-23556(r3)
 1801d5c:	98 ac a3 f6 	stb     r5,-23562(r12)
 1801d60:	99 06 a3 f9 	stb     r8,-23559(r6)
 1801d64:	40 81 00 0c 	ble-    1801d70 <send_bat+0x250>
 1801d68:	38 00 00 00 	li      r0,0
 1801d6c:	98 06 a3 f9 	stb     r0,-23559(r6)
 1801d70:	89 26 a3 f9 	lbz     r9,-23559(r6)
 1801d74:	89 7f 00 01 	lbz     r11,1(r31)
 1801d78:	39 49 00 01 	addi    r10,r9,1
 1801d7c:	55 40 06 3e 	clrlwi  r0,r10,24
 1801d80:	7c e7 5a 14 	add     r7,r7,r11
 1801d84:	55 29 06 3e 	clrlwi  r9,r9,24
 1801d88:	28 00 00 fe 	cmplwi  r0,254
 1801d8c:	7d 64 49 ae 	stbx    r11,r4,r9
 1801d90:	7c a5 3a 14 	add     r5,r5,r7
 1801d94:	98 e3 a3 fc 	stb     r7,-23556(r3)
 1801d98:	98 ac a3 f6 	stb     r5,-23562(r12)
 1801d9c:	99 46 a3 f9 	stb     r10,-23559(r6)
 1801da0:	40 81 00 0c 	ble-    1801dac <send_bat+0x28c>
 1801da4:	38 00 00 00 	li      r0,0
 1801da8:	98 06 a3 f9 	stb     r0,-23559(r6)
 1801dac:	89 66 a3 f9 	lbz     r11,-23559(r6)
 1801db0:	3d 20 01 82 	lis     r9,386
 1801db4:	39 0b 00 01 	addi    r8,r11,1
 1801db8:	89 49 a4 96 	lbz     r10,-23402(r9)
 1801dbc:	55 00 06 3e 	clrlwi  r0,r8,24
 1801dc0:	7c e7 52 14 	add     r7,r7,r10
 1801dc4:	55 6b 06 3e 	clrlwi  r11,r11,24
 1801dc8:	28 00 00 fe 	cmplwi  r0,254
 1801dcc:	7d 44 59 ae 	stbx    r10,r4,r11
 1801dd0:	7c a5 3a 14 	add     r5,r5,r7
 1801dd4:	3b e9 a4 96 	addi    r31,r9,-23402
 1801dd8:	98 e3 a3 fc 	stb     r7,-23556(r3)
 1801ddc:	98 ac a3 f6 	stb     r5,-23562(r12)
 1801de0:	99 06 a3 f9 	stb     r8,-23559(r6)
 1801de4:	40 81 00 0c 	ble-    1801df0 <send_bat+0x2d0>
 1801de8:	38 00 00 00 	li      r0,0
 1801dec:	98 06 a3 f9 	stb     r0,-23559(r6)
 1801df0:	89 26 a3 f9 	lbz     r9,-23559(r6)
 1801df4:	89 7f 00 01 	lbz     r11,1(r31)
 1801df8:	39 49 00 01 	addi    r10,r9,1
 1801dfc:	55 40 06 3e 	clrlwi  r0,r10,24
 1801e00:	7d 07 5a 14 	add     r8,r7,r11
 1801e04:	55 29 06 3e 	clrlwi  r9,r9,24
 1801e08:	28 00 00 fe 	cmplwi  r0,254
 1801e0c:	7d 64 49 ae 	stbx    r11,r4,r9
 1801e10:	7c e5 42 14 	add     r7,r5,r8
 1801e14:	99 03 a3 fc 	stb     r8,-23556(r3)
 1801e18:	98 ec a3 f6 	stb     r7,-23562(r12)
 1801e1c:	99 46 a3 f9 	stb     r10,-23559(r6)
 1801e20:	40 81 00 0c 	ble-    1801e2c <send_bat+0x30c>
 1801e24:	38 00 00 00 	li      r0,0
 1801e28:	98 06 a3 f9 	stb     r0,-23559(r6)
 1801e2c:	89 3e 00 00 	lbz     r9,0(r30)
 1801e30:	39 69 00 01 	addi    r11,r9,1
 1801e34:	55 60 06 3e 	clrlwi  r0,r11,24
 1801e38:	55 29 06 3e 	clrlwi  r9,r9,24
 1801e3c:	28 00 00 fe 	cmplwi  r0,254
 1801e40:	7d 04 49 ae 	stbx    r8,r4,r9
 1801e44:	99 7e 00 00 	stb     r11,0(r30)
 1801e48:	40 81 00 0c 	ble-    1801e54 <send_bat+0x334>
 1801e4c:	38 00 00 00 	li      r0,0
 1801e50:	98 1e 00 00 	stb     r0,0(r30)
 1801e54:	89 3e 00 00 	lbz     r9,0(r30)
 1801e58:	39 69 00 01 	addi    r11,r9,1
 1801e5c:	55 60 06 3e 	clrlwi  r0,r11,24
 1801e60:	55 29 06 3e 	clrlwi  r9,r9,24
 1801e64:	28 00 00 fe 	cmplwi  r0,254
 1801e68:	7c e4 49 ae 	stbx    r7,r4,r9
 1801e6c:	99 7e 00 00 	stb     r11,0(r30)
 1801e70:	40 81 00 0c 	ble-    1801e7c <send_bat+0x35c>
 1801e74:	38 00 00 00 	li      r0,0
 1801e78:	98 1e 00 00 	stb     r0,0(r30)
 1801e7c:	38 c0 00 59 	li      r6,89
 1801e80:	88 06 00 00 	lbz     r0,0(r6)
 1801e84:	70 07 00 10 	andi.   r7,r0,16
 1801e88:	40 82 00 6c 	bne-    1801ef4 <send_bat+0x3d4>
 1801e8c:	3d 60 01 82 	lis     r11,386
 1801e90:	88 0b a3 fa 	lbz     r0,-23558(r11)
 1801e94:	89 2b a3 fa 	lbz     r9,-23558(r11)
 1801e98:	7d 04 00 ae 	lbzx    r8,r4,r0
 1801e9c:	39 29 00 01 	addi    r9,r9,1
 1801ea0:	99 2b a3 fa 	stb     r9,-23558(r11)
 1801ea4:	88 0b a3 fa 	lbz     r0,-23558(r11)
 1801ea8:	3d 40 01 82 	lis     r10,386
 1801eac:	28 00 00 fe 	cmplwi  r0,254
 1801eb0:	3d 20 01 82 	lis     r9,386
 1801eb4:	99 0a a3 f8 	stb     r8,-23560(r10)
 1801eb8:	98 e9 a3 fb 	stb     r7,-23557(r9)
 1801ebc:	40 81 00 08 	ble-    1801ec4 <send_bat+0x3a4>
 1801ec0:	98 fd a3 fa 	stb     r7,-23558(r29)
 1801ec4:	39 20 00 58 	li      r9,88
 1801ec8:	88 09 00 00 	lbz     r0,0(r9)
 1801ecc:	60 00 00 01 	ori     r0,r0,1
 1801ed0:	98 09 00 00 	stb     r0,0(r9)
 1801ed4:	89 66 00 00 	lbz     r11,0(r6)
 1801ed8:	61 6b 00 10 	ori     r11,r11,16
 1801edc:	99 66 00 00 	stb     r11,0(r6)
 1801ee0:	48 00 00 14 	b       1801ef4 <send_bat+0x3d4>
 1801ee4:	3d 60 01 82 	lis     r11,386
 1801ee8:	89 2b a3 f7 	lbz     r9,-23561(r11)
 1801eec:	39 29 00 01 	addi    r9,r9,1
 1801ef0:	99 2b a3 f7 	stb     r9,-23561(r11)
 1801ef4:	83 a1 00 14 	lwz     r29,20(r1)
 1801ef8:	83 c1 00 18 	lwz     r30,24(r1)
 1801efc:	83 e1 00 1c 	lwz     r31,28(r1)
 1801f00:	38 21 00 20 	addi    r1,r1,32
 1801f04:	4e 80 00 20 	blr

01801f08 <send_climb>:
 1801f08:	94 21 ff e0 	stwu    r1,-32(r1)
 1801f0c:	93 61 00 0c 	stw     r27,12(r1)
 1801f10:	93 81 00 10 	stw     r28,16(r1)
 1801f14:	93 a1 00 14 	stw     r29,20(r1)
 1801f18:	93 c1 00 18 	stw     r30,24(r1)
 1801f1c:	93 e1 00 1c 	stw     r31,28(r1)
 1801f20:	3d 20 01 82 	lis     r9,386
 1801f24:	88 09 a3 4d 	lbz     r0,-23731(r9)
 1801f28:	2c 00 00 00 	cmpwi   r0,0
 1801f2c:	40 82 05 30 	bne-    180245c <send_climb+0x554>
 1801f30:	3d 20 01 82 	lis     r9,386
 1801f34:	89 69 a3 e7 	lbz     r11,-23577(r9)
 1801f38:	3c 00 cc cc 	lis     r0,-13108
 1801f3c:	60 00 cc cd 	ori     r0,r0,52429
 1801f40:	7c 0b 00 16 	mulhwu  r0,r11,r0
 1801f44:	54 00 e1 3e 	rlwinm  r0,r0,28,4,31
 1801f48:	54 09 10 3a 	rlwinm  r9,r0,2,0,29
 1801f4c:	7d 29 02 14 	add     r9,r9,r0
 1801f50:	55 29 10 3a 	rlwinm  r9,r9,2,0,29
 1801f54:	7d 69 58 50 	subf    r11,r9,r11
 1801f58:	55 6b 06 3e 	clrlwi  r11,r11,24
 1801f5c:	2c 0b 00 12 	cmpwi   r11,18
 1801f60:	40 82 04 fc 	bne-    180245c <send_climb+0x554>
 1801f64:	3d 20 01 82 	lis     r9,386
 1801f68:	3d 60 01 82 	lis     r11,386
 1801f6c:	89 29 a3 f9 	lbz     r9,-23559(r9)
 1801f70:	88 0b a3 fa 	lbz     r0,-23558(r11)
 1801f74:	3c c0 01 82 	lis     r6,386
 1801f78:	7c 09 00 40 	cmplw   r9,r0
 1801f7c:	3f 60 01 82 	lis     r27,386
 1801f80:	41 80 00 1c 	blt-    1801f9c <send_climb+0x94>
 1801f84:	88 1b a3 fa 	lbz     r0,-23558(r27)
 1801f88:	7c 00 48 50 	subf    r0,r0,r9
 1801f8c:	20 00 00 ff 	subfic  r0,r0,255
 1801f90:	2c 00 00 12 	cmpwi   r0,18
 1801f94:	41 81 00 18 	bgt-    1801fac <send_climb+0xa4>
 1801f98:	48 00 04 b4 	b       180244c <send_climb+0x544>
 1801f9c:	88 1b a3 fa 	lbz     r0,-23558(r27)
 1801fa0:	7c 09 00 50 	subf    r0,r9,r0
 1801fa4:	2c 00 00 12 	cmpwi   r0,18
 1801fa8:	40 81 04 a4 	ble-    180244c <send_climb+0x544>
 1801fac:	3d 60 01 82 	lis     r11,386
 1801fb0:	89 2b a3 f9 	lbz     r9,-23559(r11)
 1801fb4:	3d 40 01 82 	lis     r10,386
 1801fb8:	39 09 00 01 	addi    r8,r9,1
 1801fbc:	55 00 06 3e 	clrlwi  r0,r8,24
 1801fc0:	28 00 00 fe 	cmplwi  r0,254
 1801fc4:	38 6a a8 b4 	addi    r3,r10,-22348
 1801fc8:	55 29 06 3e 	clrlwi  r9,r9,24
 1801fcc:	38 00 00 05 	li      r0,5
 1801fd0:	7c 03 49 ae 	stbx    r0,r3,r9
 1801fd4:	38 8b a3 f9 	addi    r4,r11,-23559
 1801fd8:	99 0b a3 f9 	stb     r8,-23559(r11)
 1801fdc:	40 81 00 0c 	ble-    1801fe8 <send_climb+0xe0>
 1801fe0:	38 00 00 00 	li      r0,0
 1801fe4:	98 06 a3 f9 	stb     r0,-23559(r6)
 1801fe8:	89 26 a3 f9 	lbz     r9,-23559(r6)
 1801fec:	39 40 00 0e 	li      r10,14
 1801ff0:	39 69 00 01 	addi    r11,r9,1
 1801ff4:	55 60 06 3e 	clrlwi  r0,r11,24
 1801ff8:	55 29 06 3e 	clrlwi  r9,r9,24
 1801ffc:	28 00 00 fe 	cmplwi  r0,254
 1802000:	7d 43 49 ae 	stbx    r10,r3,r9
 1802004:	99 66 a3 f9 	stb     r11,-23559(r6)
 1802008:	40 81 00 0c 	ble-    1802014 <send_climb+0x10c>
 180200c:	38 00 00 00 	li      r0,0
 1802010:	98 06 a3 f9 	stb     r0,-23559(r6)
 1802014:	89 46 a3 f9 	lbz     r10,-23559(r6)
 1802018:	3d 20 01 82 	lis     r9,386
 180201c:	39 0a 00 01 	addi    r8,r10,1
 1802020:	89 69 a4 44 	lbz     r11,-23484(r9)
 1802024:	55 00 06 3e 	clrlwi  r0,r8,24
 1802028:	55 4a 06 3e 	clrlwi  r10,r10,24
 180202c:	28 00 00 fe 	cmplwi  r0,254
 1802030:	7d 63 51 ae 	stbx    r11,r3,r10
 1802034:	3f e0 01 82 	lis     r31,386
 1802038:	3d 80 01 82 	lis     r12,386
 180203c:	38 ab 00 1c 	addi    r5,r11,28
 1802040:	38 eb 00 0e 	addi    r7,r11,14
 1802044:	3b c9 a4 44 	addi    r30,r9,-23484
 1802048:	3b bf a3 fc 	addi    r29,r31,-23556
 180204c:	3b 8c a3 f6 	addi    r28,r12,-23562
 1802050:	98 ff a3 fc 	stb     r7,-23556(r31)
 1802054:	98 ac a3 f6 	stb     r5,-23562(r12)
 1802058:	99 06 a3 f9 	stb     r8,-23559(r6)
 180205c:	40 81 00 0c 	ble-    1802068 <send_climb+0x160>
 1802060:	38 00 00 00 	li      r0,0
 1802064:	98 06 a3 f9 	stb     r0,-23559(r6)
 1802068:	89 26 a3 f9 	lbz     r9,-23559(r6)
 180206c:	89 7e 00 01 	lbz     r11,1(r30)
 1802070:	39 49 00 01 	addi    r10,r9,1
 1802074:	55 40 06 3e 	clrlwi  r0,r10,24
 1802078:	7c e7 5a 14 	add     r7,r7,r11
 180207c:	55 29 06 3e 	clrlwi  r9,r9,24
 1802080:	28 00 00 fe 	cmplwi  r0,254
 1802084:	7d 63 49 ae 	stbx    r11,r3,r9
 1802088:	7c a5 3a 14 	add     r5,r5,r7
 180208c:	98 ff a3 fc 	stb     r7,-23556(r31)
 1802090:	98 ac a3 f6 	stb     r5,-23562(r12)
 1802094:	99 46 a3 f9 	stb     r10,-23559(r6)
 1802098:	40 81 00 0c 	ble-    18020a4 <send_climb+0x19c>
 180209c:	38 00 00 00 	li      r0,0
 18020a0:	98 06 a3 f9 	stb     r0,-23559(r6)
 18020a4:	89 66 a3 f9 	lbz     r11,-23559(r6)
 18020a8:	3d 20 01 82 	lis     r9,386
 18020ac:	39 0b 00 01 	addi    r8,r11,1
 18020b0:	89 49 a3 a4 	lbz     r10,-23644(r9)
 18020b4:	55 00 06 3e 	clrlwi  r0,r8,24
 18020b8:	7c e7 52 14 	add     r7,r7,r10
 18020bc:	55 6b 06 3e 	clrlwi  r11,r11,24
 18020c0:	28 00 00 fe 	cmplwi  r0,254
 18020c4:	7d 43 59 ae 	stbx    r10,r3,r11
 18020c8:	7c a5 3a 14 	add     r5,r5,r7
 18020cc:	3b c9 a3 a4 	addi    r30,r9,-23644
 18020d0:	98 ff a3 fc 	stb     r7,-23556(r31)
 18020d4:	98 ac a3 f6 	stb     r5,-23562(r12)
 18020d8:	99 06 a3 f9 	stb     r8,-23559(r6)
 18020dc:	40 81 00 0c 	ble-    18020e8 <send_climb+0x1e0>
 18020e0:	38 00 00 00 	li      r0,0
 18020e4:	98 06 a3 f9 	stb     r0,-23559(r6)
 18020e8:	89 26 a3 f9 	lbz     r9,-23559(r6)
 18020ec:	89 7e 00 01 	lbz     r11,1(r30)
 18020f0:	39 49 00 01 	addi    r10,r9,1
 18020f4:	55 40 06 3e 	clrlwi  r0,r10,24
 18020f8:	7d 07 5a 14 	add     r8,r7,r11
 18020fc:	55 29 06 3e 	clrlwi  r9,r9,24
 1802100:	28 00 00 fe 	cmplwi  r0,254
 1802104:	7d 63 49 ae 	stbx    r11,r3,r9
 1802108:	7c e5 42 14 	add     r7,r5,r8
 180210c:	99 1f a3 fc 	stb     r8,-23556(r31)
 1802110:	98 ec a3 f6 	stb     r7,-23562(r12)
 1802114:	99 46 a3 f9 	stb     r10,-23559(r6)
 1802118:	40 81 00 0c 	ble-    1802124 <send_climb+0x21c>
 180211c:	38 00 00 00 	li      r0,0
 1802120:	98 06 a3 f9 	stb     r0,-23559(r6)
 1802124:	89 26 a3 f9 	lbz     r9,-23559(r6)
 1802128:	89 7e 00 02 	lbz     r11,2(r30)
 180212c:	39 49 00 01 	addi    r10,r9,1
 1802130:	55 40 06 3e 	clrlwi  r0,r10,24
 1802134:	7d 08 5a 14 	add     r8,r8,r11
 1802138:	55 29 06 3e 	clrlwi  r9,r9,24
 180213c:	28 00 00 fe 	cmplwi  r0,254
 1802140:	7d 63 49 ae 	stbx    r11,r3,r9
 1802144:	7c a7 42 14 	add     r5,r7,r8
 1802148:	99 1f a3 fc 	stb     r8,-23556(r31)
 180214c:	98 ac a3 f6 	stb     r5,-23562(r12)
 1802150:	99 46 a3 f9 	stb     r10,-23559(r6)
 1802154:	40 81 00 0c 	ble-    1802160 <send_climb+0x258>
 1802158:	38 00 00 00 	li      r0,0
 180215c:	98 06 a3 f9 	stb     r0,-23559(r6)
 1802160:	89 26 a3 f9 	lbz     r9,-23559(r6)
 1802164:	89 7e 00 03 	lbz     r11,3(r30)
 1802168:	39 49 00 01 	addi    r10,r9,1
 180216c:	55 40 06 3e 	clrlwi  r0,r10,24
 1802170:	7c e8 5a 14 	add     r7,r8,r11
 1802174:	55 29 06 3e 	clrlwi  r9,r9,24
 1802178:	28 00 00 fe 	cmplwi  r0,254
 180217c:	7d 63 49 ae 	stbx    r11,r3,r9
 1802180:	7c a5 3a 14 	add     r5,r5,r7
 1802184:	98 ff a3 fc 	stb     r7,-23556(r31)
 1802188:	98 ac a3 f6 	stb     r5,-23562(r12)
 180218c:	99 46 a3 f9 	stb     r10,-23559(r6)
 1802190:	40 81 00 0c 	ble-    180219c <send_climb+0x294>
 1802194:	38 00 00 00 	li      r0,0
 1802198:	98 06 a3 f9 	stb     r0,-23559(r6)
 180219c:	89 66 a3 f9 	lbz     r11,-23559(r6)
 18021a0:	3d 20 01 82 	lis     r9,386
 18021a4:	39 0b 00 01 	addi    r8,r11,1
 18021a8:	89 49 a3 b0 	lbz     r10,-23632(r9)
 18021ac:	55 00 06 3e 	clrlwi  r0,r8,24
 18021b0:	7c e7 52 14 	add     r7,r7,r10
 18021b4:	55 6b 06 3e 	clrlwi  r11,r11,24
 18021b8:	28 00 00 fe 	cmplwi  r0,254
 18021bc:	7d 43 59 ae 	stbx    r10,r3,r11
 18021c0:	7c a5 3a 14 	add     r5,r5,r7
 18021c4:	3b c9 a3 b0 	addi    r30,r9,-23632
 18021c8:	98 ff a3 fc 	stb     r7,-23556(r31)
 18021cc:	98 ac a3 f6 	stb     r5,-23562(r12)
 18021d0:	99 06 a3 f9 	stb     r8,-23559(r6)
 18021d4:	40 81 00 0c 	ble-    18021e0 <send_climb+0x2d8>
 18021d8:	38 00 00 00 	li      r0,0
 18021dc:	98 06 a3 f9 	stb     r0,-23559(r6)
 18021e0:	89 26 a3 f9 	lbz     r9,-23559(r6)
 18021e4:	89 7e 00 01 	lbz     r11,1(r30)
 18021e8:	39 49 00 01 	addi    r10,r9,1
 18021ec:	55 40 06 3e 	clrlwi  r0,r10,24
 18021f0:	7d 07 5a 14 	add     r8,r7,r11
 18021f4:	55 29 06 3e 	clrlwi  r9,r9,24
 18021f8:	28 00 00 fe 	cmplwi  r0,254
 18021fc:	7d 63 49 ae 	stbx    r11,r3,r9
 1802200:	7c e5 42 14 	add     r7,r5,r8
 1802204:	99 1f a3 fc 	stb     r8,-23556(r31)
 1802208:	98 ec a3 f6 	stb     r7,-23562(r12)
 180220c:	99 46 a3 f9 	stb     r10,-23559(r6)
 1802210:	40 81 00 0c 	ble-    180221c <send_climb+0x314>
 1802214:	38 00 00 00 	li      r0,0
 1802218:	98 06 a3 f9 	stb     r0,-23559(r6)
 180221c:	89 24 00 00 	lbz     r9,0(r4)
 1802220:	89 7e 00 02 	lbz     r11,2(r30)
 1802224:	39 49 00 01 	addi    r10,r9,1
 1802228:	7c c8 5a 14 	add     r6,r8,r11
 180222c:	55 40 06 3e 	clrlwi  r0,r10,24
 1802230:	55 29 06 3e 	clrlwi  r9,r9,24
 1802234:	7d 63 49 ae 	stbx    r11,r3,r9
 1802238:	7c a7 32 14 	add     r5,r7,r6
 180223c:	28 00 00 fe 	cmplwi  r0,254
 1802240:	98 df a3 fc 	stb     r6,-23556(r31)
 1802244:	98 ac a3 f6 	stb     r5,-23562(r12)
 1802248:	99 44 00 00 	stb     r10,0(r4)
 180224c:	40 81 00 0c 	ble-    1802258 <send_climb+0x350>
 1802250:	38 00 00 00 	li      r0,0
 1802254:	98 04 00 00 	stb     r0,0(r4)
 1802258:	89 1e 00 03 	lbz     r8,3(r30)
 180225c:	89 24 00 00 	lbz     r9,0(r4)
 1802260:	7d 46 42 14 	add     r10,r6,r8
 1802264:	38 e9 00 01 	addi    r7,r9,1
 1802268:	7d 65 52 14 	add     r11,r5,r10
 180226c:	99 6c a3 f6 	stb     r11,-23562(r12)
 1802270:	54 e0 06 3e 	clrlwi  r0,r7,24
 1802274:	55 29 06 3e 	clrlwi  r9,r9,24
 1802278:	7d 03 49 ae 	stbx    r8,r3,r9
 180227c:	28 00 00 fe 	cmplwi  r0,254
 1802280:	99 5f a3 fc 	stb     r10,-23556(r31)
 1802284:	98 e4 00 00 	stb     r7,0(r4)
 1802288:	40 81 00 0c 	ble-    1802294 <send_climb+0x38c>
 180228c:	38 00 00 00 	li      r0,0
 1802290:	98 04 00 00 	stb     r0,0(r4)
 1802294:	89 64 00 00 	lbz     r11,0(r4)
 1802298:	3d 20 01 82 	lis     r9,386
 180229c:	89 09 a3 9c 	lbz     r8,-23652(r9)
 18022a0:	88 1d 00 00 	lbz     r0,0(r29)
 18022a4:	3b e9 a3 9c 	addi    r31,r9,-23652
 18022a8:	89 3c 00 00 	lbz     r9,0(r28)
 18022ac:	38 eb 00 01 	addi    r7,r11,1
 18022b0:	7c c0 42 14 	add     r6,r0,r8
 18022b4:	54 ea 06 3e 	clrlwi  r10,r7,24
 18022b8:	55 6b 06 3e 	clrlwi  r11,r11,24
 18022bc:	7d 03 59 ae 	stbx    r8,r3,r11
 18022c0:	7c a9 32 14 	add     r5,r9,r6
 18022c4:	28 0a 00 fe 	cmplwi  r10,254
 18022c8:	98 dd 00 00 	stb     r6,0(r29)
 18022cc:	98 bc 00 00 	stb     r5,0(r28)
 18022d0:	98 e4 00 00 	stb     r7,0(r4)
 18022d4:	40 81 00 0c 	ble-    18022e0 <send_climb+0x3d8>
 18022d8:	38 00 00 00 	li      r0,0
 18022dc:	98 04 00 00 	stb     r0,0(r4)
 18022e0:	89 24 00 00 	lbz     r9,0(r4)
 18022e4:	89 7f 00 01 	lbz     r11,1(r31)
 18022e8:	39 49 00 01 	addi    r10,r9,1
 18022ec:	7d 06 5a 14 	add     r8,r6,r11
 18022f0:	55 40 06 3e 	clrlwi  r0,r10,24
 18022f4:	55 29 06 3e 	clrlwi  r9,r9,24
 18022f8:	7d 63 49 ae 	stbx    r11,r3,r9
 18022fc:	7c e5 42 14 	add     r7,r5,r8
 1802300:	28 00 00 fe 	cmplwi  r0,254
 1802304:	99 1d 00 00 	stb     r8,0(r29)
 1802308:	98 fc 00 00 	stb     r7,0(r28)
 180230c:	99 44 00 00 	stb     r10,0(r4)
 1802310:	40 81 00 0c 	ble-    180231c <send_climb+0x414>
 1802314:	38 00 00 00 	li      r0,0
 1802318:	98 04 00 00 	stb     r0,0(r4)
 180231c:	89 24 00 00 	lbz     r9,0(r4)
 1802320:	89 7f 00 02 	lbz     r11,2(r31)
 1802324:	39 49 00 01 	addi    r10,r9,1
 1802328:	7d 08 5a 14 	add     r8,r8,r11
 180232c:	55 40 06 3e 	clrlwi  r0,r10,24
 1802330:	55 29 06 3e 	clrlwi  r9,r9,24
 1802334:	7d 63 49 ae 	stbx    r11,r3,r9
 1802338:	7c e7 42 14 	add     r7,r7,r8
 180233c:	28 00 00 fe 	cmplwi  r0,254
 1802340:	99 1d 00 00 	stb     r8,0(r29)
 1802344:	98 fc 00 00 	stb     r7,0(r28)
 1802348:	99 44 00 00 	stb     r10,0(r4)
 180234c:	40 81 00 0c 	ble-    1802358 <send_climb+0x450>
 1802350:	38 00 00 00 	li      r0,0
 1802354:	98 04 00 00 	stb     r0,0(r4)
 1802358:	89 24 00 00 	lbz     r9,0(r4)
 180235c:	89 7f 00 03 	lbz     r11,3(r31)
 1802360:	39 49 00 01 	addi    r10,r9,1
 1802364:	7d 08 5a 14 	add     r8,r8,r11
 1802368:	55 40 06 3e 	clrlwi  r0,r10,24
 180236c:	55 29 06 3e 	clrlwi  r9,r9,24
 1802370:	7d 63 49 ae 	stbx    r11,r3,r9
 1802374:	7c e7 42 14 	add     r7,r7,r8
 1802378:	28 00 00 fe 	cmplwi  r0,254
 180237c:	99 1d 00 00 	stb     r8,0(r29)
 1802380:	98 fc 00 00 	stb     r7,0(r28)
 1802384:	99 44 00 00 	stb     r10,0(r4)
 1802388:	40 81 00 0c 	ble-    1802394 <send_climb+0x48c>
 180238c:	38 00 00 00 	li      r0,0
 1802390:	98 04 00 00 	stb     r0,0(r4)
 1802394:	89 24 00 00 	lbz     r9,0(r4)
 1802398:	39 69 00 01 	addi    r11,r9,1
 180239c:	55 60 06 3e 	clrlwi  r0,r11,24
 18023a0:	55 29 06 3e 	clrlwi  r9,r9,24
 18023a4:	28 00 00 fe 	cmplwi  r0,254
 18023a8:	7d 03 49 ae 	stbx    r8,r3,r9
 18023ac:	99 64 00 00 	stb     r11,0(r4)
 18023b0:	40 81 00 0c 	ble-    18023bc <send_climb+0x4b4>
 18023b4:	38 00 00 00 	li      r0,0
 18023b8:	98 04 00 00 	stb     r0,0(r4)
 18023bc:	89 24 00 00 	lbz     r9,0(r4)
 18023c0:	39 69 00 01 	addi    r11,r9,1
 18023c4:	55 60 06 3e 	clrlwi  r0,r11,24
 18023c8:	55 29 06 3e 	clrlwi  r9,r9,24
 18023cc:	28 00 00 fe 	cmplwi  r0,254
 18023d0:	7c e3 49 ae 	stbx    r7,r3,r9
 18023d4:	99 64 00 00 	stb     r11,0(r4)
 18023d8:	40 81 00 0c 	ble-    18023e4 <send_climb+0x4dc>
 18023dc:	38 00 00 00 	li      r0,0
 18023e0:	98 04 00 00 	stb     r0,0(r4)
 18023e4:	38 c0 00 59 	li      r6,89
 18023e8:	88 06 00 00 	lbz     r0,0(r6)
 18023ec:	70 07 00 10 	andi.   r7,r0,16
 18023f0:	40 82 00 6c 	bne-    180245c <send_climb+0x554>
 18023f4:	3d 60 01 82 	lis     r11,386
 18023f8:	88 0b a3 fa 	lbz     r0,-23558(r11)
 18023fc:	89 2b a3 fa 	lbz     r9,-23558(r11)
 1802400:	7d 03 00 ae 	lbzx    r8,r3,r0
 1802404:	39 29 00 01 	addi    r9,r9,1
 1802408:	99 2b a3 fa 	stb     r9,-23558(r11)
 180240c:	88 0b a3 fa 	lbz     r0,-23558(r11)
 1802410:	3d 40 01 82 	lis     r10,386
 1802414:	28 00 00 fe 	cmplwi  r0,254
 1802418:	3d 20 01 82 	lis     r9,386
 180241c:	99 0a a3 f8 	stb     r8,-23560(r10)
 1802420:	98 e9 a3 fb 	stb     r7,-23557(r9)
 1802424:	40 81 00 08 	ble-    180242c <send_climb+0x524>
 1802428:	98 fb a3 fa 	stb     r7,-23558(r27)
 180242c:	39 20 00 58 	li      r9,88
 1802430:	88 09 00 00 	lbz     r0,0(r9)
 1802434:	60 00 00 01 	ori     r0,r0,1
 1802438:	98 09 00 00 	stb     r0,0(r9)
 180243c:	89 66 00 00 	lbz     r11,0(r6)
 1802440:	61 6b 00 10 	ori     r11,r11,16
 1802444:	99 66 00 00 	stb     r11,0(r6)
 1802448:	48 00 00 14 	b       180245c <send_climb+0x554>
 180244c:	3d 60 01 82 	lis     r11,386
 1802450:	89 2b a3 f7 	lbz     r9,-23561(r11)
 1802454:	39 29 00 01 	addi    r9,r9,1
 1802458:	99 2b a3 f7 	stb     r9,-23561(r11)
 180245c:	83 61 00 0c 	lwz     r27,12(r1)
 1802460:	83 81 00 10 	lwz     r28,16(r1)
 1802464:	83 a1 00 14 	lwz     r29,20(r1)
 1802468:	83 c1 00 18 	lwz     r30,24(r1)
 180246c:	83 e1 00 1c 	lwz     r31,28(r1)
 1802470:	38 21 00 20 	addi    r1,r1,32
 1802474:	4e 80 00 20 	blr

01802478 <send_mode>:
 1802478:	94 21 ff f0 	stwu    r1,-16(r1)
 180247c:	93 e1 00 0c 	stw     r31,12(r1)
 1802480:	3d 20 01 82 	lis     r9,386
 1802484:	88 09 a3 4d 	lbz     r0,-23731(r9)
 1802488:	2c 00 00 00 	cmpwi   r0,0
 180248c:	40 82 02 fc 	bne-    1802788 <send_mode+0x310>
 1802490:	3d 60 01 82 	lis     r11,386
 1802494:	89 4b a3 e7 	lbz     r10,-23577(r11)
 1802498:	3d 20 51 eb 	lis     r9,20971
 180249c:	61 29 85 1f 	ori     r9,r9,34079
 18024a0:	7d 2a 48 16 	mulhwu  r9,r10,r9
 18024a4:	55 29 e1 3e 	rlwinm  r9,r9,28,4,31
 18024a8:	55 20 08 3c 	rlwinm  r0,r9,1,0,30
 18024ac:	7c 00 4a 14 	add     r0,r0,r9
 18024b0:	54 00 20 36 	rlwinm  r0,r0,4,0,27
 18024b4:	7c 00 4a 14 	add     r0,r0,r9
 18024b8:	7c 00 4a 14 	add     r0,r0,r9
 18024bc:	7d 40 50 50 	subf    r10,r0,r10
 18024c0:	55 4a 06 3e 	clrlwi  r10,r10,24
 18024c4:	2c 0a 00 09 	cmpwi   r10,9
 18024c8:	40 82 02 c0 	bne-    1802788 <send_mode+0x310>
 18024cc:	3d 20 01 82 	lis     r9,386
 18024d0:	3d 60 01 82 	lis     r11,386
 18024d4:	89 29 a3 f9 	lbz     r9,-23559(r9)
 18024d8:	88 0b a3 fa 	lbz     r0,-23558(r11)
 18024dc:	3c c0 01 82 	lis     r6,386
 18024e0:	7c 09 00 40 	cmplw   r9,r0
 18024e4:	3f e0 01 82 	lis     r31,386
 18024e8:	41 80 00 1c 	blt-    1802504 <send_mode+0x8c>
 18024ec:	88 1f a3 fa 	lbz     r0,-23558(r31)
 18024f0:	7c 00 48 50 	subf    r0,r0,r9
 18024f4:	20 00 00 ff 	subfic  r0,r0,255
 18024f8:	2c 00 00 09 	cmpwi   r0,9
 18024fc:	41 81 00 18 	bgt-    1802514 <send_mode+0x9c>
 1802500:	48 00 02 78 	b       1802778 <send_mode+0x300>
 1802504:	88 1f a3 fa 	lbz     r0,-23558(r31)
 1802508:	7c 09 00 50 	subf    r0,r9,r0
 180250c:	2c 00 00 09 	cmpwi   r0,9
 1802510:	40 81 02 68 	ble-    1802778 <send_mode+0x300>
 1802514:	3d 00 01 82 	lis     r8,386
 1802518:	89 28 a3 f9 	lbz     r9,-23559(r8)
 180251c:	3d 60 01 82 	lis     r11,386
 1802520:	39 49 00 01 	addi    r10,r9,1
 1802524:	55 40 06 3e 	clrlwi  r0,r10,24
 1802528:	28 00 00 fe 	cmplwi  r0,254
 180252c:	38 8b a8 b4 	addi    r4,r11,-22348
 1802530:	55 29 06 3e 	clrlwi  r9,r9,24
 1802534:	38 00 00 05 	li      r0,5
 1802538:	7c 04 49 ae 	stbx    r0,r4,r9
 180253c:	99 48 a3 f9 	stb     r10,-23559(r8)
 1802540:	40 81 00 0c 	ble-    180254c <send_mode+0xd4>
 1802544:	38 00 00 00 	li      r0,0
 1802548:	98 06 a3 f9 	stb     r0,-23559(r6)
 180254c:	89 26 a3 f9 	lbz     r9,-23559(r6)
 1802550:	39 40 00 0b 	li      r10,11
 1802554:	39 69 00 01 	addi    r11,r9,1
 1802558:	55 60 06 3e 	clrlwi  r0,r11,24
 180255c:	55 29 06 3e 	clrlwi  r9,r9,24
 1802560:	28 00 00 fe 	cmplwi  r0,254
 1802564:	7d 44 49 ae 	stbx    r10,r4,r9
 1802568:	99 66 a3 f9 	stb     r11,-23559(r6)
 180256c:	40 81 00 0c 	ble-    1802578 <send_mode+0x100>
 1802570:	38 00 00 00 	li      r0,0
 1802574:	98 06 a3 f9 	stb     r0,-23559(r6)
 1802578:	89 46 a3 f9 	lbz     r10,-23559(r6)
 180257c:	3d 20 01 82 	lis     r9,386
 1802580:	39 0a 00 01 	addi    r8,r10,1
 1802584:	89 69 a3 46 	lbz     r11,-23738(r9)
 1802588:	55 00 06 3e 	clrlwi  r0,r8,24
 180258c:	55 4a 06 3e 	clrlwi  r10,r10,24
 1802590:	28 00 00 fe 	cmplwi  r0,254
 1802594:	7d 64 51 ae 	stbx    r11,r4,r10
 1802598:	38 ab 00 16 	addi    r5,r11,22
 180259c:	38 eb 00 0b 	addi    r7,r11,11
 18025a0:	3c 60 01 82 	lis     r3,386
 18025a4:	3d 80 01 82 	lis     r12,386
 18025a8:	98 e3 a3 fc 	stb     r7,-23556(r3)
 18025ac:	98 ac a3 f6 	stb     r5,-23562(r12)
 18025b0:	99 06 a3 f9 	stb     r8,-23559(r6)
 18025b4:	40 81 00 0c 	ble-    18025c0 <send_mode+0x148>
 18025b8:	38 00 00 00 	li      r0,0
 18025bc:	98 06 a3 f9 	stb     r0,-23559(r6)
 18025c0:	89 66 a3 f9 	lbz     r11,-23559(r6)
 18025c4:	3d 20 01 82 	lis     r9,386
 18025c8:	39 0b 00 01 	addi    r8,r11,1
 18025cc:	89 49 a3 47 	lbz     r10,-23737(r9)
 18025d0:	55 00 06 3e 	clrlwi  r0,r8,24
 18025d4:	7c e7 52 14 	add     r7,r7,r10
 18025d8:	55 6b 06 3e 	clrlwi  r11,r11,24
 18025dc:	28 00 00 fe 	cmplwi  r0,254
 18025e0:	7d 44 59 ae 	stbx    r10,r4,r11
 18025e4:	7c a5 3a 14 	add     r5,r5,r7
 18025e8:	98 e3 a3 fc 	stb     r7,-23556(r3)
 18025ec:	98 ac a3 f6 	stb     r5,-23562(r12)
 18025f0:	99 06 a3 f9 	stb     r8,-23559(r6)
 18025f4:	40 81 00 0c 	ble-    1802600 <send_mode+0x188>
 18025f8:	38 00 00 00 	li      r0,0
 18025fc:	98 06 a3 f9 	stb     r0,-23559(r6)
 1802600:	89 66 a3 f9 	lbz     r11,-23559(r6)
 1802604:	3d 20 01 82 	lis     r9,386
 1802608:	39 0b 00 01 	addi    r8,r11,1
 180260c:	89 49 a3 e1 	lbz     r10,-23583(r9)
 1802610:	55 00 06 3e 	clrlwi  r0,r8,24
 1802614:	7c e7 52 14 	add     r7,r7,r10
 1802618:	55 6b 06 3e 	clrlwi  r11,r11,24
 180261c:	28 00 00 fe 	cmplwi  r0,254
 1802620:	7d 44 59 ae 	stbx    r10,r4,r11
 1802624:	7c a5 3a 14 	add     r5,r5,r7
 1802628:	98 e3 a3 fc 	stb     r7,-23556(r3)
 180262c:	98 ac a3 f6 	stb     r5,-23562(r12)
 1802630:	99 06 a3 f9 	stb     r8,-23559(r6)
 1802634:	40 81 00 0c 	ble-    1802640 <send_mode+0x1c8>
 1802638:	38 00 00 00 	li      r0,0
 180263c:	98 06 a3 f9 	stb     r0,-23559(r6)
 1802640:	89 66 a3 f9 	lbz     r11,-23559(r6)
 1802644:	3d 20 01 82 	lis     r9,386
 1802648:	39 0b 00 01 	addi    r8,r11,1
 180264c:	89 49 a3 e5 	lbz     r10,-23579(r9)
 1802650:	55 00 06 3e 	clrlwi  r0,r8,24
 1802654:	7c e7 52 14 	add     r7,r7,r10
 1802658:	55 6b 06 3e 	clrlwi  r11,r11,24
 180265c:	28 00 00 fe 	cmplwi  r0,254
 1802660:	7d 44 59 ae 	stbx    r10,r4,r11
 1802664:	7c a5 3a 14 	add     r5,r5,r7
 1802668:	98 e3 a3 fc 	stb     r7,-23556(r3)
 180266c:	98 ac a3 f6 	stb     r5,-23562(r12)
 1802670:	99 06 a3 f9 	stb     r8,-23559(r6)
 1802674:	40 81 00 0c 	ble-    1802680 <send_mode+0x208>
 1802678:	38 00 00 00 	li      r0,0
 180267c:	98 06 a3 f9 	stb     r0,-23559(r6)
 1802680:	89 66 a3 f9 	lbz     r11,-23559(r6)
 1802684:	3d 20 01 82 	lis     r9,386
 1802688:	39 0b 00 01 	addi    r8,r11,1
 180268c:	89 49 a3 49 	lbz     r10,-23735(r9)
 1802690:	55 00 06 3e 	clrlwi  r0,r8,24
 1802694:	7c e7 52 14 	add     r7,r7,r10
 1802698:	55 6b 06 3e 	clrlwi  r11,r11,24
 180269c:	28 00 00 fe 	cmplwi  r0,254
 18026a0:	7d 44 59 ae 	stbx    r10,r4,r11
 18026a4:	7c a5 3a 14 	add     r5,r5,r7
 18026a8:	98 e3 a3 fc 	stb     r7,-23556(r3)
 18026ac:	98 ac a3 f6 	stb     r5,-23562(r12)
 18026b0:	99 06 a3 f9 	stb     r8,-23559(r6)
 18026b4:	40 81 00 0c 	ble-    18026c0 <send_mode+0x248>
 18026b8:	38 00 00 00 	li      r0,0
 18026bc:	98 06 a3 f9 	stb     r0,-23559(r6)
 18026c0:	89 26 a3 f9 	lbz     r9,-23559(r6)
 18026c4:	39 69 00 01 	addi    r11,r9,1
 18026c8:	55 60 06 3e 	clrlwi  r0,r11,24
 18026cc:	55 29 06 3e 	clrlwi  r9,r9,24
 18026d0:	28 00 00 fe 	cmplwi  r0,254
 18026d4:	7c e4 49 ae 	stbx    r7,r4,r9
 18026d8:	99 66 a3 f9 	stb     r11,-23559(r6)
 18026dc:	40 81 00 0c 	ble-    18026e8 <send_mode+0x270>
 18026e0:	38 00 00 00 	li      r0,0
 18026e4:	98 06 a3 f9 	stb     r0,-23559(r6)
 18026e8:	89 26 a3 f9 	lbz     r9,-23559(r6)
 18026ec:	39 69 00 01 	addi    r11,r9,1
 18026f0:	55 60 06 3e 	clrlwi  r0,r11,24
 18026f4:	55 29 06 3e 	clrlwi  r9,r9,24
 18026f8:	28 00 00 fe 	cmplwi  r0,254
 18026fc:	7c a4 49 ae 	stbx    r5,r4,r9
 1802700:	99 66 a3 f9 	stb     r11,-23559(r6)
 1802704:	40 81 00 0c 	ble-    1802710 <send_mode+0x298>
 1802708:	38 00 00 00 	li      r0,0
 180270c:	98 06 a3 f9 	stb     r0,-23559(r6)
 1802710:	38 c0 00 59 	li      r6,89
 1802714:	88 06 00 00 	lbz     r0,0(r6)
 1802718:	70 07 00 10 	andi.   r7,r0,16
 180271c:	40 82 00 6c 	bne-    1802788 <send_mode+0x310>
 1802720:	3d 60 01 82 	lis     r11,386
 1802724:	88 0b a3 fa 	lbz     r0,-23558(r11)
 1802728:	89 2b a3 fa 	lbz     r9,-23558(r11)
 180272c:	7d 04 00 ae 	lbzx    r8,r4,r0
 1802730:	39 29 00 01 	addi    r9,r9,1
 1802734:	99 2b a3 fa 	stb     r9,-23558(r11)
 1802738:	88 0b a3 fa 	lbz     r0,-23558(r11)
 180273c:	3d 40 01 82 	lis     r10,386
 1802740:	28 00 00 fe 	cmplwi  r0,254
 1802744:	3d 20 01 82 	lis     r9,386
 1802748:	99 0a a3 f8 	stb     r8,-23560(r10)
 180274c:	98 e9 a3 fb 	stb     r7,-23557(r9)
 1802750:	40 81 00 08 	ble-    1802758 <send_mode+0x2e0>
 1802754:	98 ff a3 fa 	stb     r7,-23558(r31)
 1802758:	39 20 00 58 	li      r9,88
 180275c:	88 09 00 00 	lbz     r0,0(r9)
 1802760:	60 00 00 01 	ori     r0,r0,1
 1802764:	98 09 00 00 	stb     r0,0(r9)
 1802768:	89 66 00 00 	lbz     r11,0(r6)
 180276c:	61 6b 00 10 	ori     r11,r11,16
 1802770:	99 66 00 00 	stb     r11,0(r6)
 1802774:	48 00 00 14 	b       1802788 <send_mode+0x310>
 1802778:	3d 60 01 82 	lis     r11,386
 180277c:	89 2b a3 f7 	lbz     r9,-23561(r11)
 1802780:	39 29 00 01 	addi    r9,r9,1
 1802784:	99 2b a3 f7 	stb     r9,-23561(r11)
 1802788:	83 e1 00 0c 	lwz     r31,12(r1)
 180278c:	38 21 00 10 	addi    r1,r1,16
 1802790:	4e 80 00 20 	blr

01802794 <send_debug>:
 1802794:	94 21 ff f0 	stwu    r1,-16(r1)
 1802798:	93 e1 00 0c 	stw     r31,12(r1)
 180279c:	3d 20 01 82 	lis     r9,386
 18027a0:	88 09 a3 4d 	lbz     r0,-23731(r9)
 18027a4:	2c 00 00 00 	cmpwi   r0,0
 18027a8:	40 82 02 fc 	bne-    1802aa4 <send_debug+0x310>
 18027ac:	3d 60 01 82 	lis     r11,386
 18027b0:	89 4b a3 e7 	lbz     r10,-23577(r11)
 18027b4:	3d 20 51 eb 	lis     r9,20971
 18027b8:	61 29 85 1f 	ori     r9,r9,34079
 18027bc:	7d 2a 48 16 	mulhwu  r9,r10,r9
 18027c0:	55 29 e1 3e 	rlwinm  r9,r9,28,4,31
 18027c4:	55 20 08 3c 	rlwinm  r0,r9,1,0,30
 18027c8:	7c 00 4a 14 	add     r0,r0,r9
 18027cc:	54 00 20 36 	rlwinm  r0,r0,4,0,27
 18027d0:	7c 00 4a 14 	add     r0,r0,r9
 18027d4:	7c 00 4a 14 	add     r0,r0,r9
 18027d8:	7d 40 50 50 	subf    r10,r0,r10
 18027dc:	55 4a 06 3e 	clrlwi  r10,r10,24
 18027e0:	2c 0a 00 1d 	cmpwi   r10,29
 18027e4:	40 82 02 c0 	bne-    1802aa4 <send_debug+0x310>
 18027e8:	3d 20 01 82 	lis     r9,386
 18027ec:	3d 60 01 82 	lis     r11,386
 18027f0:	89 29 a3 f9 	lbz     r9,-23559(r9)
 18027f4:	88 0b a3 fa 	lbz     r0,-23558(r11)
 18027f8:	3c c0 01 82 	lis     r6,386
 18027fc:	7c 09 00 40 	cmplw   r9,r0
 1802800:	3f e0 01 82 	lis     r31,386
 1802804:	41 80 00 1c 	blt-    1802820 <send_debug+0x8c>
 1802808:	88 1f a3 fa 	lbz     r0,-23558(r31)
 180280c:	7c 00 48 50 	subf    r0,r0,r9
 1802810:	20 00 00 ff 	subfic  r0,r0,255
 1802814:	2c 00 00 09 	cmpwi   r0,9
 1802818:	41 81 00 18 	bgt-    1802830 <send_debug+0x9c>
 180281c:	48 00 02 78 	b       1802a94 <send_debug+0x300>
 1802820:	88 1f a3 fa 	lbz     r0,-23558(r31)
 1802824:	7c 09 00 50 	subf    r0,r9,r0
 1802828:	2c 00 00 09 	cmpwi   r0,9
 180282c:	40 81 02 68 	ble-    1802a94 <send_debug+0x300>
 1802830:	3d 00 01 82 	lis     r8,386
 1802834:	89 28 a3 f9 	lbz     r9,-23559(r8)
 1802838:	3d 60 01 82 	lis     r11,386
 180283c:	39 49 00 01 	addi    r10,r9,1
 1802840:	55 40 06 3e 	clrlwi  r0,r10,24
 1802844:	28 00 00 fe 	cmplwi  r0,254
 1802848:	38 8b a8 b4 	addi    r4,r11,-22348
 180284c:	55 29 06 3e 	clrlwi  r9,r9,24
 1802850:	38 00 00 05 	li      r0,5
 1802854:	7c 04 49 ae 	stbx    r0,r4,r9
 1802858:	99 48 a3 f9 	stb     r10,-23559(r8)
 180285c:	40 81 00 0c 	ble-    1802868 <send_debug+0xd4>
 1802860:	38 00 00 00 	li      r0,0
 1802864:	98 06 a3 f9 	stb     r0,-23559(r6)
 1802868:	89 26 a3 f9 	lbz     r9,-23559(r6)
 180286c:	39 40 00 0d 	li      r10,13
 1802870:	39 69 00 01 	addi    r11,r9,1
 1802874:	55 60 06 3e 	clrlwi  r0,r11,24
 1802878:	55 29 06 3e 	clrlwi  r9,r9,24
 180287c:	28 00 00 fe 	cmplwi  r0,254
 1802880:	7d 44 49 ae 	stbx    r10,r4,r9
 1802884:	99 66 a3 f9 	stb     r11,-23559(r6)
 1802888:	40 81 00 0c 	ble-    1802894 <send_debug+0x100>
 180288c:	38 00 00 00 	li      r0,0
 1802890:	98 06 a3 f9 	stb     r0,-23559(r6)
 1802894:	89 46 a3 f9 	lbz     r10,-23559(r6)
 1802898:	3d 20 01 82 	lis     r9,386
 180289c:	39 0a 00 01 	addi    r8,r10,1
 18028a0:	89 69 a4 01 	lbz     r11,-23551(r9)
 18028a4:	55 00 06 3e 	clrlwi  r0,r8,24
 18028a8:	55 4a 06 3e 	clrlwi  r10,r10,24
 18028ac:	28 00 00 fe 	cmplwi  r0,254
 18028b0:	7d 64 51 ae 	stbx    r11,r4,r10
 18028b4:	38 ab 00 1a 	addi    r5,r11,26
 18028b8:	38 eb 00 0d 	addi    r7,r11,13
 18028bc:	3c 60 01 82 	lis     r3,386
 18028c0:	3d 80 01 82 	lis     r12,386
 18028c4:	98 e3 a3 fc 	stb     r7,-23556(r3)
 18028c8:	98 ac a3 f6 	stb     r5,-23562(r12)
 18028cc:	99 06 a3 f9 	stb     r8,-23559(r6)
 18028d0:	40 81 00 0c 	ble-    18028dc <send_debug+0x148>
 18028d4:	38 00 00 00 	li      r0,0
 18028d8:	98 06 a3 f9 	stb     r0,-23559(r6)
 18028dc:	89 66 a3 f9 	lbz     r11,-23559(r6)
 18028e0:	3d 20 01 82 	lis     r9,386
 18028e4:	39 0b 00 01 	addi    r8,r11,1
 18028e8:	89 49 a4 00 	lbz     r10,-23552(r9)
 18028ec:	55 00 06 3e 	clrlwi  r0,r8,24
 18028f0:	7c e7 52 14 	add     r7,r7,r10
 18028f4:	55 6b 06 3e 	clrlwi  r11,r11,24
 18028f8:	28 00 00 fe 	cmplwi  r0,254
 18028fc:	7d 44 59 ae 	stbx    r10,r4,r11
 1802900:	7c a5 3a 14 	add     r5,r5,r7
 1802904:	98 e3 a3 fc 	stb     r7,-23556(r3)
 1802908:	98 ac a3 f6 	stb     r5,-23562(r12)
 180290c:	99 06 a3 f9 	stb     r8,-23559(r6)
 1802910:	40 81 00 0c 	ble-    180291c <send_debug+0x188>
 1802914:	38 00 00 00 	li      r0,0
 1802918:	98 06 a3 f9 	stb     r0,-23559(r6)
 180291c:	89 66 a3 f9 	lbz     r11,-23559(r6)
 1802920:	3d 20 01 82 	lis     r9,386
 1802924:	39 0b 00 01 	addi    r8,r11,1
 1802928:	89 49 a3 f7 	lbz     r10,-23561(r9)
 180292c:	55 00 06 3e 	clrlwi  r0,r8,24
 1802930:	7c e7 52 14 	add     r7,r7,r10
 1802934:	55 6b 06 3e 	clrlwi  r11,r11,24
 1802938:	28 00 00 fe 	cmplwi  r0,254
 180293c:	7d 44 59 ae 	stbx    r10,r4,r11
 1802940:	7c a5 3a 14 	add     r5,r5,r7
 1802944:	98 e3 a3 fc 	stb     r7,-23556(r3)
 1802948:	98 ac a3 f6 	stb     r5,-23562(r12)
 180294c:	99 06 a3 f9 	stb     r8,-23559(r6)
 1802950:	40 81 00 0c 	ble-    180295c <send_debug+0x1c8>
 1802954:	38 00 00 00 	li      r0,0
 1802958:	98 06 a3 f9 	stb     r0,-23559(r6)
 180295c:	89 66 a3 f9 	lbz     r11,-23559(r6)
 1802960:	3d 20 01 82 	lis     r9,386
 1802964:	39 0b 00 01 	addi    r8,r11,1
 1802968:	89 49 a4 30 	lbz     r10,-23504(r9)
 180296c:	55 00 06 3e 	clrlwi  r0,r8,24
 1802970:	7c e7 52 14 	add     r7,r7,r10
 1802974:	55 6b 06 3e 	clrlwi  r11,r11,24
 1802978:	28 00 00 fe 	cmplwi  r0,254
 180297c:	7d 44 59 ae 	stbx    r10,r4,r11
 1802980:	7c a5 3a 14 	add     r5,r5,r7
 1802984:	98 e3 a3 fc 	stb     r7,-23556(r3)
 1802988:	98 ac a3 f6 	stb     r5,-23562(r12)
 180298c:	99 06 a3 f9 	stb     r8,-23559(r6)
 1802990:	40 81 00 0c 	ble-    180299c <send_debug+0x208>
 1802994:	38 00 00 00 	li      r0,0
 1802998:	98 06 a3 f9 	stb     r0,-23559(r6)
 180299c:	89 66 a3 f9 	lbz     r11,-23559(r6)
 18029a0:	3d 20 01 82 	lis     r9,386
 18029a4:	39 0b 00 01 	addi    r8,r11,1
 18029a8:	89 49 a3 e6 	lbz     r10,-23578(r9)
 18029ac:	55 00 06 3e 	clrlwi  r0,r8,24
 18029b0:	7c e7 52 14 	add     r7,r7,r10
 18029b4:	55 6b 06 3e 	clrlwi  r11,r11,24
 18029b8:	28 00 00 fe 	cmplwi  r0,254
 18029bc:	7d 44 59 ae 	stbx    r10,r4,r11
 18029c0:	7c a5 3a 14 	add     r5,r5,r7
 18029c4:	98 e3 a3 fc 	stb     r7,-23556(r3)
 18029c8:	98 ac a3 f6 	stb     r5,-23562(r12)
 18029cc:	99 06 a3 f9 	stb     r8,-23559(r6)
 18029d0:	40 81 00 0c 	ble-    18029dc <send_debug+0x248>
 18029d4:	38 00 00 00 	li      r0,0
 18029d8:	98 06 a3 f9 	stb     r0,-23559(r6)
 18029dc:	89 26 a3 f9 	lbz     r9,-23559(r6)
 18029e0:	39 69 00 01 	addi    r11,r9,1
 18029e4:	55 60 06 3e 	clrlwi  r0,r11,24
 18029e8:	55 29 06 3e 	clrlwi  r9,r9,24
 18029ec:	28 00 00 fe 	cmplwi  r0,254
 18029f0:	7c e4 49 ae 	stbx    r7,r4,r9
 18029f4:	99 66 a3 f9 	stb     r11,-23559(r6)
 18029f8:	40 81 00 0c 	ble-    1802a04 <send_debug+0x270>
 18029fc:	38 00 00 00 	li      r0,0
 1802a00:	98 06 a3 f9 	stb     r0,-23559(r6)
 1802a04:	89 26 a3 f9 	lbz     r9,-23559(r6)
 1802a08:	39 69 00 01 	addi    r11,r9,1
 1802a0c:	55 60 06 3e 	clrlwi  r0,r11,24
 1802a10:	55 29 06 3e 	clrlwi  r9,r9,24
 1802a14:	28 00 00 fe 	cmplwi  r0,254
 1802a18:	7c a4 49 ae 	stbx    r5,r4,r9
 1802a1c:	99 66 a3 f9 	stb     r11,-23559(r6)
 1802a20:	40 81 00 0c 	ble-    1802a2c <send_debug+0x298>
 1802a24:	38 00 00 00 	li      r0,0
 1802a28:	98 06 a3 f9 	stb     r0,-23559(r6)
 1802a2c:	38 c0 00 59 	li      r6,89
 1802a30:	88 06 00 00 	lbz     r0,0(r6)
 1802a34:	70 07 00 10 	andi.   r7,r0,16
 1802a38:	40 82 00 6c 	bne-    1802aa4 <send_debug+0x310>
 1802a3c:	3d 60 01 82 	lis     r11,386
 1802a40:	88 0b a3 fa 	lbz     r0,-23558(r11)
 1802a44:	89 2b a3 fa 	lbz     r9,-23558(r11)
 1802a48:	7d 04 00 ae 	lbzx    r8,r4,r0
 1802a4c:	39 29 00 01 	addi    r9,r9,1
 1802a50:	99 2b a3 fa 	stb     r9,-23558(r11)
 1802a54:	88 0b a3 fa 	lbz     r0,-23558(r11)
 1802a58:	3d 40 01 82 	lis     r10,386
 1802a5c:	28 00 00 fe 	cmplwi  r0,254
 1802a60:	3d 20 01 82 	lis     r9,386
 1802a64:	99 0a a3 f8 	stb     r8,-23560(r10)
 1802a68:	98 e9 a3 fb 	stb     r7,-23557(r9)
 1802a6c:	40 81 00 08 	ble-    1802a74 <send_debug+0x2e0>
 1802a70:	98 ff a3 fa 	stb     r7,-23558(r31)
 1802a74:	39 20 00 58 	li      r9,88
 1802a78:	88 09 00 00 	lbz     r0,0(r9)
 1802a7c:	60 00 00 01 	ori     r0,r0,1
 1802a80:	98 09 00 00 	stb     r0,0(r9)
 1802a84:	89 66 00 00 	lbz     r11,0(r6)
 1802a88:	61 6b 00 10 	ori     r11,r11,16
 1802a8c:	99 66 00 00 	stb     r11,0(r6)
 1802a90:	48 00 00 14 	b       1802aa4 <send_debug+0x310>
 1802a94:	3d 60 01 82 	lis     r11,386
 1802a98:	89 2b a3 f7 	lbz     r9,-23561(r11)
 1802a9c:	39 29 00 01 	addi    r9,r9,1
 1802aa0:	99 2b a3 f7 	stb     r9,-23561(r11)
 1802aa4:	83 e1 00 0c 	lwz     r31,12(r1)
 1802aa8:	38 21 00 10 	addi    r1,r1,16
 1802aac:	4e 80 00 20 	blr

01802ab0 <send_nav_ref>:
 1802ab0:	94 21 ff e0 	stwu    r1,-32(r1)
 1802ab4:	93 a1 00 14 	stw     r29,20(r1)
 1802ab8:	93 c1 00 18 	stw     r30,24(r1)
 1802abc:	93 e1 00 1c 	stw     r31,28(r1)
 1802ac0:	3d 20 01 82 	lis     r9,386
 1802ac4:	88 09 a3 4d 	lbz     r0,-23731(r9)
 1802ac8:	2c 00 00 00 	cmpwi   r0,0
 1802acc:	40 82 03 b0 	bne-    1802e7c <send_nav_ref+0x3cc>
 1802ad0:	3d 60 01 82 	lis     r11,386
 1802ad4:	89 4b a3 e7 	lbz     r10,-23577(r11)
 1802ad8:	3d 20 51 eb 	lis     r9,20971
 1802adc:	61 29 85 1f 	ori     r9,r9,34079
 1802ae0:	7d 2a 48 16 	mulhwu  r9,r10,r9
 1802ae4:	55 29 d9 7e 	rlwinm  r9,r9,27,5,31
 1802ae8:	55 20 08 3c 	rlwinm  r0,r9,1,0,30
 1802aec:	7c 00 4a 14 	add     r0,r0,r9
 1802af0:	54 0b 28 34 	rlwinm  r11,r0,5,0,26
 1802af4:	7c 00 5a 14 	add     r0,r0,r11
 1802af8:	7c 00 4a 14 	add     r0,r0,r9
 1802afc:	7d 40 50 50 	subf    r10,r0,r10
 1802b00:	55 4a 06 3e 	clrlwi  r10,r10,24
 1802b04:	2c 0a 00 31 	cmpwi   r10,49
 1802b08:	40 82 03 74 	bne-    1802e7c <send_nav_ref+0x3cc>
 1802b0c:	3d 20 01 82 	lis     r9,386
 1802b10:	3d 60 01 82 	lis     r11,386
 1802b14:	89 29 a3 f9 	lbz     r9,-23559(r9)
 1802b18:	88 0b a3 fa 	lbz     r0,-23558(r11)
 1802b1c:	3c c0 01 82 	lis     r6,386
 1802b20:	7c 09 00 40 	cmplw   r9,r0
 1802b24:	3f a0 01 82 	lis     r29,386
 1802b28:	41 80 00 1c 	blt-    1802b44 <send_nav_ref+0x94>
 1802b2c:	88 1d a3 fa 	lbz     r0,-23558(r29)
 1802b30:	7c 00 48 50 	subf    r0,r0,r9
 1802b34:	20 00 00 ff 	subfic  r0,r0,255
 1802b38:	2c 00 00 0c 	cmpwi   r0,12
 1802b3c:	41 81 00 18 	bgt-    1802b54 <send_nav_ref+0xa4>
 1802b40:	48 00 03 2c 	b       1802e6c <send_nav_ref+0x3bc>
 1802b44:	88 1d a3 fa 	lbz     r0,-23558(r29)
 1802b48:	7c 09 00 50 	subf    r0,r9,r0
 1802b4c:	2c 00 00 0c 	cmpwi   r0,12
 1802b50:	40 81 03 1c 	ble-    1802e6c <send_nav_ref+0x3bc>
 1802b54:	3d 60 01 82 	lis     r11,386
 1802b58:	89 2b a3 f9 	lbz     r9,-23559(r11)
 1802b5c:	3d 40 01 82 	lis     r10,386
 1802b60:	39 09 00 01 	addi    r8,r9,1
 1802b64:	55 00 06 3e 	clrlwi  r0,r8,24
 1802b68:	28 00 00 fe 	cmplwi  r0,254
 1802b6c:	38 8a a8 b4 	addi    r4,r10,-22348
 1802b70:	55 29 06 3e 	clrlwi  r9,r9,24
 1802b74:	38 00 00 05 	li      r0,5
 1802b78:	7c 04 49 ae 	stbx    r0,r4,r9
 1802b7c:	3b cb a3 f9 	addi    r30,r11,-23559
 1802b80:	99 0b a3 f9 	stb     r8,-23559(r11)
 1802b84:	40 81 00 0c 	ble-    1802b90 <send_nav_ref+0xe0>
 1802b88:	38 00 00 00 	li      r0,0
 1802b8c:	98 06 a3 f9 	stb     r0,-23559(r6)
 1802b90:	89 26 a3 f9 	lbz     r9,-23559(r6)
 1802b94:	39 40 00 09 	li      r10,9
 1802b98:	39 69 00 01 	addi    r11,r9,1
 1802b9c:	55 60 06 3e 	clrlwi  r0,r11,24
 1802ba0:	55 29 06 3e 	clrlwi  r9,r9,24
 1802ba4:	28 00 00 fe 	cmplwi  r0,254
 1802ba8:	7d 44 49 ae 	stbx    r10,r4,r9
 1802bac:	99 66 a3 f9 	stb     r11,-23559(r6)
 1802bb0:	40 81 00 0c 	ble-    1802bbc <send_nav_ref+0x10c>
 1802bb4:	38 00 00 00 	li      r0,0
 1802bb8:	98 06 a3 f9 	stb     r0,-23559(r6)
 1802bbc:	89 46 a3 f9 	lbz     r10,-23559(r6)
 1802bc0:	3d 20 01 82 	lis     r9,386
 1802bc4:	39 0a 00 01 	addi    r8,r10,1
 1802bc8:	89 69 a3 60 	lbz     r11,-23712(r9)
 1802bcc:	55 00 06 3e 	clrlwi  r0,r8,24
 1802bd0:	55 4a 06 3e 	clrlwi  r10,r10,24
 1802bd4:	28 00 00 fe 	cmplwi  r0,254
 1802bd8:	7d 64 51 ae 	stbx    r11,r4,r10
 1802bdc:	38 ab 00 12 	addi    r5,r11,18
 1802be0:	38 eb 00 09 	addi    r7,r11,9
 1802be4:	3c 60 01 82 	lis     r3,386
 1802be8:	3d 80 01 82 	lis     r12,386
 1802bec:	3b e9 a3 60 	addi    r31,r9,-23712
 1802bf0:	98 e3 a3 fc 	stb     r7,-23556(r3)
 1802bf4:	98 ac a3 f6 	stb     r5,-23562(r12)
 1802bf8:	99 06 a3 f9 	stb     r8,-23559(r6)
 1802bfc:	40 81 00 0c 	ble-    1802c08 <send_nav_ref+0x158>
 1802c00:	38 00 00 00 	li      r0,0
 1802c04:	98 06 a3 f9 	stb     r0,-23559(r6)
 1802c08:	89 26 a3 f9 	lbz     r9,-23559(r6)
 1802c0c:	89 7f 00 01 	lbz     r11,1(r31)
 1802c10:	39 49 00 01 	addi    r10,r9,1
 1802c14:	55 40 06 3e 	clrlwi  r0,r10,24
 1802c18:	7d 07 5a 14 	add     r8,r7,r11
 1802c1c:	55 29 06 3e 	clrlwi  r9,r9,24
 1802c20:	28 00 00 fe 	cmplwi  r0,254
 1802c24:	7d 64 49 ae 	stbx    r11,r4,r9
 1802c28:	7c e5 42 14 	add     r7,r5,r8
 1802c2c:	99 03 a3 fc 	stb     r8,-23556(r3)
 1802c30:	98 ec a3 f6 	stb     r7,-23562(r12)
 1802c34:	99 46 a3 f9 	stb     r10,-23559(r6)
 1802c38:	40 81 00 0c 	ble-    1802c44 <send_nav_ref+0x194>
 1802c3c:	38 00 00 00 	li      r0,0
 1802c40:	98 06 a3 f9 	stb     r0,-23559(r6)
 1802c44:	89 26 a3 f9 	lbz     r9,-23559(r6)
 1802c48:	89 7f 00 02 	lbz     r11,2(r31)
 1802c4c:	39 49 00 01 	addi    r10,r9,1
 1802c50:	55 40 06 3e 	clrlwi  r0,r10,24
 1802c54:	7d 08 5a 14 	add     r8,r8,r11
 1802c58:	55 29 06 3e 	clrlwi  r9,r9,24
 1802c5c:	28 00 00 fe 	cmplwi  r0,254
 1802c60:	7d 64 49 ae 	stbx    r11,r4,r9
 1802c64:	7c a7 42 14 	add     r5,r7,r8
 1802c68:	99 03 a3 fc 	stb     r8,-23556(r3)
 1802c6c:	98 ac a3 f6 	stb     r5,-23562(r12)
 1802c70:	99 46 a3 f9 	stb     r10,-23559(r6)
 1802c74:	40 81 00 0c 	ble-    1802c80 <send_nav_ref+0x1d0>
 1802c78:	38 00 00 00 	li      r0,0
 1802c7c:	98 06 a3 f9 	stb     r0,-23559(r6)
 1802c80:	89 26 a3 f9 	lbz     r9,-23559(r6)
 1802c84:	89 7f 00 03 	lbz     r11,3(r31)
 1802c88:	39 49 00 01 	addi    r10,r9,1
 1802c8c:	55 40 06 3e 	clrlwi  r0,r10,24
 1802c90:	7c e8 5a 14 	add     r7,r8,r11
 1802c94:	55 29 06 3e 	clrlwi  r9,r9,24
 1802c98:	28 00 00 fe 	cmplwi  r0,254
 1802c9c:	7d 64 49 ae 	stbx    r11,r4,r9
 1802ca0:	7c a5 3a 14 	add     r5,r5,r7
 1802ca4:	98 e3 a3 fc 	stb     r7,-23556(r3)
 1802ca8:	98 ac a3 f6 	stb     r5,-23562(r12)
 1802cac:	99 46 a3 f9 	stb     r10,-23559(r6)
 1802cb0:	40 81 00 0c 	ble-    1802cbc <send_nav_ref+0x20c>
 1802cb4:	38 00 00 00 	li      r0,0
 1802cb8:	98 06 a3 f9 	stb     r0,-23559(r6)
 1802cbc:	89 66 a3 f9 	lbz     r11,-23559(r6)
 1802cc0:	3d 20 01 82 	lis     r9,386
 1802cc4:	39 0b 00 01 	addi    r8,r11,1
 1802cc8:	89 49 a3 64 	lbz     r10,-23708(r9)
 1802ccc:	55 00 06 3e 	clrlwi  r0,r8,24
 1802cd0:	7c e7 52 14 	add     r7,r7,r10
 1802cd4:	55 6b 06 3e 	clrlwi  r11,r11,24
 1802cd8:	28 00 00 fe 	cmplwi  r0,254
 1802cdc:	7d 44 59 ae 	stbx    r10,r4,r11
 1802ce0:	7c a5 3a 14 	add     r5,r5,r7
 1802ce4:	3b e9 a3 64 	addi    r31,r9,-23708
 1802ce8:	98 e3 a3 fc 	stb     r7,-23556(r3)
 1802cec:	98 ac a3 f6 	stb     r5,-23562(r12)
 1802cf0:	99 06 a3 f9 	stb     r8,-23559(r6)
 1802cf4:	40 81 00 0c 	ble-    1802d00 <send_nav_ref+0x250>
 1802cf8:	38 00 00 00 	li      r0,0
 1802cfc:	98 06 a3 f9 	stb     r0,-23559(r6)
 1802d00:	89 26 a3 f9 	lbz     r9,-23559(r6)
 1802d04:	89 7f 00 01 	lbz     r11,1(r31)
 1802d08:	39 49 00 01 	addi    r10,r9,1
 1802d0c:	55 40 06 3e 	clrlwi  r0,r10,24
 1802d10:	7d 07 5a 14 	add     r8,r7,r11
 1802d14:	55 29 06 3e 	clrlwi  r9,r9,24
 1802d18:	28 00 00 fe 	cmplwi  r0,254
 1802d1c:	7d 64 49 ae 	stbx    r11,r4,r9
 1802d20:	7c e5 42 14 	add     r7,r5,r8
 1802d24:	99 03 a3 fc 	stb     r8,-23556(r3)
 1802d28:	98 ec a3 f6 	stb     r7,-23562(r12)
 1802d2c:	99 46 a3 f9 	stb     r10,-23559(r6)
 1802d30:	40 81 00 0c 	ble-    1802d3c <send_nav_ref+0x28c>
 1802d34:	38 00 00 00 	li      r0,0
 1802d38:	98 06 a3 f9 	stb     r0,-23559(r6)
 1802d3c:	89 26 a3 f9 	lbz     r9,-23559(r6)
 1802d40:	89 7f 00 02 	lbz     r11,2(r31)
 1802d44:	39 49 00 01 	addi    r10,r9,1
 1802d48:	55 40 06 3e 	clrlwi  r0,r10,24
 1802d4c:	7d 08 5a 14 	add     r8,r8,r11
 1802d50:	55 29 06 3e 	clrlwi  r9,r9,24
 1802d54:	28 00 00 fe 	cmplwi  r0,254
 1802d58:	7d 64 49 ae 	stbx    r11,r4,r9
 1802d5c:	7c e7 42 14 	add     r7,r7,r8
 1802d60:	99 03 a3 fc 	stb     r8,-23556(r3)
 1802d64:	98 ec a3 f6 	stb     r7,-23562(r12)
 1802d68:	99 46 a3 f9 	stb     r10,-23559(r6)
 1802d6c:	40 81 00 0c 	ble-    1802d78 <send_nav_ref+0x2c8>
 1802d70:	38 00 00 00 	li      r0,0
 1802d74:	98 06 a3 f9 	stb     r0,-23559(r6)
 1802d78:	89 26 a3 f9 	lbz     r9,-23559(r6)
 1802d7c:	89 7f 00 03 	lbz     r11,3(r31)
 1802d80:	39 49 00 01 	addi    r10,r9,1
 1802d84:	55 40 06 3e 	clrlwi  r0,r10,24
 1802d88:	7d 08 5a 14 	add     r8,r8,r11
 1802d8c:	55 29 06 3e 	clrlwi  r9,r9,24
 1802d90:	28 00 00 fe 	cmplwi  r0,254
 1802d94:	7d 64 49 ae 	stbx    r11,r4,r9
 1802d98:	7c e7 42 14 	add     r7,r7,r8
 1802d9c:	99 03 a3 fc 	stb     r8,-23556(r3)
 1802da0:	98 ec a3 f6 	stb     r7,-23562(r12)
 1802da4:	99 46 a3 f9 	stb     r10,-23559(r6)
 1802da8:	40 81 00 0c 	ble-    1802db4 <send_nav_ref+0x304>
 1802dac:	38 00 00 00 	li      r0,0
 1802db0:	98 06 a3 f9 	stb     r0,-23559(r6)
 1802db4:	89 3e 00 00 	lbz     r9,0(r30)
 1802db8:	39 69 00 01 	addi    r11,r9,1
 1802dbc:	55 60 06 3e 	clrlwi  r0,r11,24
 1802dc0:	55 29 06 3e 	clrlwi  r9,r9,24
 1802dc4:	28 00 00 fe 	cmplwi  r0,254
 1802dc8:	7d 04 49 ae 	stbx    r8,r4,r9
 1802dcc:	99 7e 00 00 	stb     r11,0(r30)
 1802dd0:	40 81 00 0c 	ble-    1802ddc <send_nav_ref+0x32c>
 1802dd4:	38 00 00 00 	li      r0,0
 1802dd8:	98 1e 00 00 	stb     r0,0(r30)
 1802ddc:	89 3e 00 00 	lbz     r9,0(r30)
 1802de0:	39 69 00 01 	addi    r11,r9,1
 1802de4:	55 60 06 3e 	clrlwi  r0,r11,24
 1802de8:	55 29 06 3e 	clrlwi  r9,r9,24
 1802dec:	28 00 00 fe 	cmplwi  r0,254
 1802df0:	7c e4 49 ae 	stbx    r7,r4,r9
 1802df4:	99 7e 00 00 	stb     r11,0(r30)
 1802df8:	40 81 00 0c 	ble-    1802e04 <send_nav_ref+0x354>
 1802dfc:	38 00 00 00 	li      r0,0
 1802e00:	98 1e 00 00 	stb     r0,0(r30)
 1802e04:	38 c0 00 59 	li      r6,89
 1802e08:	88 06 00 00 	lbz     r0,0(r6)
 1802e0c:	70 07 00 10 	andi.   r7,r0,16
 1802e10:	40 82 00 6c 	bne-    1802e7c <send_nav_ref+0x3cc>
 1802e14:	3d 60 01 82 	lis     r11,386
 1802e18:	88 0b a3 fa 	lbz     r0,-23558(r11)
 1802e1c:	89 2b a3 fa 	lbz     r9,-23558(r11)
 1802e20:	7d 04 00 ae 	lbzx    r8,r4,r0
 1802e24:	39 29 00 01 	addi    r9,r9,1
 1802e28:	99 2b a3 fa 	stb     r9,-23558(r11)
 1802e2c:	88 0b a3 fa 	lbz     r0,-23558(r11)
 1802e30:	3d 40 01 82 	lis     r10,386
 1802e34:	28 00 00 fe 	cmplwi  r0,254
 1802e38:	3d 20 01 82 	lis     r9,386
 1802e3c:	99 0a a3 f8 	stb     r8,-23560(r10)
 1802e40:	98 e9 a3 fb 	stb     r7,-23557(r9)
 1802e44:	40 81 00 08 	ble-    1802e4c <send_nav_ref+0x39c>
 1802e48:	98 fd a3 fa 	stb     r7,-23558(r29)
 1802e4c:	39 20 00 58 	li      r9,88
 1802e50:	88 09 00 00 	lbz     r0,0(r9)
 1802e54:	60 00 00 01 	ori     r0,r0,1
 1802e58:	98 09 00 00 	stb     r0,0(r9)
 1802e5c:	89 66 00 00 	lbz     r11,0(r6)
 1802e60:	61 6b 00 10 	ori     r11,r11,16
 1802e64:	99 66 00 00 	stb     r11,0(r6)
 1802e68:	48 00 00 14 	b       1802e7c <send_nav_ref+0x3cc>
 1802e6c:	3d 60 01 82 	lis     r11,386
 1802e70:	89 2b a3 f7 	lbz     r9,-23561(r11)
 1802e74:	39 29 00 01 	addi    r9,r9,1
 1802e78:	99 2b a3 f7 	stb     r9,-23561(r11)
 1802e7c:	83 a1 00 14 	lwz     r29,20(r1)
 1802e80:	83 c1 00 18 	lwz     r30,24(r1)
 1802e84:	83 e1 00 1c 	lwz     r31,28(r1)
 1802e88:	38 21 00 20 	addi    r1,r1,32
 1802e8c:	4e 80 00 20 	blr

01802e90 <radio_control_task>:
 1802e90:	94 21 ff d0 	stwu    r1,-48(r1)
 1802e94:	7c 08 02 a6 	mflr    r0
 1802e98:	93 41 00 18 	stw     r26,24(r1)
 1802e9c:	93 61 00 1c 	stw     r27,28(r1)
 1802ea0:	93 81 00 20 	stw     r28,32(r1)
 1802ea4:	93 a1 00 24 	stw     r29,36(r1)
 1802ea8:	93 c1 00 28 	stw     r30,40(r1)
 1802eac:	93 e1 00 2c 	stw     r31,44(r1)
 1802eb0:	90 01 00 34 	stw     r0,52(r1)
 1802eb4:	3d 20 01 82 	lis     r9,386
 1802eb8:	88 09 a3 5d 	lbz     r0,-23715(r9)
 1802ebc:	2c 00 00 00 	cmpwi   r0,0
 1802ec0:	41 82 0f 38 	beq-    1803df8 <radio_control_task+0xf68>
 1802ec4:	3d 60 01 82 	lis     r11,386
 1802ec8:	39 6b a9 ca 	addi    r11,r11,-22070
 1802ecc:	39 2b 00 13 	addi    r9,r11,19
 1802ed0:	55 29 04 3e 	clrlwi  r9,r9,16
 1802ed4:	88 09 00 00 	lbz     r0,0(r9)
 1802ed8:	a1 2b 00 06 	lhz     r9,6(r11)
 1802edc:	3d 40 01 82 	lis     r10,386
 1802ee0:	70 0b 00 02 	andi.   r11,r0,2
 1802ee4:	39 4a a9 b4 	addi    r10,r10,-22092
 1802ee8:	3b e0 00 00 	li      r31,0
 1802eec:	b1 2a 00 06 	sth     r9,6(r10)
 1802ef0:	9b ea 00 13 	stb     r31,19(r10)
 1802ef4:	3f c0 01 82 	lis     r30,386
 1802ef8:	41 82 00 10 	beq-    1802f08 <radio_control_task+0x78>
 1802efc:	88 1e a3 46 	lbz     r0,-23738(r30)
 1802f00:	28 00 00 01 	cmplwi  r0,1
 1802f04:	40 81 00 14 	ble-    1802f18 <radio_control_task+0x88>
 1802f08:	3d 20 01 82 	lis     r9,386
 1802f0c:	88 09 a4 89 	lbz     r0,-23415(r9)
 1802f10:	2c 00 00 00 	cmpwi   r0,0
 1802f14:	41 82 00 14 	beq-    1802f28 <radio_control_task+0x98>
 1802f18:	3d 20 01 82 	lis     r9,386
 1802f1c:	38 00 00 03 	li      r0,3
 1802f20:	98 09 a3 46 	stb     r0,-23738(r9)
 1802f24:	3b e0 00 01 	li      r31,1
 1802f28:	3d 20 01 82 	lis     r9,386
 1802f2c:	39 49 a9 dd 	addi    r10,r9,-22051
 1802f30:	55 4b 04 3e 	clrlwi  r11,r10,16
 1802f34:	88 0b 00 00 	lbz     r0,0(r11)
 1802f38:	70 09 00 04 	andi.   r9,r0,4
 1802f3c:	41 82 01 00 	beq-    180303c <radio_control_task+0x1ac>
 1802f40:	3d 20 01 82 	lis     r9,386
 1802f44:	88 09 a3 46 	lbz     r0,-23738(r9)
 1802f48:	2c 00 00 03 	cmpwi   r0,3
 1802f4c:	40 82 00 1c 	bne-    1802f68 <radio_control_task+0xd8>
 1802f50:	3d 20 01 82 	lis     r9,386
 1802f54:	88 09 a3 e8 	lbz     r0,-23576(r9)
 1802f58:	2c 00 00 00 	cmpwi   r0,0
 1802f5c:	41 82 00 48 	beq-    1802fa4 <radio_control_task+0x114>
 1802f60:	38 00 00 00 	li      r0,0
 1802f64:	98 09 a3 e8 	stb     r0,-23576(r9)
 1802f68:	a9 2a ff f5 	lha     r9,-11(r10)
 1802f6c:	2c 09 0c 80 	cmpwi   r9,3200
 1802f70:	41 81 00 14 	bgt-    1802f84 <radio_control_task+0xf4>
 1802f74:	2f 89 ed 40 	cmpwi   cr7,r9,-4800
 1802f78:	7d 60 00 26 	mfcr    r11
 1802f7c:	55 6b f7 fe 	rlwinm  r11,r11,30,31,31
 1802f80:	48 00 00 08 	b       1802f88 <radio_control_task+0xf8>
 1802f84:	39 60 00 02 	li      r11,2
 1802f88:	3d 20 01 82 	lis     r9,386
 1802f8c:	88 09 a3 46 	lbz     r0,-23738(r9)
 1802f90:	7c 00 58 00 	cmpw    r0,r11
 1802f94:	41 82 00 10 	beq-    1802fa4 <radio_control_task+0x114>
 1802f98:	99 7e a3 46 	stb     r11,-23738(r30)
 1802f9c:	39 60 00 01 	li      r11,1
 1802fa0:	48 00 00 08 	b       1802fa8 <radio_control_task+0x118>
 1802fa4:	39 60 00 00 	li      r11,0
 1802fa8:	3d 20 01 82 	lis     r9,386
 1802fac:	a8 09 a9 d8 	lha     r0,-22056(r9)
 1802fb0:	3d 40 01 82 	lis     r10,386
 1802fb4:	2f 80 0c 7f 	cmpwi   cr7,r0,3199
 1802fb8:	89 2a a3 49 	lbz     r9,-23735(r10)
 1802fbc:	55 68 06 3e 	clrlwi  r8,r11,24
 1802fc0:	7c 00 00 26 	mfcr    r0
 1802fc4:	54 00 f7 fe 	rlwinm  r0,r0,30,31,31
 1802fc8:	7c 09 00 00 	cmpw    r9,r0
 1802fcc:	7f ff 43 78 	or      r31,r31,r8
 1802fd0:	41 82 00 10 	beq-    1802fe0 <radio_control_task+0x150>
 1802fd4:	98 0a a3 49 	stb     r0,-23735(r10)
 1802fd8:	39 60 00 01 	li      r11,1
 1802fdc:	48 00 00 08 	b       1802fe4 <radio_control_task+0x154>
 1802fe0:	39 60 00 00 	li      r11,0
 1802fe4:	3d 20 01 82 	lis     r9,386
 1802fe8:	a8 09 a9 da 	lha     r0,-22054(r9)
 1802fec:	7d 7f fb 78 	or      r31,r11,r31
 1802ff0:	2c 00 ed 40 	cmpwi   r0,-4800
 1802ff4:	41 80 00 14 	blt-    1803008 <radio_control_task+0x178>
 1802ff8:	2f 80 0c 7f 	cmpwi   cr7,r0,3199
 1802ffc:	7d 60 00 26 	mfcr    r11
 1803000:	55 6b f7 fe 	rlwinm  r11,r11,30,31,31
 1803004:	48 00 00 08 	b       180300c <radio_control_task+0x17c>
 1803008:	39 60 00 02 	li      r11,2
 180300c:	3d 20 01 82 	lis     r9,386
 1803010:	88 09 a3 e1 	lbz     r0,-23583(r9)
 1803014:	7c 00 58 00 	cmpw    r0,r11
 1803018:	41 82 00 10 	beq-    1803028 <radio_control_task+0x198>
 180301c:	99 69 a3 e1 	stb     r11,-23583(r9)
 1803020:	3b a0 00 01 	li      r29,1
 1803024:	48 00 00 08 	b       180302c <radio_control_task+0x19c>
 1803028:	3b a0 00 00 	li      r29,0
 180302c:	57 bd 06 3e 	clrlwi  r29,r29,24
 1803030:	7f a3 43 78 	or      r3,r29,r8
 1803034:	48 00 68 29 	bl      180985c <inflight_calib>
 1803038:	7f ff eb 78 	or      r31,r31,r29
 180303c:	3d 20 01 82 	lis     r9,386
 1803040:	3d 60 01 82 	lis     r11,386
 1803044:	89 49 a9 dd 	lbz     r10,-22051(r9)
 1803048:	88 0b a3 e5 	lbz     r0,-23579(r11)
 180304c:	7c 00 50 00 	cmpw    r0,r10
 1803050:	41 82 00 20 	beq-    1803070 <radio_control_task+0x1e0>
 1803054:	7c 00 52 78 	xor     r0,r0,r10
 1803058:	54 00 07 be 	clrlwi  r0,r0,30
 180305c:	7c 00 00 d0 	neg     r0,r0
 1803060:	3d 20 01 82 	lis     r9,386
 1803064:	99 49 a3 e5 	stb     r10,-23579(r9)
 1803068:	54 00 0f fe 	rlwinm  r0,r0,1,31,31
 180306c:	48 00 00 08 	b       1803074 <radio_control_task+0x1e4>
 1803070:	38 00 00 00 	li      r0,0
 1803074:	7c 09 fb 79 	or.     r9,r0,r31
 1803078:	41 82 02 c0 	beq-    1803338 <radio_control_task+0x4a8>
 180307c:	3d 20 01 82 	lis     r9,386
 1803080:	3d 60 01 82 	lis     r11,386
 1803084:	89 29 a3 f9 	lbz     r9,-23559(r9)
 1803088:	88 0b a3 fa 	lbz     r0,-23558(r11)
 180308c:	3d 80 01 82 	lis     r12,386
 1803090:	7c 09 00 40 	cmplw   r9,r0
 1803094:	3f 40 01 82 	lis     r26,386
 1803098:	41 80 00 1c 	blt-    18030b4 <radio_control_task+0x224>
 180309c:	88 1a a3 fa 	lbz     r0,-23558(r26)
 18030a0:	7c 00 48 50 	subf    r0,r0,r9
 18030a4:	20 00 00 ff 	subfic  r0,r0,255
 18030a8:	2c 00 00 09 	cmpwi   r0,9
 18030ac:	41 81 00 18 	bgt-    18030c4 <radio_control_task+0x234>
 18030b0:	48 00 02 78 	b       1803328 <radio_control_task+0x498>
 18030b4:	88 1a a3 fa 	lbz     r0,-23558(r26)
 18030b8:	7c 09 00 50 	subf    r0,r9,r0
 18030bc:	2c 00 00 09 	cmpwi   r0,9
 18030c0:	40 81 02 68 	ble-    1803328 <radio_control_task+0x498>
 18030c4:	3d 00 01 82 	lis     r8,386
 18030c8:	89 28 a3 f9 	lbz     r9,-23559(r8)
 18030cc:	3d 60 01 82 	lis     r11,386
 18030d0:	39 49 00 01 	addi    r10,r9,1
 18030d4:	55 40 06 3e 	clrlwi  r0,r10,24
 18030d8:	28 00 00 fe 	cmplwi  r0,254
 18030dc:	38 ab a8 b4 	addi    r5,r11,-22348
 18030e0:	55 29 06 3e 	clrlwi  r9,r9,24
 18030e4:	38 00 00 05 	li      r0,5
 18030e8:	7c 05 49 ae 	stbx    r0,r5,r9
 18030ec:	99 48 a3 f9 	stb     r10,-23559(r8)
 18030f0:	40 81 00 0c 	ble-    18030fc <radio_control_task+0x26c>
 18030f4:	38 00 00 00 	li      r0,0
 18030f8:	98 0c a3 f9 	stb     r0,-23559(r12)
 18030fc:	89 2c a3 f9 	lbz     r9,-23559(r12)
 1803100:	39 40 00 0b 	li      r10,11
 1803104:	39 69 00 01 	addi    r11,r9,1
 1803108:	55 60 06 3e 	clrlwi  r0,r11,24
 180310c:	55 29 06 3e 	clrlwi  r9,r9,24
 1803110:	28 00 00 fe 	cmplwi  r0,254
 1803114:	7d 45 49 ae 	stbx    r10,r5,r9
 1803118:	99 6c a3 f9 	stb     r11,-23559(r12)
 180311c:	40 81 00 0c 	ble-    1803128 <radio_control_task+0x298>
 1803120:	38 00 00 00 	li      r0,0
 1803124:	98 0c a3 f9 	stb     r0,-23559(r12)
 1803128:	89 6c a3 f9 	lbz     r11,-23559(r12)
 180312c:	3d 40 01 82 	lis     r10,386
 1803130:	39 0b 00 01 	addi    r8,r11,1
 1803134:	89 2a a3 46 	lbz     r9,-23738(r10)
 1803138:	55 00 06 3e 	clrlwi  r0,r8,24
 180313c:	55 6b 06 3e 	clrlwi  r11,r11,24
 1803140:	28 00 00 fe 	cmplwi  r0,254
 1803144:	7d 25 59 ae 	stbx    r9,r5,r11
 1803148:	38 c9 00 16 	addi    r6,r9,22
 180314c:	38 e9 00 0b 	addi    r7,r9,11
 1803150:	3c 80 01 82 	lis     r4,386
 1803154:	3c 60 01 82 	lis     r3,386
 1803158:	98 e4 a3 fc 	stb     r7,-23556(r4)
 180315c:	98 c3 a3 f6 	stb     r6,-23562(r3)
 1803160:	99 0c a3 f9 	stb     r8,-23559(r12)
 1803164:	40 81 00 0c 	ble-    1803170 <radio_control_task+0x2e0>
 1803168:	38 00 00 00 	li      r0,0
 180316c:	98 0c a3 f9 	stb     r0,-23559(r12)
 1803170:	89 6c a3 f9 	lbz     r11,-23559(r12)
 1803174:	3d 20 01 82 	lis     r9,386
 1803178:	39 0b 00 01 	addi    r8,r11,1
 180317c:	89 49 a3 47 	lbz     r10,-23737(r9)
 1803180:	55 00 06 3e 	clrlwi  r0,r8,24
 1803184:	7c e7 52 14 	add     r7,r7,r10
 1803188:	55 6b 06 3e 	clrlwi  r11,r11,24
 180318c:	28 00 00 fe 	cmplwi  r0,254
 1803190:	7d 45 59 ae 	stbx    r10,r5,r11
 1803194:	7c c6 3a 14 	add     r6,r6,r7
 1803198:	98 e4 a3 fc 	stb     r7,-23556(r4)
 180319c:	98 c3 a3 f6 	stb     r6,-23562(r3)
 18031a0:	99 0c a3 f9 	stb     r8,-23559(r12)
 18031a4:	40 81 00 0c 	ble-    18031b0 <radio_control_task+0x320>
 18031a8:	38 00 00 00 	li      r0,0
 18031ac:	98 0c a3 f9 	stb     r0,-23559(r12)
 18031b0:	89 6c a3 f9 	lbz     r11,-23559(r12)
 18031b4:	3d 20 01 82 	lis     r9,386
 18031b8:	39 0b 00 01 	addi    r8,r11,1
 18031bc:	89 49 a3 e1 	lbz     r10,-23583(r9)
 18031c0:	55 00 06 3e 	clrlwi  r0,r8,24
 18031c4:	7c e7 52 14 	add     r7,r7,r10
 18031c8:	55 6b 06 3e 	clrlwi  r11,r11,24
 18031cc:	28 00 00 fe 	cmplwi  r0,254
 18031d0:	7d 45 59 ae 	stbx    r10,r5,r11
 18031d4:	7c c6 3a 14 	add     r6,r6,r7
 18031d8:	98 e4 a3 fc 	stb     r7,-23556(r4)
 18031dc:	98 c3 a3 f6 	stb     r6,-23562(r3)
 18031e0:	99 0c a3 f9 	stb     r8,-23559(r12)
 18031e4:	40 81 00 0c 	ble-    18031f0 <radio_control_task+0x360>
 18031e8:	38 00 00 00 	li      r0,0
 18031ec:	98 0c a3 f9 	stb     r0,-23559(r12)
 18031f0:	89 6c a3 f9 	lbz     r11,-23559(r12)
 18031f4:	3d 20 01 82 	lis     r9,386
 18031f8:	39 0b 00 01 	addi    r8,r11,1
 18031fc:	89 49 a3 e5 	lbz     r10,-23579(r9)
 1803200:	55 00 06 3e 	clrlwi  r0,r8,24
 1803204:	7c e7 52 14 	add     r7,r7,r10
 1803208:	55 6b 06 3e 	clrlwi  r11,r11,24
 180320c:	28 00 00 fe 	cmplwi  r0,254
 1803210:	7d 45 59 ae 	stbx    r10,r5,r11
 1803214:	7c c6 3a 14 	add     r6,r6,r7
 1803218:	98 e4 a3 fc 	stb     r7,-23556(r4)
 180321c:	98 c3 a3 f6 	stb     r6,-23562(r3)
 1803220:	99 0c a3 f9 	stb     r8,-23559(r12)
 1803224:	40 81 00 0c 	ble-    1803230 <radio_control_task+0x3a0>
 1803228:	38 00 00 00 	li      r0,0
 180322c:	98 0c a3 f9 	stb     r0,-23559(r12)
 1803230:	89 6c a3 f9 	lbz     r11,-23559(r12)
 1803234:	3d 20 01 82 	lis     r9,386
 1803238:	39 0b 00 01 	addi    r8,r11,1
 180323c:	89 49 a3 49 	lbz     r10,-23735(r9)
 1803240:	55 00 06 3e 	clrlwi  r0,r8,24
 1803244:	7c e7 52 14 	add     r7,r7,r10
 1803248:	55 6b 06 3e 	clrlwi  r11,r11,24
 180324c:	28 00 00 fe 	cmplwi  r0,254
 1803250:	7d 45 59 ae 	stbx    r10,r5,r11
 1803254:	7c c6 3a 14 	add     r6,r6,r7
 1803258:	98 e4 a3 fc 	stb     r7,-23556(r4)
 180325c:	98 c3 a3 f6 	stb     r6,-23562(r3)
 1803260:	99 0c a3 f9 	stb     r8,-23559(r12)
 1803264:	40 81 00 0c 	ble-    1803270 <radio_control_task+0x3e0>
 1803268:	38 00 00 00 	li      r0,0
 180326c:	98 0c a3 f9 	stb     r0,-23559(r12)
 1803270:	89 2c a3 f9 	lbz     r9,-23559(r12)
 1803274:	39 69 00 01 	addi    r11,r9,1
 1803278:	55 60 06 3e 	clrlwi  r0,r11,24
 180327c:	55 29 06 3e 	clrlwi  r9,r9,24
 1803280:	28 00 00 fe 	cmplwi  r0,254
 1803284:	7c e5 49 ae 	stbx    r7,r5,r9
 1803288:	99 6c a3 f9 	stb     r11,-23559(r12)
 180328c:	40 81 00 0c 	ble-    1803298 <radio_control_task+0x408>
 1803290:	38 00 00 00 	li      r0,0
 1803294:	98 0c a3 f9 	stb     r0,-23559(r12)
 1803298:	89 2c a3 f9 	lbz     r9,-23559(r12)
 180329c:	39 69 00 01 	addi    r11,r9,1
 18032a0:	55 60 06 3e 	clrlwi  r0,r11,24
 18032a4:	55 29 06 3e 	clrlwi  r9,r9,24
 18032a8:	28 00 00 fe 	cmplwi  r0,254
 18032ac:	7c c5 49 ae 	stbx    r6,r5,r9
 18032b0:	99 6c a3 f9 	stb     r11,-23559(r12)
 18032b4:	40 81 00 0c 	ble-    18032c0 <radio_control_task+0x430>
 18032b8:	38 00 00 00 	li      r0,0
 18032bc:	98 0c a3 f9 	stb     r0,-23559(r12)
 18032c0:	38 c0 00 59 	li      r6,89
 18032c4:	88 06 00 00 	lbz     r0,0(r6)
 18032c8:	70 07 00 10 	andi.   r7,r0,16
 18032cc:	40 82 00 6c 	bne-    1803338 <radio_control_task+0x4a8>
 18032d0:	3d 60 01 82 	lis     r11,386
 18032d4:	88 0b a3 fa 	lbz     r0,-23558(r11)
 18032d8:	89 2b a3 fa 	lbz     r9,-23558(r11)
 18032dc:	7d 05 00 ae 	lbzx    r8,r5,r0
 18032e0:	39 29 00 01 	addi    r9,r9,1
 18032e4:	99 2b a3 fa 	stb     r9,-23558(r11)
 18032e8:	88 0b a3 fa 	lbz     r0,-23558(r11)
 18032ec:	3d 40 01 82 	lis     r10,386
 18032f0:	28 00 00 fe 	cmplwi  r0,254
 18032f4:	3d 20 01 82 	lis     r9,386
 18032f8:	99 0a a3 f8 	stb     r8,-23560(r10)
 18032fc:	98 e9 a3 fb 	stb     r7,-23557(r9)
 1803300:	40 81 00 08 	ble-    1803308 <radio_control_task+0x478>
 1803304:	98 fa a3 fa 	stb     r7,-23558(r26)
 1803308:	39 20 00 58 	li      r9,88
 180330c:	88 09 00 00 	lbz     r0,0(r9)
 1803310:	60 00 00 01 	ori     r0,r0,1
 1803314:	98 09 00 00 	stb     r0,0(r9)
 1803318:	89 66 00 00 	lbz     r11,0(r6)
 180331c:	61 6b 00 10 	ori     r11,r11,16
 1803320:	99 66 00 00 	stb     r11,0(r6)
 1803324:	48 00 00 14 	b       1803338 <radio_control_task+0x4a8>
 1803328:	3d 60 01 82 	lis     r11,386
 180332c:	89 2b a3 f7 	lbz     r9,-23561(r11)
 1803330:	39 29 00 01 	addi    r9,r9,1
 1803334:	99 2b a3 f7 	stb     r9,-23561(r11)
 1803338:	3d 20 01 82 	lis     r9,386
 180333c:	88 09 a3 46 	lbz     r0,-23738(r9)
 1803340:	2c 00 00 01 	cmpwi   r0,1
 1803344:	40 82 00 b4 	bne-    18033f8 <radio_control_task+0x568>
 1803348:	3d 20 01 82 	lis     r9,386
 180334c:	39 29 a9 ca 	addi    r9,r9,-22070
 1803350:	a8 09 00 02 	lha     r0,2(r9)
 1803354:	6c 00 80 00 	xoris   r0,r0,32768
 1803358:	90 01 00 14 	stw     r0,20(r1)
 180335c:	a9 49 00 04 	lha     r10,4(r9)
 1803360:	3c 00 43 30 	lis     r0,17200
 1803364:	90 01 00 10 	stw     r0,16(r1)
 1803368:	7d 69 5b 78 	mr      r9,r11
 180336c:	c9 61 00 10 	lfd     f11,16(r1)
 1803370:	6d 4a 80 00 	xoris   r10,r10,32768
 1803374:	91 41 00 14 	stw     r10,20(r1)
 1803378:	3d 60 01 81 	lis     r11,385
 180337c:	90 01 00 10 	stw     r0,16(r1)
 1803380:	39 6b 9f 00 	addi    r11,r11,-24832
 1803384:	c8 0b 00 00 	lfd     f0,0(r11)
 1803388:	c9 81 00 10 	lfd     f12,16(r1)
 180338c:	3d 20 01 81 	lis     r9,385
 1803390:	fd 6b 00 28 	fsub    f11,f11,f0
 1803394:	39 29 9f 08 	addi    r9,r9,-24824
 1803398:	fd 8c 00 28 	fsub    f12,f12,f0
 180339c:	c1 a9 00 00 	lfs     f13,0(r9)
 18033a0:	3d 20 01 81 	lis     r9,385
 18033a4:	c9 09 9e f8 	lfd     f8,-24840(r9)
 18033a8:	fd 60 58 18 	frsp    f11,f11
 18033ac:	3d 60 01 81 	lis     r11,385
 18033b0:	fd 80 60 18 	frsp    f12,f12
 18033b4:	3d 20 01 81 	lis     r9,385
 18033b8:	39 6b 9f 10 	addi    r11,r11,-24816
 18033bc:	39 29 9f 18 	addi    r9,r9,-24808
 18033c0:	ed 6b 68 24 	fdivs   f11,f11,f13
 18033c4:	c9 4b 00 00 	lfd     f10,0(r11)
 18033c8:	c9 29 00 00 	lfd     f9,0(r9)
 18033cc:	3d 20 01 82 	lis     r9,386
 18033d0:	3d 60 01 82 	lis     r11,386
 18033d4:	ed 8c 68 24 	fdivs   f12,f12,f13
 18033d8:	fc 00 58 90 	fmr     f0,f11
 18033dc:	fd a0 60 90 	fmr     f13,f12
 18033e0:	fc 00 52 3a 	fmadd   f0,f0,f8,f10
 18033e4:	fd ad 52 7a 	fmadd   f13,f13,f9,f10
 18033e8:	fc 00 00 18 	frsp    f0,f0
 18033ec:	fd a0 68 18 	frsp    f13,f13
 18033f0:	d0 09 a3 74 	stfs    f0,-23692(r9)
 18033f4:	d1 ab a3 78 	stfs    f13,-23688(r11)
 18033f8:	88 1e a3 46 	lbz     r0,-23738(r30)
 18033fc:	28 00 00 01 	cmplwi  r0,1
 1803400:	41 81 00 14 	bgt-    1803414 <radio_control_task+0x584>
 1803404:	3d 20 01 82 	lis     r9,386
 1803408:	a0 09 a9 ca 	lhz     r0,-22070(r9)
 180340c:	3d 60 01 82 	lis     r11,386
 1803410:	b0 0b a4 44 	sth     r0,-23484(r11)
 1803414:	3d 20 01 82 	lis     r9,386
 1803418:	88 09 a3 e1 	lbz     r0,-23583(r9)
 180341c:	3d 60 01 82 	lis     r11,386
 1803420:	39 0b a9 ca 	addi    r8,r11,-22070
 1803424:	2c 00 00 00 	cmpwi   r0,0
 1803428:	89 48 00 12 	lbz     r10,18(r8)
 180342c:	88 08 00 15 	lbz     r0,21(r8)
 1803430:	3d 20 01 82 	lis     r9,386
 1803434:	3d 60 01 82 	lis     r11,386
 1803438:	99 49 a3 e6 	stb     r10,-23578(r9)
 180343c:	98 0b a3 f5 	stb     r0,-23563(r11)
 1803440:	40 82 00 44 	bne-    1803484 <radio_control_task+0x5f4>
 1803444:	a8 08 00 0a 	lha     r0,10(r8)
 1803448:	2c 00 1c 20 	cmpwi   r0,7200
 180344c:	40 81 00 38 	ble-    1803484 <radio_control_task+0x5f4>
 1803450:	3d 60 01 82 	lis     r11,386
 1803454:	a1 2b a3 50 	lhz     r9,-23728(r11)
 1803458:	28 09 00 13 	cmplwi  r9,19
 180345c:	41 81 00 3c 	bgt-    1803498 <radio_control_task+0x608>
 1803460:	39 29 00 01 	addi    r9,r9,1
 1803464:	55 20 04 3e 	clrlwi  r0,r9,16
 1803468:	2c 00 00 14 	cmpwi   r0,20
 180346c:	b1 2b a3 50 	sth     r9,-23728(r11)
 1803470:	40 82 00 28 	bne-    1803498 <radio_control_task+0x608>
 1803474:	3d 20 01 82 	lis     r9,386
 1803478:	38 00 00 01 	li      r0,1
 180347c:	98 09 a3 e8 	stb     r0,-23576(r9)
 1803480:	48 00 00 18 	b       1803498 <radio_control_task+0x608>
 1803484:	38 00 00 00 	li      r0,0
 1803488:	3d 60 01 82 	lis     r11,386
 180348c:	3d 20 01 82 	lis     r9,386
 1803490:	98 09 a3 e8 	stb     r0,-23576(r9)
 1803494:	b0 0b a3 50 	sth     r0,-23728(r11)
 1803498:	3d 20 01 82 	lis     r9,386
 180349c:	88 09 a3 e1 	lbz     r0,-23583(r9)
 18034a0:	2c 00 00 00 	cmpwi   r0,0
 18034a4:	40 82 00 48 	bne-    18034ec <radio_control_task+0x65c>
 18034a8:	3d 20 01 82 	lis     r9,386
 18034ac:	a8 09 a9 d4 	lha     r0,-22060(r9)
 18034b0:	2c 00 e3 e0 	cmpwi   r0,-7200
 18034b4:	40 80 00 38 	bge-    18034ec <radio_control_task+0x65c>
 18034b8:	3d 60 01 82 	lis     r11,386
 18034bc:	a1 2b a3 52 	lhz     r9,-23726(r11)
 18034c0:	28 09 00 13 	cmplwi  r9,19
 18034c4:	41 81 00 3c 	bgt-    1803500 <radio_control_task+0x670>
 18034c8:	39 29 00 01 	addi    r9,r9,1
 18034cc:	55 20 04 3e 	clrlwi  r0,r9,16
 18034d0:	2c 00 00 14 	cmpwi   r0,20
 18034d4:	b1 2b a3 52 	sth     r9,-23726(r11)
 18034d8:	40 82 00 28 	bne-    1803500 <radio_control_task+0x670>
 18034dc:	3d 20 01 82 	lis     r9,386
 18034e0:	38 00 00 01 	li      r0,1
 18034e4:	98 09 a3 f4 	stb     r0,-23564(r9)
 18034e8:	48 00 00 18 	b       1803500 <radio_control_task+0x670>
 18034ec:	38 00 00 00 	li      r0,0
 18034f0:	3d 60 01 82 	lis     r11,386
 18034f4:	3d 20 01 82 	lis     r9,386
 18034f8:	98 09 a3 f4 	stb     r0,-23564(r9)
 18034fc:	b0 0b a3 52 	sth     r0,-23726(r11)
 1803500:	3d 20 01 82 	lis     r9,386
 1803504:	a0 09 a4 b4 	lhz     r0,-23372(r9)
 1803508:	2c 00 00 00 	cmpwi   r0,0
 180350c:	40 82 08 ec 	bne-    1803df8 <radio_control_task+0xf68>
 1803510:	3d 20 01 82 	lis     r9,386
 1803514:	88 09 a3 4e 	lbz     r0,-23730(r9)
 1803518:	2c 00 00 00 	cmpwi   r0,0
 180351c:	40 82 01 08 	bne-    1803624 <radio_control_task+0x794>
 1803520:	3d 20 01 82 	lis     r9,386
 1803524:	a0 09 a3 44 	lhz     r0,-23740(r9)
 1803528:	28 00 00 09 	cmplwi  r0,9
 180352c:	41 81 08 a0 	bgt-    1803dcc <radio_control_task+0xf3c>
 1803530:	3d 20 01 82 	lis     r9,386
 1803534:	89 09 a3 46 	lbz     r8,-23738(r9)
 1803538:	2c 08 00 01 	cmpwi   r8,1
 180353c:	40 82 08 90 	bne-    1803dcc <radio_control_task+0xf3c>
 1803540:	3d 20 01 82 	lis     r9,386
 1803544:	3d 60 01 82 	lis     r11,386
 1803548:	89 49 a3 f9 	lbz     r10,-23559(r9)
 180354c:	88 0b a3 fa 	lbz     r0,-23558(r11)
 1803550:	3d 20 01 82 	lis     r9,386
 1803554:	7c 0a 00 40 	cmplw   r10,r0
 1803558:	99 09 a3 4e 	stb     r8,-23730(r9)
 180355c:	3d 80 01 82 	lis     r12,386
 1803560:	3f 40 01 82 	lis     r26,386
 1803564:	41 80 00 1c 	blt-    1803580 <radio_control_task+0x6f0>
 1803568:	88 1a a3 fa 	lbz     r0,-23558(r26)
 180356c:	7c 00 50 50 	subf    r0,r0,r10
 1803570:	20 00 00 ff 	subfic  r0,r0,255
 1803574:	2c 00 00 04 	cmpwi   r0,4
 1803578:	41 81 00 18 	bgt-    1803590 <radio_control_task+0x700>
 180357c:	48 00 08 40 	b       1803dbc <radio_control_task+0xf2c>
 1803580:	88 1a a3 fa 	lbz     r0,-23558(r26)
 1803584:	7c 0a 00 50 	subf    r0,r10,r0
 1803588:	2c 00 00 04 	cmpwi   r0,4
 180358c:	40 81 08 30 	ble-    1803dbc <radio_control_task+0xf2c>
 1803590:	3d 00 01 82 	lis     r8,386
 1803594:	89 28 a3 f9 	lbz     r9,-23559(r8)
 1803598:	3d 60 01 82 	lis     r11,386
 180359c:	39 49 00 01 	addi    r10,r9,1
 18035a0:	55 40 06 3e 	clrlwi  r0,r10,24
 18035a4:	28 00 00 fe 	cmplwi  r0,254
 18035a8:	38 ab a8 b4 	addi    r5,r11,-22348
 18035ac:	55 29 06 3e 	clrlwi  r9,r9,24
 18035b0:	38 00 00 05 	li      r0,5
 18035b4:	7c 05 49 ae 	stbx    r0,r5,r9
 18035b8:	99 48 a3 f9 	stb     r10,-23559(r8)
 18035bc:	40 81 00 0c 	ble-    18035c8 <radio_control_task+0x738>
 18035c0:	38 00 00 00 	li      r0,0
 18035c4:	98 0c a3 f9 	stb     r0,-23559(r12)
 18035c8:	89 2c a3 f9 	lbz     r9,-23559(r12)
 18035cc:	38 e0 00 02 	li      r7,2
 18035d0:	39 69 00 01 	addi    r11,r9,1
 18035d4:	55 60 06 3e 	clrlwi  r0,r11,24
 18035d8:	55 29 06 3e 	clrlwi  r9,r9,24
 18035dc:	28 00 00 fe 	cmplwi  r0,254
 18035e0:	7c e5 49 ae 	stbx    r7,r5,r9
 18035e4:	99 6c a3 f9 	stb     r11,-23559(r12)
 18035e8:	40 81 00 0c 	ble-    18035f4 <radio_control_task+0x764>
 18035ec:	38 00 00 00 	li      r0,0
 18035f0:	98 0c a3 f9 	stb     r0,-23559(r12)
 18035f4:	89 2c a3 f9 	lbz     r9,-23559(r12)
 18035f8:	3d 00 01 82 	lis     r8,386
 18035fc:	39 49 00 01 	addi    r10,r9,1
 1803600:	55 40 06 3e 	clrlwi  r0,r10,24
 1803604:	55 29 06 3e 	clrlwi  r9,r9,24
 1803608:	28 00 00 fe 	cmplwi  r0,254
 180360c:	7c e5 49 ae 	stbx    r7,r5,r9
 1803610:	3d 60 01 82 	lis     r11,386
 1803614:	98 e8 a3 fc 	stb     r7,-23556(r8)
 1803618:	98 eb a3 f6 	stb     r7,-23562(r11)
 180361c:	99 4c a3 f9 	stb     r10,-23559(r12)
 1803620:	48 00 07 00 	b       1803d20 <radio_control_task+0xe90>
 1803624:	2c 00 00 01 	cmpwi   r0,1
 1803628:	40 82 07 a4 	bne-    1803dcc <radio_control_task+0xf3c>
 180362c:	3d 60 01 82 	lis     r11,386
 1803630:	a1 2b a9 cc 	lhz     r9,-22068(r11)
 1803634:	39 29 12 c0 	addi    r9,r9,4800
 1803638:	55 29 04 3e 	clrlwi  r9,r9,16
 180363c:	28 09 1f 40 	cmplwi  r9,8000
 1803640:	40 81 07 8c 	ble-    1803dcc <radio_control_task+0xf3c>
 1803644:	48 00 3a ed 	bl      1807130 <ir_gain_calib>
 1803648:	3d 20 01 82 	lis     r9,386
 180364c:	89 49 a3 f9 	lbz     r10,-23559(r9)
 1803650:	3d 60 01 82 	lis     r11,386
 1803654:	3d 20 01 82 	lis     r9,386
 1803658:	88 0b a3 fa 	lbz     r0,-23558(r11)
 180365c:	c0 09 a3 70 	lfs     f0,-23696(r9)
 1803660:	7c 0a 00 40 	cmplw   r10,r0
 1803664:	3d 20 01 82 	lis     r9,386
 1803668:	d0 09 a4 c8 	stfs    f0,-23352(r9)
 180366c:	3d 80 01 82 	lis     r12,386
 1803670:	3f 40 01 82 	lis     r26,386
 1803674:	41 80 00 1c 	blt-    1803690 <radio_control_task+0x800>
 1803678:	88 1a a3 fa 	lbz     r0,-23558(r26)
 180367c:	7c 00 50 50 	subf    r0,r0,r10
 1803680:	20 00 00 ff 	subfic  r0,r0,255
 1803684:	2c 00 00 14 	cmpwi   r0,20
 1803688:	41 81 00 18 	bgt-    18036a0 <radio_control_task+0x810>
 180368c:	48 00 05 30 	b       1803bbc <radio_control_task+0xd2c>
 1803690:	88 1a a3 fa 	lbz     r0,-23558(r26)
 1803694:	7c 0a 00 50 	subf    r0,r10,r0
 1803698:	2c 00 00 14 	cmpwi   r0,20
 180369c:	40 81 05 20 	ble-    1803bbc <radio_control_task+0xd2c>
 18036a0:	3d 60 01 82 	lis     r11,386
 18036a4:	89 2b a3 f9 	lbz     r9,-23559(r11)
 18036a8:	3d 40 01 82 	lis     r10,386
 18036ac:	39 09 00 01 	addi    r8,r9,1
 18036b0:	38 6a a8 b4 	addi    r3,r10,-22348
 18036b4:	55 00 06 3e 	clrlwi  r0,r8,24
 18036b8:	55 29 06 3e 	clrlwi  r9,r9,24
 18036bc:	39 40 00 05 	li      r10,5
 18036c0:	28 00 00 fe 	cmplwi  r0,254
 18036c4:	7d 43 49 ae 	stbx    r10,r3,r9
 18036c8:	38 8b a3 f9 	addi    r4,r11,-23559
 18036cc:	99 0b a3 f9 	stb     r8,-23559(r11)
 18036d0:	40 81 00 0c 	ble-    18036dc <radio_control_task+0x84c>
 18036d4:	38 00 00 00 	li      r0,0
 18036d8:	98 0c a3 f9 	stb     r0,-23559(r12)
 18036dc:	89 2c a3 f9 	lbz     r9,-23559(r12)
 18036e0:	39 69 00 01 	addi    r11,r9,1
 18036e4:	55 60 06 3e 	clrlwi  r0,r11,24
 18036e8:	55 29 06 3e 	clrlwi  r9,r9,24
 18036ec:	28 00 00 fe 	cmplwi  r0,254
 18036f0:	7d 43 49 ae 	stbx    r10,r3,r9
 18036f4:	99 6c a3 f9 	stb     r11,-23559(r12)
 18036f8:	40 81 00 0c 	ble-    1803704 <radio_control_task+0x874>
 18036fc:	38 00 00 00 	li      r0,0
 1803700:	98 0c a3 f9 	stb     r0,-23559(r12)
 1803704:	89 6c a3 f9 	lbz     r11,-23559(r12)
 1803708:	3d 40 01 82 	lis     r10,386
 180370c:	39 0b 00 01 	addi    r8,r11,1
 1803710:	89 2a a4 d0 	lbz     r9,-23344(r10)
 1803714:	55 00 06 3e 	clrlwi  r0,r8,24
 1803718:	55 6b 06 3e 	clrlwi  r11,r11,24
 180371c:	28 00 00 fe 	cmplwi  r0,254
 1803720:	7d 23 59 ae 	stbx    r9,r3,r11
 1803724:	3f a0 01 82 	lis     r29,386
 1803728:	3f e0 01 82 	lis     r31,386
 180372c:	38 c9 00 0a 	addi    r6,r9,10
 1803730:	38 e9 00 05 	addi    r7,r9,5
 1803734:	38 aa a4 d0 	addi    r5,r10,-23344
 1803738:	3b 9d a3 fc 	addi    r28,r29,-23556
 180373c:	3b 7f a3 f6 	addi    r27,r31,-23562
 1803740:	98 fd a3 fc 	stb     r7,-23556(r29)
 1803744:	98 df a3 f6 	stb     r6,-23562(r31)
 1803748:	99 0c a3 f9 	stb     r8,-23559(r12)
 180374c:	40 81 00 0c 	ble-    1803758 <radio_control_task+0x8c8>
 1803750:	38 00 00 00 	li      r0,0
 1803754:	98 0c a3 f9 	stb     r0,-23559(r12)
 1803758:	89 2c a3 f9 	lbz     r9,-23559(r12)
 180375c:	89 65 00 01 	lbz     r11,1(r5)
 1803760:	39 49 00 01 	addi    r10,r9,1
 1803764:	55 40 06 3e 	clrlwi  r0,r10,24
 1803768:	7d 07 5a 14 	add     r8,r7,r11
 180376c:	55 29 06 3e 	clrlwi  r9,r9,24
 1803770:	28 00 00 fe 	cmplwi  r0,254
 1803774:	7d 63 49 ae 	stbx    r11,r3,r9
 1803778:	7c e6 42 14 	add     r7,r6,r8
 180377c:	99 1d a3 fc 	stb     r8,-23556(r29)
 1803780:	98 ff a3 f6 	stb     r7,-23562(r31)
 1803784:	99 4c a3 f9 	stb     r10,-23559(r12)
 1803788:	40 81 00 0c 	ble-    1803794 <radio_control_task+0x904>
 180378c:	38 00 00 00 	li      r0,0
 1803790:	98 0c a3 f9 	stb     r0,-23559(r12)
 1803794:	89 2c a3 f9 	lbz     r9,-23559(r12)
 1803798:	89 65 00 02 	lbz     r11,2(r5)
 180379c:	39 49 00 01 	addi    r10,r9,1
 18037a0:	55 40 06 3e 	clrlwi  r0,r10,24
 18037a4:	7d 08 5a 14 	add     r8,r8,r11
 18037a8:	55 29 06 3e 	clrlwi  r9,r9,24
 18037ac:	28 00 00 fe 	cmplwi  r0,254
 18037b0:	7d 63 49 ae 	stbx    r11,r3,r9
 18037b4:	7c c7 42 14 	add     r6,r7,r8
 18037b8:	99 1d a3 fc 	stb     r8,-23556(r29)
 18037bc:	98 df a3 f6 	stb     r6,-23562(r31)
 18037c0:	99 4c a3 f9 	stb     r10,-23559(r12)
 18037c4:	40 81 00 0c 	ble-    18037d0 <radio_control_task+0x940>
 18037c8:	38 00 00 00 	li      r0,0
 18037cc:	98 0c a3 f9 	stb     r0,-23559(r12)
 18037d0:	89 2c a3 f9 	lbz     r9,-23559(r12)
 18037d4:	89 65 00 03 	lbz     r11,3(r5)
 18037d8:	39 49 00 01 	addi    r10,r9,1
 18037dc:	55 40 06 3e 	clrlwi  r0,r10,24
 18037e0:	7c e8 5a 14 	add     r7,r8,r11
 18037e4:	55 29 06 3e 	clrlwi  r9,r9,24
 18037e8:	28 00 00 fe 	cmplwi  r0,254
 18037ec:	7d 63 49 ae 	stbx    r11,r3,r9
 18037f0:	7c c6 3a 14 	add     r6,r6,r7
 18037f4:	98 fd a3 fc 	stb     r7,-23556(r29)
 18037f8:	98 df a3 f6 	stb     r6,-23562(r31)
 18037fc:	99 4c a3 f9 	stb     r10,-23559(r12)
 1803800:	40 81 00 0c 	ble-    180380c <radio_control_task+0x97c>
 1803804:	38 00 00 00 	li      r0,0
 1803808:	98 0c a3 f9 	stb     r0,-23559(r12)
 180380c:	89 6c a3 f9 	lbz     r11,-23559(r12)
 1803810:	3d 20 01 82 	lis     r9,386
 1803814:	39 0b 00 01 	addi    r8,r11,1
 1803818:	89 49 a4 e8 	lbz     r10,-23320(r9)
 180381c:	55 00 06 3e 	clrlwi  r0,r8,24
 1803820:	7c e7 52 14 	add     r7,r7,r10
 1803824:	55 6b 06 3e 	clrlwi  r11,r11,24
 1803828:	28 00 00 fe 	cmplwi  r0,254
 180382c:	7d 43 59 ae 	stbx    r10,r3,r11
 1803830:	7c c6 3a 14 	add     r6,r6,r7
 1803834:	38 a9 a4 e8 	addi    r5,r9,-23320
 1803838:	98 fd a3 fc 	stb     r7,-23556(r29)
 180383c:	98 df a3 f6 	stb     r6,-23562(r31)
 1803840:	99 0c a3 f9 	stb     r8,-23559(r12)
 1803844:	40 81 00 0c 	ble-    1803850 <radio_control_task+0x9c0>
 1803848:	38 00 00 00 	li      r0,0
 180384c:	98 0c a3 f9 	stb     r0,-23559(r12)
 1803850:	89 2c a3 f9 	lbz     r9,-23559(r12)
 1803854:	89 65 00 01 	lbz     r11,1(r5)
 1803858:	39 49 00 01 	addi    r10,r9,1
 180385c:	55 40 06 3e 	clrlwi  r0,r10,24
 1803860:	7d 07 5a 14 	add     r8,r7,r11
 1803864:	55 29 06 3e 	clrlwi  r9,r9,24
 1803868:	28 00 00 fe 	cmplwi  r0,254
 180386c:	7d 63 49 ae 	stbx    r11,r3,r9
 1803870:	7c e6 42 14 	add     r7,r6,r8
 1803874:	99 1d a3 fc 	stb     r8,-23556(r29)
 1803878:	98 ff a3 f6 	stb     r7,-23562(r31)
 180387c:	99 4c a3 f9 	stb     r10,-23559(r12)
 1803880:	40 81 00 0c 	ble-    180388c <radio_control_task+0x9fc>
 1803884:	38 00 00 00 	li      r0,0
 1803888:	98 0c a3 f9 	stb     r0,-23559(r12)
 180388c:	89 2c a3 f9 	lbz     r9,-23559(r12)
 1803890:	89 65 00 02 	lbz     r11,2(r5)
 1803894:	39 49 00 01 	addi    r10,r9,1
 1803898:	55 40 06 3e 	clrlwi  r0,r10,24
 180389c:	7d 08 5a 14 	add     r8,r8,r11
 18038a0:	55 29 06 3e 	clrlwi  r9,r9,24
 18038a4:	28 00 00 fe 	cmplwi  r0,254
 18038a8:	7d 63 49 ae 	stbx    r11,r3,r9
 18038ac:	7c c7 42 14 	add     r6,r7,r8
 18038b0:	99 1d a3 fc 	stb     r8,-23556(r29)
 18038b4:	98 df a3 f6 	stb     r6,-23562(r31)
 18038b8:	99 4c a3 f9 	stb     r10,-23559(r12)
 18038bc:	40 81 00 0c 	ble-    18038c8 <radio_control_task+0xa38>
 18038c0:	38 00 00 00 	li      r0,0
 18038c4:	98 0c a3 f9 	stb     r0,-23559(r12)
 18038c8:	89 2c a3 f9 	lbz     r9,-23559(r12)
 18038cc:	89 65 00 03 	lbz     r11,3(r5)
 18038d0:	39 49 00 01 	addi    r10,r9,1
 18038d4:	55 40 06 3e 	clrlwi  r0,r10,24
 18038d8:	7c e8 5a 14 	add     r7,r8,r11
 18038dc:	55 29 06 3e 	clrlwi  r9,r9,24
 18038e0:	28 00 00 fe 	cmplwi  r0,254
 18038e4:	7d 63 49 ae 	stbx    r11,r3,r9
 18038e8:	7c a6 3a 14 	add     r5,r6,r7
 18038ec:	98 fd a3 fc 	stb     r7,-23556(r29)
 18038f0:	98 bf a3 f6 	stb     r5,-23562(r31)
 18038f4:	99 4c a3 f9 	stb     r10,-23559(r12)
 18038f8:	40 81 00 0c 	ble-    1803904 <radio_control_task+0xa74>
 18038fc:	38 00 00 00 	li      r0,0
 1803900:	98 0c a3 f9 	stb     r0,-23559(r12)
 1803904:	89 64 00 00 	lbz     r11,0(r4)
 1803908:	3d 20 01 82 	lis     r9,386
 180390c:	89 49 a4 c8 	lbz     r10,-23352(r9)
 1803910:	39 0b 00 01 	addi    r8,r11,1
 1803914:	7c c7 52 14 	add     r6,r7,r10
 1803918:	55 00 06 3e 	clrlwi  r0,r8,24
 180391c:	55 6b 06 3e 	clrlwi  r11,r11,24
 1803920:	7d 43 59 ae 	stbx    r10,r3,r11
 1803924:	7c a5 32 14 	add     r5,r5,r6
 1803928:	28 00 00 fe 	cmplwi  r0,254
 180392c:	98 dd a3 fc 	stb     r6,-23556(r29)
 1803930:	98 bf a3 f6 	stb     r5,-23562(r31)
 1803934:	3b c9 a4 c8 	addi    r30,r9,-23352
 1803938:	99 04 00 00 	stb     r8,0(r4)
 180393c:	40 81 00 0c 	ble-    1803948 <radio_control_task+0xab8>
 1803940:	38 00 00 00 	li      r0,0
 1803944:	98 04 00 00 	stb     r0,0(r4)
 1803948:	89 1e 00 01 	lbz     r8,1(r30)
 180394c:	89 24 00 00 	lbz     r9,0(r4)
 1803950:	7d 46 42 14 	add     r10,r6,r8
 1803954:	38 e9 00 01 	addi    r7,r9,1
 1803958:	7d 65 52 14 	add     r11,r5,r10
 180395c:	99 7f a3 f6 	stb     r11,-23562(r31)
 1803960:	54 e0 06 3e 	clrlwi  r0,r7,24
 1803964:	55 29 06 3e 	clrlwi  r9,r9,24
 1803968:	7d 03 49 ae 	stbx    r8,r3,r9
 180396c:	28 00 00 fe 	cmplwi  r0,254
 1803970:	99 5d a3 fc 	stb     r10,-23556(r29)
 1803974:	98 e4 00 00 	stb     r7,0(r4)
 1803978:	40 81 00 0c 	ble-    1803984 <radio_control_task+0xaf4>
 180397c:	38 00 00 00 	li      r0,0
 1803980:	98 04 00 00 	stb     r0,0(r4)
 1803984:	89 24 00 00 	lbz     r9,0(r4)
 1803988:	89 1e 00 02 	lbz     r8,2(r30)
 180398c:	88 1c 00 00 	lbz     r0,0(r28)
 1803990:	89 7b 00 00 	lbz     r11,0(r27)
 1803994:	38 e9 00 01 	addi    r7,r9,1
 1803998:	7c c0 42 14 	add     r6,r0,r8
 180399c:	54 ea 06 3e 	clrlwi  r10,r7,24
 18039a0:	55 29 06 3e 	clrlwi  r9,r9,24
 18039a4:	7d 03 49 ae 	stbx    r8,r3,r9
 18039a8:	7c ab 32 14 	add     r5,r11,r6
 18039ac:	28 0a 00 fe 	cmplwi  r10,254
 18039b0:	98 dc 00 00 	stb     r6,0(r28)
 18039b4:	98 bb 00 00 	stb     r5,0(r27)
 18039b8:	98 e4 00 00 	stb     r7,0(r4)
 18039bc:	40 81 00 0c 	ble-    18039c8 <radio_control_task+0xb38>
 18039c0:	38 00 00 00 	li      r0,0
 18039c4:	98 04 00 00 	stb     r0,0(r4)
 18039c8:	89 24 00 00 	lbz     r9,0(r4)
 18039cc:	89 7e 00 03 	lbz     r11,3(r30)
 18039d0:	39 49 00 01 	addi    r10,r9,1
 18039d4:	7c e6 5a 14 	add     r7,r6,r11
 18039d8:	55 40 06 3e 	clrlwi  r0,r10,24
 18039dc:	55 29 06 3e 	clrlwi  r9,r9,24
 18039e0:	7d 63 49 ae 	stbx    r11,r3,r9
 18039e4:	7c c5 3a 14 	add     r6,r5,r7
 18039e8:	28 00 00 fe 	cmplwi  r0,254
 18039ec:	98 fc 00 00 	stb     r7,0(r28)
 18039f0:	98 db 00 00 	stb     r6,0(r27)
 18039f4:	99 44 00 00 	stb     r10,0(r4)
 18039f8:	40 81 00 0c 	ble-    1803a04 <radio_control_task+0xb74>
 18039fc:	38 00 00 00 	li      r0,0
 1803a00:	98 04 00 00 	stb     r0,0(r4)
 1803a04:	89 64 00 00 	lbz     r11,0(r4)
 1803a08:	3d 20 01 82 	lis     r9,386
 1803a0c:	89 49 a3 6a 	lbz     r10,-23702(r9)
 1803a10:	39 0b 00 01 	addi    r8,r11,1
 1803a14:	7c e7 52 14 	add     r7,r7,r10
 1803a18:	55 00 06 3e 	clrlwi  r0,r8,24
 1803a1c:	55 6b 06 3e 	clrlwi  r11,r11,24
 1803a20:	7d 43 59 ae 	stbx    r10,r3,r11
 1803a24:	7c c6 3a 14 	add     r6,r6,r7
 1803a28:	28 00 00 fe 	cmplwi  r0,254
 1803a2c:	98 fc 00 00 	stb     r7,0(r28)
 1803a30:	98 db 00 00 	stb     r6,0(r27)
 1803a34:	38 a9 a3 6a 	addi    r5,r9,-23702
 1803a38:	99 04 00 00 	stb     r8,0(r4)
 1803a3c:	40 81 00 0c 	ble-    1803a48 <radio_control_task+0xbb8>
 1803a40:	38 00 00 00 	li      r0,0
 1803a44:	98 04 00 00 	stb     r0,0(r4)
 1803a48:	89 24 00 00 	lbz     r9,0(r4)
 1803a4c:	89 65 00 01 	lbz     r11,1(r5)
 1803a50:	39 49 00 01 	addi    r10,r9,1
 1803a54:	7c e7 5a 14 	add     r7,r7,r11
 1803a58:	55 40 06 3e 	clrlwi  r0,r10,24
 1803a5c:	55 29 06 3e 	clrlwi  r9,r9,24
 1803a60:	7d 63 49 ae 	stbx    r11,r3,r9
 1803a64:	7c c6 3a 14 	add     r6,r6,r7
 1803a68:	28 00 00 fe 	cmplwi  r0,254
 1803a6c:	98 fc 00 00 	stb     r7,0(r28)
 1803a70:	98 db 00 00 	stb     r6,0(r27)
 1803a74:	99 44 00 00 	stb     r10,0(r4)
 1803a78:	40 81 00 0c 	ble-    1803a84 <radio_control_task+0xbf4>
 1803a7c:	38 00 00 00 	li      r0,0
 1803a80:	98 04 00 00 	stb     r0,0(r4)
 1803a84:	89 64 00 00 	lbz     r11,0(r4)
 1803a88:	3d 20 01 82 	lis     r9,386
 1803a8c:	89 49 a3 6c 	lbz     r10,-23700(r9)
 1803a90:	39 0b 00 01 	addi    r8,r11,1
 1803a94:	7c e7 52 14 	add     r7,r7,r10
 1803a98:	55 00 06 3e 	clrlwi  r0,r8,24
 1803a9c:	55 6b 06 3e 	clrlwi  r11,r11,24
 1803aa0:	7d 43 59 ae 	stbx    r10,r3,r11
 1803aa4:	7c c6 3a 14 	add     r6,r6,r7
 1803aa8:	28 00 00 fe 	cmplwi  r0,254
 1803aac:	98 fc 00 00 	stb     r7,0(r28)
 1803ab0:	98 db 00 00 	stb     r6,0(r27)
 1803ab4:	38 a9 a3 6c 	addi    r5,r9,-23700
 1803ab8:	99 04 00 00 	stb     r8,0(r4)
 1803abc:	40 81 00 0c 	ble-    1803ac8 <radio_control_task+0xc38>
 1803ac0:	38 00 00 00 	li      r0,0
 1803ac4:	98 04 00 00 	stb     r0,0(r4)
 1803ac8:	89 24 00 00 	lbz     r9,0(r4)
 1803acc:	89 65 00 01 	lbz     r11,1(r5)
 1803ad0:	39 49 00 01 	addi    r10,r9,1
 1803ad4:	7d 07 5a 14 	add     r8,r7,r11
 1803ad8:	55 40 06 3e 	clrlwi  r0,r10,24
 1803adc:	55 29 06 3e 	clrlwi  r9,r9,24
 1803ae0:	7d 63 49 ae 	stbx    r11,r3,r9
 1803ae4:	7c e6 42 14 	add     r7,r6,r8
 1803ae8:	28 00 00 fe 	cmplwi  r0,254
 1803aec:	99 1c 00 00 	stb     r8,0(r28)
 1803af0:	98 fb 00 00 	stb     r7,0(r27)
 1803af4:	99 44 00 00 	stb     r10,0(r4)
 1803af8:	40 81 00 0c 	ble-    1803b04 <radio_control_task+0xc74>
 1803afc:	38 00 00 00 	li      r0,0
 1803b00:	98 04 00 00 	stb     r0,0(r4)
 1803b04:	89 24 00 00 	lbz     r9,0(r4)
 1803b08:	39 69 00 01 	addi    r11,r9,1
 1803b0c:	55 60 06 3e 	clrlwi  r0,r11,24
 1803b10:	55 29 06 3e 	clrlwi  r9,r9,24
 1803b14:	28 00 00 fe 	cmplwi  r0,254
 1803b18:	7d 03 49 ae 	stbx    r8,r3,r9
 1803b1c:	99 64 00 00 	stb     r11,0(r4)
 1803b20:	40 81 00 0c 	ble-    1803b2c <radio_control_task+0xc9c>
 1803b24:	38 00 00 00 	li      r0,0
 1803b28:	98 04 00 00 	stb     r0,0(r4)
 1803b2c:	89 24 00 00 	lbz     r9,0(r4)
 1803b30:	39 69 00 01 	addi    r11,r9,1
 1803b34:	55 60 06 3e 	clrlwi  r0,r11,24
 1803b38:	55 29 06 3e 	clrlwi  r9,r9,24
 1803b3c:	28 00 00 fe 	cmplwi  r0,254
 1803b40:	7c e3 49 ae 	stbx    r7,r3,r9
 1803b44:	99 64 00 00 	stb     r11,0(r4)
 1803b48:	40 81 00 0c 	ble-    1803b54 <radio_control_task+0xcc4>
 1803b4c:	38 00 00 00 	li      r0,0
 1803b50:	98 04 00 00 	stb     r0,0(r4)
 1803b54:	38 c0 00 59 	li      r6,89
 1803b58:	88 06 00 00 	lbz     r0,0(r6)
 1803b5c:	70 07 00 10 	andi.   r7,r0,16
 1803b60:	40 82 00 6c 	bne-    1803bcc <radio_control_task+0xd3c>
 1803b64:	3d 60 01 82 	lis     r11,386
 1803b68:	88 0b a3 fa 	lbz     r0,-23558(r11)
 1803b6c:	89 2b a3 fa 	lbz     r9,-23558(r11)
 1803b70:	7d 03 00 ae 	lbzx    r8,r3,r0
 1803b74:	39 29 00 01 	addi    r9,r9,1
 1803b78:	99 2b a3 fa 	stb     r9,-23558(r11)
 1803b7c:	88 0b a3 fa 	lbz     r0,-23558(r11)
 1803b80:	3d 40 01 82 	lis     r10,386
 1803b84:	28 00 00 fe 	cmplwi  r0,254
 1803b88:	3d 20 01 82 	lis     r9,386
 1803b8c:	99 0a a3 f8 	stb     r8,-23560(r10)
 1803b90:	98 e9 a3 fb 	stb     r7,-23557(r9)
 1803b94:	40 81 00 08 	ble-    1803b9c <radio_control_task+0xd0c>
 1803b98:	98 fa a3 fa 	stb     r7,-23558(r26)
 1803b9c:	39 20 00 58 	li      r9,88
 1803ba0:	88 09 00 00 	lbz     r0,0(r9)
 1803ba4:	60 00 00 01 	ori     r0,r0,1
 1803ba8:	98 09 00 00 	stb     r0,0(r9)
 1803bac:	89 66 00 00 	lbz     r11,0(r6)
 1803bb0:	61 6b 00 10 	ori     r11,r11,16
 1803bb4:	99 66 00 00 	stb     r11,0(r6)
 1803bb8:	48 00 00 14 	b       1803bcc <radio_control_task+0xd3c>
 1803bbc:	3d 60 01 82 	lis     r11,386
 1803bc0:	89 2b a3 f7 	lbz     r9,-23561(r11)
 1803bc4:	39 29 00 01 	addi    r9,r9,1
 1803bc8:	99 2b a3 f7 	stb     r9,-23561(r11)
 1803bcc:	3d 20 01 82 	lis     r9,386
 1803bd0:	89 09 a3 f9 	lbz     r8,-23559(r9)
 1803bd4:	3d 60 01 82 	lis     r11,386
 1803bd8:	89 2b a3 fa 	lbz     r9,-23558(r11)
 1803bdc:	3d 40 01 82 	lis     r10,386
 1803be0:	7c 08 48 40 	cmplw   r8,r9
 1803be4:	38 00 00 02 	li      r0,2
 1803be8:	98 0a a3 4e 	stb     r0,-23730(r10)
 1803bec:	41 80 00 1c 	blt-    1803c08 <radio_control_task+0xd78>
 1803bf0:	88 1a a3 fa 	lbz     r0,-23558(r26)
 1803bf4:	7c 00 40 50 	subf    r0,r0,r8
 1803bf8:	20 00 00 ff 	subfic  r0,r0,255
 1803bfc:	2c 00 00 06 	cmpwi   r0,6
 1803c00:	41 81 00 18 	bgt-    1803c18 <radio_control_task+0xd88>
 1803c04:	48 00 01 b8 	b       1803dbc <radio_control_task+0xf2c>
 1803c08:	88 1a a3 fa 	lbz     r0,-23558(r26)
 1803c0c:	7c 08 00 50 	subf    r0,r8,r0
 1803c10:	2c 00 00 06 	cmpwi   r0,6
 1803c14:	40 81 01 a8 	ble-    1803dbc <radio_control_task+0xf2c>
 1803c18:	3d 00 01 82 	lis     r8,386
 1803c1c:	89 28 a3 f9 	lbz     r9,-23559(r8)
 1803c20:	3d 60 01 82 	lis     r11,386
 1803c24:	39 49 00 01 	addi    r10,r9,1
 1803c28:	55 40 06 3e 	clrlwi  r0,r10,24
 1803c2c:	28 00 00 fe 	cmplwi  r0,254
 1803c30:	38 ab a8 b4 	addi    r5,r11,-22348
 1803c34:	55 29 06 3e 	clrlwi  r9,r9,24
 1803c38:	38 00 00 05 	li      r0,5
 1803c3c:	7c 05 49 ae 	stbx    r0,r5,r9
 1803c40:	99 48 a3 f9 	stb     r10,-23559(r8)
 1803c44:	40 81 00 0c 	ble-    1803c50 <radio_control_task+0xdc0>
 1803c48:	38 00 00 00 	li      r0,0
 1803c4c:	98 0c a3 f9 	stb     r0,-23559(r12)
 1803c50:	89 2c a3 f9 	lbz     r9,-23559(r12)
 1803c54:	39 40 00 03 	li      r10,3
 1803c58:	39 69 00 01 	addi    r11,r9,1
 1803c5c:	55 60 06 3e 	clrlwi  r0,r11,24
 1803c60:	55 29 06 3e 	clrlwi  r9,r9,24
 1803c64:	28 00 00 fe 	cmplwi  r0,254
 1803c68:	7d 45 49 ae 	stbx    r10,r5,r9
 1803c6c:	99 6c a3 f9 	stb     r11,-23559(r12)
 1803c70:	40 81 00 0c 	ble-    1803c7c <radio_control_task+0xdec>
 1803c74:	38 00 00 00 	li      r0,0
 1803c78:	98 0c a3 f9 	stb     r0,-23559(r12)
 1803c7c:	89 6c a3 f9 	lbz     r11,-23559(r12)
 1803c80:	3d 40 01 82 	lis     r10,386
 1803c84:	39 0b 00 01 	addi    r8,r11,1
 1803c88:	89 2a a3 68 	lbz     r9,-23704(r10)
 1803c8c:	55 00 06 3e 	clrlwi  r0,r8,24
 1803c90:	55 6b 06 3e 	clrlwi  r11,r11,24
 1803c94:	28 00 00 fe 	cmplwi  r0,254
 1803c98:	7d 25 59 ae 	stbx    r9,r5,r11
 1803c9c:	38 c9 00 06 	addi    r6,r9,6
 1803ca0:	38 e9 00 03 	addi    r7,r9,3
 1803ca4:	3c 80 01 82 	lis     r4,386
 1803ca8:	3c 60 01 82 	lis     r3,386
 1803cac:	3b ea a3 68 	addi    r31,r10,-23704
 1803cb0:	98 e4 a3 fc 	stb     r7,-23556(r4)
 1803cb4:	98 c3 a3 f6 	stb     r6,-23562(r3)
 1803cb8:	99 0c a3 f9 	stb     r8,-23559(r12)
 1803cbc:	40 81 00 0c 	ble-    1803cc8 <radio_control_task+0xe38>
 1803cc0:	38 00 00 00 	li      r0,0
 1803cc4:	98 0c a3 f9 	stb     r0,-23559(r12)
 1803cc8:	89 2c a3 f9 	lbz     r9,-23559(r12)
 1803ccc:	89 7f 00 01 	lbz     r11,1(r31)
 1803cd0:	39 49 00 01 	addi    r10,r9,1
 1803cd4:	55 40 06 3e 	clrlwi  r0,r10,24
 1803cd8:	7d 07 5a 14 	add     r8,r7,r11
 1803cdc:	55 29 06 3e 	clrlwi  r9,r9,24
 1803ce0:	28 00 00 fe 	cmplwi  r0,254
 1803ce4:	7d 65 49 ae 	stbx    r11,r5,r9
 1803ce8:	7c e6 42 14 	add     r7,r6,r8
 1803cec:	99 04 a3 fc 	stb     r8,-23556(r4)
 1803cf0:	98 e3 a3 f6 	stb     r7,-23562(r3)
 1803cf4:	99 4c a3 f9 	stb     r10,-23559(r12)
 1803cf8:	40 81 00 0c 	ble-    1803d04 <radio_control_task+0xe74>
 1803cfc:	38 00 00 00 	li      r0,0
 1803d00:	98 0c a3 f9 	stb     r0,-23559(r12)
 1803d04:	89 2c a3 f9 	lbz     r9,-23559(r12)
 1803d08:	39 69 00 01 	addi    r11,r9,1
 1803d0c:	55 60 06 3e 	clrlwi  r0,r11,24
 1803d10:	55 29 06 3e 	clrlwi  r9,r9,24
 1803d14:	28 00 00 fe 	cmplwi  r0,254
 1803d18:	7d 05 49 ae 	stbx    r8,r5,r9
 1803d1c:	99 6c a3 f9 	stb     r11,-23559(r12)
 1803d20:	40 81 00 0c 	ble-    1803d2c <radio_control_task+0xe9c>
 1803d24:	38 00 00 00 	li      r0,0
 1803d28:	98 0c a3 f9 	stb     r0,-23559(r12)
 1803d2c:	89 2c a3 f9 	lbz     r9,-23559(r12)
 1803d30:	39 69 00 01 	addi    r11,r9,1
 1803d34:	55 60 06 3e 	clrlwi  r0,r11,24
 1803d38:	55 29 06 3e 	clrlwi  r9,r9,24
 1803d3c:	28 00 00 fe 	cmplwi  r0,254
 1803d40:	7c e5 49 ae 	stbx    r7,r5,r9
 1803d44:	99 6c a3 f9 	stb     r11,-23559(r12)
 1803d48:	40 81 00 0c 	ble-    1803d54 <radio_control_task+0xec4>
 1803d4c:	38 00 00 00 	li      r0,0
 1803d50:	98 0c a3 f9 	stb     r0,-23559(r12)
 1803d54:	38 c0 00 59 	li      r6,89
 1803d58:	88 06 00 00 	lbz     r0,0(r6)
 1803d5c:	70 07 00 10 	andi.   r7,r0,16
 1803d60:	40 82 00 6c 	bne-    1803dcc <radio_control_task+0xf3c>
 1803d64:	3d 60 01 82 	lis     r11,386
 1803d68:	88 0b a3 fa 	lbz     r0,-23558(r11)
 1803d6c:	89 2b a3 fa 	lbz     r9,-23558(r11)
 1803d70:	7d 05 00 ae 	lbzx    r8,r5,r0
 1803d74:	39 29 00 01 	addi    r9,r9,1
 1803d78:	99 2b a3 fa 	stb     r9,-23558(r11)
 1803d7c:	88 0b a3 fa 	lbz     r0,-23558(r11)
 1803d80:	3d 40 01 82 	lis     r10,386
 1803d84:	28 00 00 fe 	cmplwi  r0,254
 1803d88:	3d 20 01 82 	lis     r9,386
 1803d8c:	99 0a a3 f8 	stb     r8,-23560(r10)
 1803d90:	98 e9 a3 fb 	stb     r7,-23557(r9)
 1803d94:	40 81 00 08 	ble-    1803d9c <radio_control_task+0xf0c>
 1803d98:	98 fa a3 fa 	stb     r7,-23558(r26)
 1803d9c:	39 20 00 58 	li      r9,88
 1803da0:	88 09 00 00 	lbz     r0,0(r9)
 1803da4:	60 00 00 01 	ori     r0,r0,1
 1803da8:	98 09 00 00 	stb     r0,0(r9)
 1803dac:	89 66 00 00 	lbz     r11,0(r6)
 1803db0:	61 6b 00 10 	ori     r11,r11,16
 1803db4:	99 66 00 00 	stb     r11,0(r6)
 1803db8:	48 00 00 14 	b       1803dcc <radio_control_task+0xf3c>
 1803dbc:	3d 60 01 82 	lis     r11,386
 1803dc0:	89 2b a3 f7 	lbz     r9,-23561(r11)
 1803dc4:	39 29 00 01 	addi    r9,r9,1
 1803dc8:	99 2b a3 f7 	stb     r9,-23561(r11)
 1803dcc:	3d 20 01 82 	lis     r9,386
 1803dd0:	88 09 a3 46 	lbz     r0,-23738(r9)
 1803dd4:	2c 00 00 02 	cmpwi   r0,2
 1803dd8:	40 82 00 20 	bne-    1803df8 <radio_control_task+0xf68>
 1803ddc:	3d 20 01 82 	lis     r9,386
 1803de0:	a8 09 a9 ca 	lha     r0,-22070(r9)
 1803de4:	2c 00 21 c0 	cmpwi   r0,8640
 1803de8:	40 81 00 10 	ble-    1803df8 <radio_control_task+0xf68>
 1803dec:	3d 20 01 82 	lis     r9,386
 1803df0:	38 00 00 01 	li      r0,1
 1803df4:	98 09 a3 4c 	stb     r0,-23732(r9)
 1803df8:	80 01 00 34 	lwz     r0,52(r1)
 1803dfc:	7c 08 03 a6 	mtlr    r0
 1803e00:	83 41 00 18 	lwz     r26,24(r1)
 1803e04:	83 61 00 1c 	lwz     r27,28(r1)
 1803e08:	83 81 00 20 	lwz     r28,32(r1)
 1803e0c:	83 a1 00 24 	lwz     r29,36(r1)
 1803e10:	83 c1 00 28 	lwz     r30,40(r1)
 1803e14:	83 e1 00 2c 	lwz     r31,44(r1)
 1803e18:	38 21 00 30 	addi    r1,r1,48
 1803e1c:	4e 80 00 20 	blr

01803e20 <navigation_update>:
 1803e20:	94 21 ff f0 	stwu    r1,-16(r1)
 1803e24:	7c 08 02 a6 	mflr    r0
 1803e28:	90 01 00 14 	stw     r0,20(r1)
 1803e2c:	3d 20 01 82 	lis     r9,386
 1803e30:	89 69 a3 46 	lbz     r11,-23738(r9)
 1803e34:	3d 40 01 82 	lis     r10,386
 1803e38:	2c 0b 00 03 	cmpwi   r11,3
 1803e3c:	38 00 00 03 	li      r0,3
 1803e40:	98 0a a3 48 	stb     r0,-23736(r10)
 1803e44:	40 82 00 0c 	bne-    1803e50 <navigation_update+0x30>
 1803e48:	48 00 3b 25 	bl      180796c <nav_home>
 1803e4c:	48 00 00 08 	b       1803e54 <navigation_update+0x34>
 1803e50:	48 00 3d 9d 	bl      1807bec <nav_update>
 1803e54:	80 01 00 14 	lwz     r0,20(r1)
 1803e58:	7c 08 03 a6 	mtlr    r0
 1803e5c:	38 21 00 10 	addi    r1,r1,16
 1803e60:	4e 80 00 20 	blr

01803e64 <send_nav_values>:
 1803e64:	94 21 ff e0 	stwu    r1,-32(r1)
 1803e68:	93 61 00 0c 	stw     r27,12(r1)
 1803e6c:	93 81 00 10 	stw     r28,16(r1)
 1803e70:	93 a1 00 14 	stw     r29,20(r1)
 1803e74:	93 c1 00 18 	stw     r30,24(r1)
 1803e78:	93 e1 00 1c 	stw     r31,28(r1)
 1803e7c:	3d 20 01 82 	lis     r9,386
 1803e80:	3d 60 01 82 	lis     r11,386
 1803e84:	89 29 a3 f9 	lbz     r9,-23559(r9)
 1803e88:	88 0b a3 fa 	lbz     r0,-23558(r11)
 1803e8c:	3c c0 01 82 	lis     r6,386
 1803e90:	7c 09 00 40 	cmplw   r9,r0
 1803e94:	3f 60 01 82 	lis     r27,386
 1803e98:	41 80 00 1c 	blt-    1803eb4 <send_nav_values+0x50>
 1803e9c:	88 1b a3 fa 	lbz     r0,-23558(r27)
 1803ea0:	7c 00 48 50 	subf    r0,r0,r9
 1803ea4:	20 00 00 ff 	subfic  r0,r0,255
 1803ea8:	2c 00 00 1e 	cmpwi   r0,30
 1803eac:	41 81 00 18 	bgt-    1803ec4 <send_nav_values+0x60>
 1803eb0:	48 00 07 9c 	b       180464c <send_nav_values+0x7e8>
 1803eb4:	88 1b a3 fa 	lbz     r0,-23558(r27)
 1803eb8:	7c 09 00 50 	subf    r0,r9,r0
 1803ebc:	2c 00 00 1e 	cmpwi   r0,30
 1803ec0:	40 81 07 8c 	ble-    180464c <send_nav_values+0x7e8>
 1803ec4:	3d 60 01 82 	lis     r11,386
 1803ec8:	89 2b a3 f9 	lbz     r9,-23559(r11)
 1803ecc:	3d 40 01 82 	lis     r10,386
 1803ed0:	39 09 00 01 	addi    r8,r9,1
 1803ed4:	55 00 06 3e 	clrlwi  r0,r8,24
 1803ed8:	28 00 00 fe 	cmplwi  r0,254
 1803edc:	38 6a a8 b4 	addi    r3,r10,-22348
 1803ee0:	55 29 06 3e 	clrlwi  r9,r9,24
 1803ee4:	38 00 00 05 	li      r0,5
 1803ee8:	7c 03 49 ae 	stbx    r0,r3,r9
 1803eec:	38 ab a3 f9 	addi    r5,r11,-23559
 1803ef0:	99 0b a3 f9 	stb     r8,-23559(r11)
 1803ef4:	40 81 00 0c 	ble-    1803f00 <send_nav_values+0x9c>
 1803ef8:	38 00 00 00 	li      r0,0
 1803efc:	98 06 a3 f9 	stb     r0,-23559(r6)
 1803f00:	89 26 a3 f9 	lbz     r9,-23559(r6)
 1803f04:	39 40 00 0a 	li      r10,10
 1803f08:	39 69 00 01 	addi    r11,r9,1
 1803f0c:	55 60 06 3e 	clrlwi  r0,r11,24
 1803f10:	55 29 06 3e 	clrlwi  r9,r9,24
 1803f14:	28 00 00 fe 	cmplwi  r0,254
 1803f18:	7d 43 49 ae 	stbx    r10,r3,r9
 1803f1c:	99 66 a3 f9 	stb     r11,-23559(r6)
 1803f20:	40 81 00 0c 	ble-    1803f2c <send_nav_values+0xc8>
 1803f24:	38 00 00 00 	li      r0,0
 1803f28:	98 06 a3 f9 	stb     r0,-23559(r6)
 1803f2c:	89 46 a3 f9 	lbz     r10,-23559(r6)
 1803f30:	3d 20 01 82 	lis     r9,386
 1803f34:	39 0a 00 01 	addi    r8,r10,1
 1803f38:	89 69 a4 88 	lbz     r11,-23416(r9)
 1803f3c:	55 00 06 3e 	clrlwi  r0,r8,24
 1803f40:	55 4a 06 3e 	clrlwi  r10,r10,24
 1803f44:	28 00 00 fe 	cmplwi  r0,254
 1803f48:	7d 63 51 ae 	stbx    r11,r3,r10
 1803f4c:	3f e0 01 82 	lis     r31,386
 1803f50:	3d 80 01 82 	lis     r12,386
 1803f54:	38 8b 00 14 	addi    r4,r11,20
 1803f58:	38 eb 00 0a 	addi    r7,r11,10
 1803f5c:	3b df a3 fc 	addi    r30,r31,-23556
 1803f60:	3b ac a3 f6 	addi    r29,r12,-23562
 1803f64:	98 ff a3 fc 	stb     r7,-23556(r31)
 1803f68:	98 8c a3 f6 	stb     r4,-23562(r12)
 1803f6c:	99 06 a3 f9 	stb     r8,-23559(r6)
 1803f70:	40 81 00 0c 	ble-    1803f7c <send_nav_values+0x118>
 1803f74:	38 00 00 00 	li      r0,0
 1803f78:	98 06 a3 f9 	stb     r0,-23559(r6)
 1803f7c:	89 66 a3 f9 	lbz     r11,-23559(r6)
 1803f80:	3d 20 01 82 	lis     r9,386
 1803f84:	39 0b 00 01 	addi    r8,r11,1
 1803f88:	89 49 a4 94 	lbz     r10,-23404(r9)
 1803f8c:	55 00 06 3e 	clrlwi  r0,r8,24
 1803f90:	7c e7 52 14 	add     r7,r7,r10
 1803f94:	55 6b 06 3e 	clrlwi  r11,r11,24
 1803f98:	28 00 00 fe 	cmplwi  r0,254
 1803f9c:	7d 43 59 ae 	stbx    r10,r3,r11
 1803fa0:	7c 84 3a 14 	add     r4,r4,r7
 1803fa4:	98 ff a3 fc 	stb     r7,-23556(r31)
 1803fa8:	98 8c a3 f6 	stb     r4,-23562(r12)
 1803fac:	99 06 a3 f9 	stb     r8,-23559(r6)
 1803fb0:	40 81 00 0c 	ble-    1803fbc <send_nav_values+0x158>
 1803fb4:	38 00 00 00 	li      r0,0
 1803fb8:	98 06 a3 f9 	stb     r0,-23559(r6)
 1803fbc:	89 66 a3 f9 	lbz     r11,-23559(r6)
 1803fc0:	3d 20 01 82 	lis     r9,386
 1803fc4:	39 0b 00 01 	addi    r8,r11,1
 1803fc8:	89 49 a4 e4 	lbz     r10,-23324(r9)
 1803fcc:	55 00 06 3e 	clrlwi  r0,r8,24
 1803fd0:	7c e7 52 14 	add     r7,r7,r10
 1803fd4:	55 6b 06 3e 	clrlwi  r11,r11,24
 1803fd8:	28 00 00 fe 	cmplwi  r0,254
 1803fdc:	7d 43 59 ae 	stbx    r10,r3,r11
 1803fe0:	7c 84 3a 14 	add     r4,r4,r7
 1803fe4:	3b 89 a4 e4 	addi    r28,r9,-23324
 1803fe8:	98 ff a3 fc 	stb     r7,-23556(r31)
 1803fec:	98 8c a3 f6 	stb     r4,-23562(r12)
 1803ff0:	99 06 a3 f9 	stb     r8,-23559(r6)
 1803ff4:	40 81 00 0c 	ble-    1804000 <send_nav_values+0x19c>
 1803ff8:	38 00 00 00 	li      r0,0
 1803ffc:	98 06 a3 f9 	stb     r0,-23559(r6)
 1804000:	89 26 a3 f9 	lbz     r9,-23559(r6)
 1804004:	89 7c 00 01 	lbz     r11,1(r28)
 1804008:	39 49 00 01 	addi    r10,r9,1
 180400c:	55 40 06 3e 	clrlwi  r0,r10,24
 1804010:	7d 07 5a 14 	add     r8,r7,r11
 1804014:	55 29 06 3e 	clrlwi  r9,r9,24
 1804018:	28 00 00 fe 	cmplwi  r0,254
 180401c:	7d 63 49 ae 	stbx    r11,r3,r9
 1804020:	7c e4 42 14 	add     r7,r4,r8
 1804024:	99 1f a3 fc 	stb     r8,-23556(r31)
 1804028:	98 ec a3 f6 	stb     r7,-23562(r12)
 180402c:	99 46 a3 f9 	stb     r10,-23559(r6)
 1804030:	40 81 00 0c 	ble-    180403c <send_nav_values+0x1d8>
 1804034:	38 00 00 00 	li      r0,0
 1804038:	98 06 a3 f9 	stb     r0,-23559(r6)
 180403c:	89 26 a3 f9 	lbz     r9,-23559(r6)
 1804040:	89 7c 00 02 	lbz     r11,2(r28)
 1804044:	39 49 00 01 	addi    r10,r9,1
 1804048:	55 40 06 3e 	clrlwi  r0,r10,24
 180404c:	7d 08 5a 14 	add     r8,r8,r11
 1804050:	55 29 06 3e 	clrlwi  r9,r9,24
 1804054:	28 00 00 fe 	cmplwi  r0,254
 1804058:	7d 63 49 ae 	stbx    r11,r3,r9
 180405c:	7c 87 42 14 	add     r4,r7,r8
 1804060:	99 1f a3 fc 	stb     r8,-23556(r31)
 1804064:	98 8c a3 f6 	stb     r4,-23562(r12)
 1804068:	99 46 a3 f9 	stb     r10,-23559(r6)
 180406c:	40 81 00 0c 	ble-    1804078 <send_nav_values+0x214>
 1804070:	38 00 00 00 	li      r0,0
 1804074:	98 06 a3 f9 	stb     r0,-23559(r6)
 1804078:	89 26 a3 f9 	lbz     r9,-23559(r6)
 180407c:	89 7c 00 03 	lbz     r11,3(r28)
 1804080:	39 49 00 01 	addi    r10,r9,1
 1804084:	55 40 06 3e 	clrlwi  r0,r10,24
 1804088:	7c e8 5a 14 	add     r7,r8,r11
 180408c:	55 29 06 3e 	clrlwi  r9,r9,24
 1804090:	28 00 00 fe 	cmplwi  r0,254
 1804094:	7d 63 49 ae 	stbx    r11,r3,r9
 1804098:	7c 84 3a 14 	add     r4,r4,r7
 180409c:	98 ff a3 fc 	stb     r7,-23556(r31)
 18040a0:	98 8c a3 f6 	stb     r4,-23562(r12)
 18040a4:	99 46 a3 f9 	stb     r10,-23559(r6)
 18040a8:	40 81 00 0c 	ble-    18040b4 <send_nav_values+0x250>
 18040ac:	38 00 00 00 	li      r0,0
 18040b0:	98 06 a3 f9 	stb     r0,-23559(r6)
 18040b4:	89 66 a3 f9 	lbz     r11,-23559(r6)
 18040b8:	3d 20 01 82 	lis     r9,386
 18040bc:	39 0b 00 01 	addi    r8,r11,1
 18040c0:	89 49 a4 f8 	lbz     r10,-23304(r9)
 18040c4:	55 00 06 3e 	clrlwi  r0,r8,24
 18040c8:	7c e7 52 14 	add     r7,r7,r10
 18040cc:	55 6b 06 3e 	clrlwi  r11,r11,24
 18040d0:	28 00 00 fe 	cmplwi  r0,254
 18040d4:	7d 43 59 ae 	stbx    r10,r3,r11
 18040d8:	7c 84 3a 14 	add     r4,r4,r7
 18040dc:	3b 89 a4 f8 	addi    r28,r9,-23304
 18040e0:	98 ff a3 fc 	stb     r7,-23556(r31)
 18040e4:	98 8c a3 f6 	stb     r4,-23562(r12)
 18040e8:	99 06 a3 f9 	stb     r8,-23559(r6)
 18040ec:	40 81 00 0c 	ble-    18040f8 <send_nav_values+0x294>
 18040f0:	38 00 00 00 	li      r0,0
 18040f4:	98 06 a3 f9 	stb     r0,-23559(r6)
 18040f8:	89 26 a3 f9 	lbz     r9,-23559(r6)
 18040fc:	89 7c 00 01 	lbz     r11,1(r28)
 1804100:	39 49 00 01 	addi    r10,r9,1
 1804104:	55 40 06 3e 	clrlwi  r0,r10,24
 1804108:	7d 07 5a 14 	add     r8,r7,r11
 180410c:	55 29 06 3e 	clrlwi  r9,r9,24
 1804110:	28 00 00 fe 	cmplwi  r0,254
 1804114:	7d 63 49 ae 	stbx    r11,r3,r9
 1804118:	7c e4 42 14 	add     r7,r4,r8
 180411c:	99 1f a3 fc 	stb     r8,-23556(r31)
 1804120:	98 ec a3 f6 	stb     r7,-23562(r12)
 1804124:	99 46 a3 f9 	stb     r10,-23559(r6)
 1804128:	40 81 00 0c 	ble-    1804134 <send_nav_values+0x2d0>
 180412c:	38 00 00 00 	li      r0,0
 1804130:	98 06 a3 f9 	stb     r0,-23559(r6)
 1804134:	89 25 00 00 	lbz     r9,0(r5)
 1804138:	89 7c 00 02 	lbz     r11,2(r28)
 180413c:	39 49 00 01 	addi    r10,r9,1
 1804140:	7c c8 5a 14 	add     r6,r8,r11
 1804144:	55 40 06 3e 	clrlwi  r0,r10,24
 1804148:	55 29 06 3e 	clrlwi  r9,r9,24
 180414c:	7d 63 49 ae 	stbx    r11,r3,r9
 1804150:	7c 87 32 14 	add     r4,r7,r6
 1804154:	28 00 00 fe 	cmplwi  r0,254
 1804158:	98 df a3 fc 	stb     r6,-23556(r31)
 180415c:	98 8c a3 f6 	stb     r4,-23562(r12)
 1804160:	99 45 00 00 	stb     r10,0(r5)
 1804164:	40 81 00 0c 	ble-    1804170 <send_nav_values+0x30c>
 1804168:	38 00 00 00 	li      r0,0
 180416c:	98 05 00 00 	stb     r0,0(r5)
 1804170:	89 1c 00 03 	lbz     r8,3(r28)
 1804174:	89 25 00 00 	lbz     r9,0(r5)
 1804178:	7d 46 42 14 	add     r10,r6,r8
 180417c:	38 e9 00 01 	addi    r7,r9,1
 1804180:	7d 64 52 14 	add     r11,r4,r10
 1804184:	99 6c a3 f6 	stb     r11,-23562(r12)
 1804188:	54 e0 06 3e 	clrlwi  r0,r7,24
 180418c:	55 29 06 3e 	clrlwi  r9,r9,24
 1804190:	7d 03 49 ae 	stbx    r8,r3,r9
 1804194:	28 00 00 fe 	cmplwi  r0,254
 1804198:	99 5f a3 fc 	stb     r10,-23556(r31)
 180419c:	98 e5 00 00 	stb     r7,0(r5)
 18041a0:	40 81 00 0c 	ble-    18041ac <send_nav_values+0x348>
 18041a4:	38 00 00 00 	li      r0,0
 18041a8:	98 05 00 00 	stb     r0,0(r5)
 18041ac:	89 65 00 00 	lbz     r11,0(r5)
 18041b0:	3d 20 01 82 	lis     r9,386
 18041b4:	89 09 a3 94 	lbz     r8,-23660(r9)
 18041b8:	88 1e 00 00 	lbz     r0,0(r30)
 18041bc:	3b e9 a3 94 	addi    r31,r9,-23660
 18041c0:	89 3d 00 00 	lbz     r9,0(r29)
 18041c4:	38 eb 00 01 	addi    r7,r11,1
 18041c8:	7c c0 42 14 	add     r6,r0,r8
 18041cc:	54 ea 06 3e 	clrlwi  r10,r7,24
 18041d0:	55 6b 06 3e 	clrlwi  r11,r11,24
 18041d4:	7d 03 59 ae 	stbx    r8,r3,r11
 18041d8:	7c 89 32 14 	add     r4,r9,r6
 18041dc:	28 0a 00 fe 	cmplwi  r10,254
 18041e0:	98 de 00 00 	stb     r6,0(r30)
 18041e4:	98 9d 00 00 	stb     r4,0(r29)
 18041e8:	98 e5 00 00 	stb     r7,0(r5)
 18041ec:	40 81 00 0c 	ble-    18041f8 <send_nav_values+0x394>
 18041f0:	38 00 00 00 	li      r0,0
 18041f4:	98 05 00 00 	stb     r0,0(r5)
 18041f8:	89 25 00 00 	lbz     r9,0(r5)
 18041fc:	89 7f 00 01 	lbz     r11,1(r31)
 1804200:	39 49 00 01 	addi    r10,r9,1
 1804204:	7d 06 5a 14 	add     r8,r6,r11
 1804208:	55 40 06 3e 	clrlwi  r0,r10,24
 180420c:	55 29 06 3e 	clrlwi  r9,r9,24
 1804210:	7d 63 49 ae 	stbx    r11,r3,r9
 1804214:	7c e4 42 14 	add     r7,r4,r8
 1804218:	28 00 00 fe 	cmplwi  r0,254
 180421c:	99 1e 00 00 	stb     r8,0(r30)
 1804220:	98 fd 00 00 	stb     r7,0(r29)
 1804224:	99 45 00 00 	stb     r10,0(r5)
 1804228:	40 81 00 0c 	ble-    1804234 <send_nav_values+0x3d0>
 180422c:	38 00 00 00 	li      r0,0
 1804230:	98 05 00 00 	stb     r0,0(r5)
 1804234:	89 25 00 00 	lbz     r9,0(r5)
 1804238:	89 7f 00 02 	lbz     r11,2(r31)
 180423c:	39 49 00 01 	addi    r10,r9,1
 1804240:	7d 08 5a 14 	add     r8,r8,r11
 1804244:	55 40 06 3e 	clrlwi  r0,r10,24
 1804248:	55 29 06 3e 	clrlwi  r9,r9,24
 180424c:	7d 63 49 ae 	stbx    r11,r3,r9
 1804250:	7c c7 42 14 	add     r6,r7,r8
 1804254:	28 00 00 fe 	cmplwi  r0,254
 1804258:	99 1e 00 00 	stb     r8,0(r30)
 180425c:	98 dd 00 00 	stb     r6,0(r29)
 1804260:	99 45 00 00 	stb     r10,0(r5)
 1804264:	40 81 00 0c 	ble-    1804270 <send_nav_values+0x40c>
 1804268:	38 00 00 00 	li      r0,0
 180426c:	98 05 00 00 	stb     r0,0(r5)
 1804270:	89 25 00 00 	lbz     r9,0(r5)
 1804274:	89 7f 00 03 	lbz     r11,3(r31)
 1804278:	39 49 00 01 	addi    r10,r9,1
 180427c:	7c e8 5a 14 	add     r7,r8,r11
 1804280:	55 40 06 3e 	clrlwi  r0,r10,24
 1804284:	55 29 06 3e 	clrlwi  r9,r9,24
 1804288:	7d 63 49 ae 	stbx    r11,r3,r9
 180428c:	7c c6 3a 14 	add     r6,r6,r7
 1804290:	28 00 00 fe 	cmplwi  r0,254
 1804294:	98 fe 00 00 	stb     r7,0(r30)
 1804298:	98 dd 00 00 	stb     r6,0(r29)
 180429c:	99 45 00 00 	stb     r10,0(r5)
 18042a0:	40 81 00 0c 	ble-    18042ac <send_nav_values+0x448>
 18042a4:	38 00 00 00 	li      r0,0
 18042a8:	98 05 00 00 	stb     r0,0(r5)
 18042ac:	89 65 00 00 	lbz     r11,0(r5)
 18042b0:	3d 20 01 82 	lis     r9,386
 18042b4:	89 49 a4 70 	lbz     r10,-23440(r9)
 18042b8:	39 0b 00 01 	addi    r8,r11,1
 18042bc:	7c e7 52 14 	add     r7,r7,r10
 18042c0:	55 00 06 3e 	clrlwi  r0,r8,24
 18042c4:	55 6b 06 3e 	clrlwi  r11,r11,24
 18042c8:	7d 43 59 ae 	stbx    r10,r3,r11
 18042cc:	7c c6 3a 14 	add     r6,r6,r7
 18042d0:	28 00 00 fe 	cmplwi  r0,254
 18042d4:	98 fe 00 00 	stb     r7,0(r30)
 18042d8:	98 dd 00 00 	stb     r6,0(r29)
 18042dc:	38 89 a4 70 	addi    r4,r9,-23440
 18042e0:	99 05 00 00 	stb     r8,0(r5)
 18042e4:	40 81 00 0c 	ble-    18042f0 <send_nav_values+0x48c>
 18042e8:	38 00 00 00 	li      r0,0
 18042ec:	98 05 00 00 	stb     r0,0(r5)
 18042f0:	89 25 00 00 	lbz     r9,0(r5)
 18042f4:	89 64 00 01 	lbz     r11,1(r4)
 18042f8:	39 49 00 01 	addi    r10,r9,1
 18042fc:	7d 07 5a 14 	add     r8,r7,r11
 1804300:	55 40 06 3e 	clrlwi  r0,r10,24
 1804304:	55 29 06 3e 	clrlwi  r9,r9,24
 1804308:	7d 63 49 ae 	stbx    r11,r3,r9
 180430c:	7c e6 42 14 	add     r7,r6,r8
 1804310:	28 00 00 fe 	cmplwi  r0,254
 1804314:	99 1e 00 00 	stb     r8,0(r30)
 1804318:	98 fd 00 00 	stb     r7,0(r29)
 180431c:	99 45 00 00 	stb     r10,0(r5)
 1804320:	40 81 00 0c 	ble-    180432c <send_nav_values+0x4c8>
 1804324:	38 00 00 00 	li      r0,0
 1804328:	98 05 00 00 	stb     r0,0(r5)
 180432c:	89 25 00 00 	lbz     r9,0(r5)
 1804330:	89 64 00 02 	lbz     r11,2(r4)
 1804334:	39 49 00 01 	addi    r10,r9,1
 1804338:	7d 08 5a 14 	add     r8,r8,r11
 180433c:	55 40 06 3e 	clrlwi  r0,r10,24
 1804340:	55 29 06 3e 	clrlwi  r9,r9,24
 1804344:	7d 63 49 ae 	stbx    r11,r3,r9
 1804348:	7c c7 42 14 	add     r6,r7,r8
 180434c:	28 00 00 fe 	cmplwi  r0,254
 1804350:	99 1e 00 00 	stb     r8,0(r30)
 1804354:	98 dd 00 00 	stb     r6,0(r29)
 1804358:	99 45 00 00 	stb     r10,0(r5)
 180435c:	40 81 00 0c 	ble-    1804368 <send_nav_values+0x504>
 1804360:	38 00 00 00 	li      r0,0
 1804364:	98 05 00 00 	stb     r0,0(r5)
 1804368:	89 25 00 00 	lbz     r9,0(r5)
 180436c:	89 64 00 03 	lbz     r11,3(r4)
 1804370:	39 49 00 01 	addi    r10,r9,1
 1804374:	7c e8 5a 14 	add     r7,r8,r11
 1804378:	55 40 06 3e 	clrlwi  r0,r10,24
 180437c:	55 29 06 3e 	clrlwi  r9,r9,24
 1804380:	7d 63 49 ae 	stbx    r11,r3,r9
 1804384:	7c c6 3a 14 	add     r6,r6,r7
 1804388:	28 00 00 fe 	cmplwi  r0,254
 180438c:	98 fe 00 00 	stb     r7,0(r30)
 1804390:	98 dd 00 00 	stb     r6,0(r29)
 1804394:	99 45 00 00 	stb     r10,0(r5)
 1804398:	40 81 00 0c 	ble-    18043a4 <send_nav_values+0x540>
 180439c:	38 00 00 00 	li      r0,0
 18043a0:	98 05 00 00 	stb     r0,0(r5)
 18043a4:	89 65 00 00 	lbz     r11,0(r5)
 18043a8:	3d 20 01 82 	lis     r9,386
 18043ac:	89 49 a3 90 	lbz     r10,-23664(r9)
 18043b0:	39 0b 00 01 	addi    r8,r11,1
 18043b4:	7c e7 52 14 	add     r7,r7,r10
 18043b8:	55 00 06 3e 	clrlwi  r0,r8,24
 18043bc:	55 6b 06 3e 	clrlwi  r11,r11,24
 18043c0:	7d 43 59 ae 	stbx    r10,r3,r11
 18043c4:	7c c6 3a 14 	add     r6,r6,r7
 18043c8:	28 00 00 fe 	cmplwi  r0,254
 18043cc:	98 fe 00 00 	stb     r7,0(r30)
 18043d0:	98 dd 00 00 	stb     r6,0(r29)
 18043d4:	38 89 a3 90 	addi    r4,r9,-23664
 18043d8:	99 05 00 00 	stb     r8,0(r5)
 18043dc:	40 81 00 0c 	ble-    18043e8 <send_nav_values+0x584>
 18043e0:	38 00 00 00 	li      r0,0
 18043e4:	98 05 00 00 	stb     r0,0(r5)
 18043e8:	89 25 00 00 	lbz     r9,0(r5)
 18043ec:	89 64 00 01 	lbz     r11,1(r4)
 18043f0:	39 49 00 01 	addi    r10,r9,1
 18043f4:	7d 07 5a 14 	add     r8,r7,r11
 18043f8:	55 40 06 3e 	clrlwi  r0,r10,24
 18043fc:	55 29 06 3e 	clrlwi  r9,r9,24
 1804400:	7d 63 49 ae 	stbx    r11,r3,r9
 1804404:	7c e6 42 14 	add     r7,r6,r8
 1804408:	28 00 00 fe 	cmplwi  r0,254
 180440c:	99 1e 00 00 	stb     r8,0(r30)
 1804410:	98 fd 00 00 	stb     r7,0(r29)
 1804414:	99 45 00 00 	stb     r10,0(r5)
 1804418:	40 81 00 0c 	ble-    1804424 <send_nav_values+0x5c0>
 180441c:	38 00 00 00 	li      r0,0
 1804420:	98 05 00 00 	stb     r0,0(r5)
 1804424:	89 25 00 00 	lbz     r9,0(r5)
 1804428:	89 64 00 02 	lbz     r11,2(r4)
 180442c:	39 49 00 01 	addi    r10,r9,1
 1804430:	7d 08 5a 14 	add     r8,r8,r11
 1804434:	55 40 06 3e 	clrlwi  r0,r10,24
 1804438:	55 29 06 3e 	clrlwi  r9,r9,24
 180443c:	7d 63 49 ae 	stbx    r11,r3,r9
 1804440:	7c c7 42 14 	add     r6,r7,r8
 1804444:	28 00 00 fe 	cmplwi  r0,254
 1804448:	99 1e 00 00 	stb     r8,0(r30)
 180444c:	98 dd 00 00 	stb     r6,0(r29)
 1804450:	99 45 00 00 	stb     r10,0(r5)
 1804454:	40 81 00 0c 	ble-    1804460 <send_nav_values+0x5fc>
 1804458:	38 00 00 00 	li      r0,0
 180445c:	98 05 00 00 	stb     r0,0(r5)
 1804460:	89 25 00 00 	lbz     r9,0(r5)
 1804464:	89 64 00 03 	lbz     r11,3(r4)
 1804468:	39 49 00 01 	addi    r10,r9,1
 180446c:	7c e8 5a 14 	add     r7,r8,r11
 1804470:	55 40 06 3e 	clrlwi  r0,r10,24
 1804474:	55 29 06 3e 	clrlwi  r9,r9,24
 1804478:	7d 63 49 ae 	stbx    r11,r3,r9
 180447c:	7c c6 3a 14 	add     r6,r6,r7
 1804480:	28 00 00 fe 	cmplwi  r0,254
 1804484:	98 fe 00 00 	stb     r7,0(r30)
 1804488:	98 dd 00 00 	stb     r6,0(r29)
 180448c:	99 45 00 00 	stb     r10,0(r5)
 1804490:	40 81 00 0c 	ble-    180449c <send_nav_values+0x638>
 1804494:	38 00 00 00 	li      r0,0
 1804498:	98 05 00 00 	stb     r0,0(r5)
 180449c:	89 65 00 00 	lbz     r11,0(r5)
 18044a0:	3d 20 01 82 	lis     r9,386
 18044a4:	89 49 a4 90 	lbz     r10,-23408(r9)
 18044a8:	39 0b 00 01 	addi    r8,r11,1
 18044ac:	7c e7 52 14 	add     r7,r7,r10
 18044b0:	55 00 06 3e 	clrlwi  r0,r8,24
 18044b4:	55 6b 06 3e 	clrlwi  r11,r11,24
 18044b8:	7d 43 59 ae 	stbx    r10,r3,r11
 18044bc:	7c c6 3a 14 	add     r6,r6,r7
 18044c0:	28 00 00 fe 	cmplwi  r0,254
 18044c4:	98 fe 00 00 	stb     r7,0(r30)
 18044c8:	98 dd 00 00 	stb     r6,0(r29)
 18044cc:	38 89 a4 90 	addi    r4,r9,-23408
 18044d0:	99 05 00 00 	stb     r8,0(r5)
 18044d4:	40 81 00 0c 	ble-    18044e0 <send_nav_values+0x67c>
 18044d8:	38 00 00 00 	li      r0,0
 18044dc:	98 05 00 00 	stb     r0,0(r5)
 18044e0:	89 25 00 00 	lbz     r9,0(r5)
 18044e4:	89 64 00 01 	lbz     r11,1(r4)
 18044e8:	39 49 00 01 	addi    r10,r9,1
 18044ec:	7d 07 5a 14 	add     r8,r7,r11
 18044f0:	55 40 06 3e 	clrlwi  r0,r10,24
 18044f4:	55 29 06 3e 	clrlwi  r9,r9,24
 18044f8:	7d 63 49 ae 	stbx    r11,r3,r9
 18044fc:	7c e6 42 14 	add     r7,r6,r8
 1804500:	28 00 00 fe 	cmplwi  r0,254
 1804504:	99 1e 00 00 	stb     r8,0(r30)
 1804508:	98 fd 00 00 	stb     r7,0(r29)
 180450c:	99 45 00 00 	stb     r10,0(r5)
 1804510:	40 81 00 0c 	ble-    180451c <send_nav_values+0x6b8>
 1804514:	38 00 00 00 	li      r0,0
 1804518:	98 05 00 00 	stb     r0,0(r5)
 180451c:	89 25 00 00 	lbz     r9,0(r5)
 1804520:	89 64 00 02 	lbz     r11,2(r4)
 1804524:	39 49 00 01 	addi    r10,r9,1
 1804528:	7d 08 5a 14 	add     r8,r8,r11
 180452c:	55 40 06 3e 	clrlwi  r0,r10,24
 1804530:	55 29 06 3e 	clrlwi  r9,r9,24
 1804534:	7d 63 49 ae 	stbx    r11,r3,r9
 1804538:	7c e7 42 14 	add     r7,r7,r8
 180453c:	28 00 00 fe 	cmplwi  r0,254
 1804540:	99 1e 00 00 	stb     r8,0(r30)
 1804544:	98 fd 00 00 	stb     r7,0(r29)
 1804548:	99 45 00 00 	stb     r10,0(r5)
 180454c:	40 81 00 0c 	ble-    1804558 <send_nav_values+0x6f4>
 1804550:	38 00 00 00 	li      r0,0
 1804554:	98 05 00 00 	stb     r0,0(r5)
 1804558:	89 25 00 00 	lbz     r9,0(r5)
 180455c:	89 64 00 03 	lbz     r11,3(r4)
 1804560:	39 49 00 01 	addi    r10,r9,1
 1804564:	7d 08 5a 14 	add     r8,r8,r11
 1804568:	55 40 06 3e 	clrlwi  r0,r10,24
 180456c:	55 29 06 3e 	clrlwi  r9,r9,24
 1804570:	7d 63 49 ae 	stbx    r11,r3,r9
 1804574:	7c e7 42 14 	add     r7,r7,r8
 1804578:	28 00 00 fe 	cmplwi  r0,254
 180457c:	99 1e 00 00 	stb     r8,0(r30)
 1804580:	98 fd 00 00 	stb     r7,0(r29)
 1804584:	99 45 00 00 	stb     r10,0(r5)
 1804588:	40 81 00 0c 	ble-    1804594 <send_nav_values+0x730>
 180458c:	38 00 00 00 	li      r0,0
 1804590:	98 05 00 00 	stb     r0,0(r5)
 1804594:	89 25 00 00 	lbz     r9,0(r5)
 1804598:	39 69 00 01 	addi    r11,r9,1
 180459c:	55 60 06 3e 	clrlwi  r0,r11,24
 18045a0:	55 29 06 3e 	clrlwi  r9,r9,24
 18045a4:	28 00 00 fe 	cmplwi  r0,254
 18045a8:	7d 03 49 ae 	stbx    r8,r3,r9
 18045ac:	99 65 00 00 	stb     r11,0(r5)
 18045b0:	40 81 00 0c 	ble-    18045bc <send_nav_values+0x758>
 18045b4:	38 00 00 00 	li      r0,0
 18045b8:	98 05 00 00 	stb     r0,0(r5)
 18045bc:	89 25 00 00 	lbz     r9,0(r5)
 18045c0:	39 69 00 01 	addi    r11,r9,1
 18045c4:	55 60 06 3e 	clrlwi  r0,r11,24
 18045c8:	55 29 06 3e 	clrlwi  r9,r9,24
 18045cc:	28 00 00 fe 	cmplwi  r0,254
 18045d0:	7c e3 49 ae 	stbx    r7,r3,r9
 18045d4:	99 65 00 00 	stb     r11,0(r5)
 18045d8:	40 81 00 0c 	ble-    18045e4 <send_nav_values+0x780>
 18045dc:	38 00 00 00 	li      r0,0
 18045e0:	98 05 00 00 	stb     r0,0(r5)
 18045e4:	38 c0 00 59 	li      r6,89
 18045e8:	88 06 00 00 	lbz     r0,0(r6)
 18045ec:	70 07 00 10 	andi.   r7,r0,16
 18045f0:	40 82 00 6c 	bne-    180465c <send_nav_values+0x7f8>
 18045f4:	3d 60 01 82 	lis     r11,386
 18045f8:	88 0b a3 fa 	lbz     r0,-23558(r11)
 18045fc:	89 2b a3 fa 	lbz     r9,-23558(r11)
 1804600:	7d 03 00 ae 	lbzx    r8,r3,r0
 1804604:	39 29 00 01 	addi    r9,r9,1
 1804608:	99 2b a3 fa 	stb     r9,-23558(r11)
 180460c:	88 0b a3 fa 	lbz     r0,-23558(r11)
 1804610:	3d 40 01 82 	lis     r10,386
 1804614:	28 00 00 fe 	cmplwi  r0,254
 1804618:	3d 20 01 82 	lis     r9,386
 180461c:	99 0a a3 f8 	stb     r8,-23560(r10)
 1804620:	98 e9 a3 fb 	stb     r7,-23557(r9)
 1804624:	40 81 00 08 	ble-    180462c <send_nav_values+0x7c8>
 1804628:	98 fb a3 fa 	stb     r7,-23558(r27)
 180462c:	39 20 00 58 	li      r9,88
 1804630:	88 09 00 00 	lbz     r0,0(r9)
 1804634:	60 00 00 01 	ori     r0,r0,1
 1804638:	98 09 00 00 	stb     r0,0(r9)
 180463c:	89 66 00 00 	lbz     r11,0(r6)
 1804640:	61 6b 00 10 	ori     r11,r11,16
 1804644:	99 66 00 00 	stb     r11,0(r6)
 1804648:	48 00 00 14 	b       180465c <send_nav_values+0x7f8>
 180464c:	3d 60 01 82 	lis     r11,386
 1804650:	89 2b a3 f7 	lbz     r9,-23561(r11)
 1804654:	39 29 00 01 	addi    r9,r9,1
 1804658:	99 2b a3 f7 	stb     r9,-23561(r11)
 180465c:	83 61 00 0c 	lwz     r27,12(r1)
 1804660:	83 81 00 10 	lwz     r28,16(r1)
 1804664:	83 a1 00 14 	lwz     r29,20(r1)
 1804668:	83 c1 00 18 	lwz     r30,24(r1)
 180466c:	83 e1 00 1c 	lwz     r31,28(r1)
 1804670:	38 21 00 20 	addi    r1,r1,32
 1804674:	4e 80 00 20 	blr

01804678 <course_run>:
 1804678:	94 21 ff f0 	stwu    r1,-16(r1)
 180467c:	7c 08 02 a6 	mflr    r0
 1804680:	90 01 00 14 	stw     r0,20(r1)
 1804684:	3d 60 01 82 	lis     r11,386
 1804688:	89 2b a3 46 	lbz     r9,-23738(r11)
 180468c:	39 29 ff fe 	addi    r9,r9,-2
 1804690:	28 09 00 01 	cmplwi  r9,1
 1804694:	41 81 00 28 	bgt-    18046bc <course_run+0x44>
 1804698:	3d 20 01 82 	lis     r9,386
 180469c:	88 09 a3 48 	lbz     r0,-23736(r9)
 18046a0:	28 00 00 02 	cmplwi  r0,2
 18046a4:	40 81 00 08 	ble-    18046ac <course_run+0x34>
 18046a8:	48 00 2c 39 	bl      18072e0 <course_pid_run>
 18046ac:	3d 20 01 82 	lis     r9,386
 18046b0:	c0 09 a4 84 	lfs     f0,-23420(r9)
 18046b4:	3d 60 01 82 	lis     r11,386
 18046b8:	d0 0b a3 74 	stfs    f0,-23692(r11)
 18046bc:	80 01 00 14 	lwz     r0,20(r1)
 18046c0:	7c 08 03 a6 	mtlr    r0
 18046c4:	38 21 00 10 	addi    r1,r1,16
 18046c8:	4e 80 00 20 	blr

018046cc <altitude_control_task>:
 18046cc:	94 21 ff f0 	stwu    r1,-16(r1)
 18046d0:	7c 08 02 a6 	mflr    r0
 18046d4:	90 01 00 14 	stw     r0,20(r1)
 18046d8:	3d 60 01 82 	lis     r11,386
 18046dc:	89 2b a3 46 	lbz     r9,-23738(r11)
 18046e0:	39 29 ff fe 	addi    r9,r9,-2
 18046e4:	28 09 00 01 	cmplwi  r9,1
 18046e8:	41 81 00 18 	bgt-    1804700 <altitude_control_task+0x34>
 18046ec:	3d 20 01 82 	lis     r9,386
 18046f0:	88 09 a3 47 	lbz     r0,-23737(r9)
 18046f4:	2c 00 00 03 	cmpwi   r0,3
 18046f8:	40 82 00 08 	bne-    1804700 <altitude_control_task+0x34>
 18046fc:	48 00 2e a5 	bl      18075a0 <altitude_pid_run>
 1804700:	80 01 00 14 	lwz     r0,20(r1)
 1804704:	7c 08 03 a6 	mtlr    r0
 1804708:	38 21 00 10 	addi    r1,r1,16
 180470c:	4e 80 00 20 	blr

01804710 <climb_control_task>:
 1804710:	94 21 ff f0 	stwu    r1,-16(r1)
 1804714:	7c 08 02 a6 	mflr    r0
 1804718:	93 e1 00 0c 	stw     r31,12(r1)
 180471c:	90 01 00 14 	stw     r0,20(r1)
 1804720:	3d 60 01 82 	lis     r11,386
 1804724:	89 2b a3 46 	lbz     r9,-23738(r11)
 1804728:	39 29 ff fe 	addi    r9,r9,-2
 180472c:	28 09 00 01 	cmplwi  r9,1
 1804730:	41 81 00 70 	bgt-    18047a0 <climb_control_task+0x90>
 1804734:	3f e0 01 82 	lis     r31,386
 1804738:	88 1f a3 47 	lbz     r0,-23737(r31)
 180473c:	28 00 00 01 	cmplwi  r0,1
 1804740:	40 81 00 08 	ble-    1804748 <climb_control_task+0x38>
 1804744:	48 00 2c 55 	bl      1807398 <climb_pid_run>
 1804748:	88 1f a3 47 	lbz     r0,-23737(r31)
 180474c:	2c 00 00 01 	cmpwi   r0,1
 1804750:	40 82 00 14 	bne-    1804764 <climb_control_task+0x54>
 1804754:	3d 20 01 82 	lis     r9,386
 1804758:	a0 09 a4 80 	lhz     r0,-23424(r9)
 180475c:	3d 60 01 82 	lis     r11,386
 1804760:	b0 0b a4 44 	sth     r0,-23484(r11)
 1804764:	3d 20 01 82 	lis     r9,386
 1804768:	88 09 a3 4b 	lbz     r0,-23733(r9)
 180476c:	2c 00 00 00 	cmpwi   r0,0
 1804770:	40 82 00 24 	bne-    1804794 <climb_control_task+0x84>
 1804774:	3d 20 01 82 	lis     r9,386
 1804778:	a0 09 a4 b4 	lhz     r0,-23372(r9)
 180477c:	2c 00 00 00 	cmpwi   r0,0
 1804780:	40 82 00 20 	bne-    18047a0 <climb_control_task+0x90>
 1804784:	3d 20 01 82 	lis     r9,386
 1804788:	88 09 a3 4c 	lbz     r0,-23732(r9)
 180478c:	2c 00 00 00 	cmpwi   r0,0
 1804790:	40 82 00 10 	bne-    18047a0 <climb_control_task+0x90>
 1804794:	3d 20 01 82 	lis     r9,386
 1804798:	38 00 00 00 	li      r0,0
 180479c:	b0 09 a4 44 	sth     r0,-23484(r9)
 18047a0:	80 01 00 14 	lwz     r0,20(r1)
 18047a4:	7c 08 03 a6 	mtlr    r0
 18047a8:	83 e1 00 0c 	lwz     r31,12(r1)
 18047ac:	38 21 00 10 	addi    r1,r1,16
 18047b0:	4e 80 00 20 	blr

018047b4 <periodic_task>:
 18047b4:	94 21 ff d0 	stwu    r1,-48(r1)
 18047b8:	7c 08 02 a6 	mflr    r0
 18047bc:	93 a1 00 24 	stw     r29,36(r1)
 18047c0:	93 c1 00 28 	stw     r30,40(r1)
 18047c4:	93 e1 00 2c 	stw     r31,44(r1)
 18047c8:	90 01 00 34 	stw     r0,52(r1)
 18047cc:	3d 40 01 82 	lis     r10,386
 18047d0:	c0 0a a4 c4 	lfs     f0,-23356(r10)
 18047d4:	3d 20 01 81 	lis     r9,385
 18047d8:	c9 a9 9f 20 	lfd     f13,-24800(r9)
 18047dc:	3d 60 01 82 	lis     r11,386
 18047e0:	89 2b a3 54 	lbz     r9,-23724(r11)
 18047e4:	39 29 00 01 	addi    r9,r9,1
 18047e8:	fc 00 68 2a 	fadd    f0,f0,f13
 18047ec:	55 20 06 3e 	clrlwi  r0,r9,24
 18047f0:	28 00 00 02 	cmplwi  r0,2
 18047f4:	99 2b a3 54 	stb     r9,-23724(r11)
 18047f8:	fc 00 00 18 	frsp    f0,f0
 18047fc:	d0 0a a4 c4 	stfs    f0,-23356(r10)
 1804800:	40 81 00 10 	ble-    1804810 <periodic_task+0x5c>
 1804804:	38 00 00 00 	li      r0,0
 1804808:	3d 20 01 82 	lis     r9,386
 180480c:	98 09 a3 54 	stb     r0,-23724(r9)
 1804810:	3d 00 01 82 	lis     r8,386
 1804814:	89 28 a3 55 	lbz     r9,-23723(r8)
 1804818:	39 29 00 01 	addi    r9,r9,1
 180481c:	55 20 06 3e 	clrlwi  r0,r9,24
 1804820:	28 00 00 05 	cmplwi  r0,5
 1804824:	99 28 a3 55 	stb     r9,-23723(r8)
 1804828:	40 81 00 0c 	ble-    1804834 <periodic_task+0x80>
 180482c:	38 00 00 00 	li      r0,0
 1804830:	98 08 a3 55 	stb     r0,-23723(r8)
 1804834:	3d 20 01 82 	lis     r9,386
 1804838:	89 69 a3 56 	lbz     r11,-23722(r9)
 180483c:	39 6b 00 01 	addi    r11,r11,1
 1804840:	55 60 06 3e 	clrlwi  r0,r11,24
 1804844:	28 00 00 0e 	cmplwi  r0,14
 1804848:	99 69 a3 56 	stb     r11,-23722(r9)
 180484c:	40 81 00 0c 	ble-    1804858 <periodic_task+0xa4>
 1804850:	38 00 00 00 	li      r0,0
 1804854:	98 09 a3 56 	stb     r0,-23722(r9)
 1804858:	3d 40 01 82 	lis     r10,386
 180485c:	89 2a a3 57 	lbz     r9,-23721(r10)
 1804860:	39 29 00 01 	addi    r9,r9,1
 1804864:	55 20 06 3e 	clrlwi  r0,r9,24
 1804868:	28 00 00 3c 	cmplwi  r0,60
 180486c:	99 2a a3 57 	stb     r9,-23721(r10)
 1804870:	40 81 00 0c 	ble-    180487c <periodic_task+0xc8>
 1804874:	38 00 00 00 	li      r0,0
 1804878:	98 0a a3 57 	stb     r0,-23721(r10)
 180487c:	88 08 a3 55 	lbz     r0,-23723(r8)
 1804880:	2c 00 00 00 	cmpwi   r0,0
 1804884:	40 82 00 20 	bne-    18048a4 <periodic_task+0xf0>
 1804888:	3d 60 01 82 	lis     r11,386
 180488c:	c0 0b a4 78 	lfs     f0,-23432(r11)
 1804890:	3d 20 01 81 	lis     r9,385
 1804894:	c9 a9 9f 28 	lfd     f13,-24792(r9)
 1804898:	fc 00 68 2a 	fadd    f0,f0,f13
 180489c:	fc 00 00 18 	frsp    f0,f0
 18048a0:	d0 0b a4 78 	stfs    f0,-23432(r11)
 18048a4:	89 8a a3 57 	lbz     r12,-23721(r10)
 18048a8:	2c 0c 00 00 	cmpwi   r12,0
 18048ac:	40 82 00 f4 	bne-    18049a0 <periodic_task+0x1ec>
 18048b0:	3d 60 01 82 	lis     r11,386
 18048b4:	a1 2b a4 b4 	lhz     r9,-23372(r11)
 18048b8:	2c 09 00 00 	cmpwi   r9,0
 18048bc:	41 82 00 0c 	beq-    18048c8 <periodic_task+0x114>
 18048c0:	38 09 00 01 	addi    r0,r9,1
 18048c4:	b0 0b a4 b4 	sth     r0,-23372(r11)
 18048c8:	3f a0 01 82 	lis     r29,386
 18048cc:	c0 1d a4 78 	lfs     f0,-23432(r29)
 18048d0:	3d 20 01 81 	lis     r9,385
 18048d4:	39 29 9f 30 	addi    r9,r9,-24784
 18048d8:	c9 89 00 00 	lfd     f12,0(r9)
 18048dc:	7d 67 5b 78 	mr      r7,r11
 18048e0:	3c 60 43 30 	lis     r3,17200
 18048e4:	fc 00 60 2a 	fadd    f0,f0,f12
 18048e8:	3d 20 01 81 	lis     r9,385
 18048ec:	39 29 9f 38 	addi    r9,r9,-24776
 18048f0:	c9 69 00 00 	lfd     f11,0(r9)
 18048f4:	3d 20 01 82 	lis     r9,386
 18048f8:	fd a0 00 1e 	fctiwz  f13,f0
 18048fc:	88 09 a3 f5 	lbz     r0,-23563(r9)
 1804900:	3c a0 01 82 	lis     r5,386
 1804904:	3c 80 01 82 	lis     r4,386
 1804908:	3c c0 01 82 	lis     r6,386
 180490c:	d9 a1 00 18 	stfd    f13,24(r1)
 1804910:	81 61 00 1c 	lwz     r11,28(r1)
 1804914:	a1 25 a3 44 	lhz     r9,-23740(r5)
 1804918:	7d 6b 07 34 	extsh   r11,r11
 180491c:	6d 6b 80 00 	xoris   r11,r11,32768
 1804920:	91 61 00 1c 	stw     r11,28(r1)
 1804924:	90 61 00 18 	stw     r3,24(r1)
 1804928:	c8 01 00 18 	lfd     f0,24(r1)
 180492c:	a1 44 a4 96 	lhz     r10,-23402(r4)
 1804930:	a1 06 a4 98 	lhz     r8,-23400(r6)
 1804934:	fc 00 58 28 	fsub    f0,f0,f11
 1804938:	28 00 00 5c 	cmplwi  r0,92
 180493c:	39 29 00 01 	addi    r9,r9,1
 1804940:	39 4a 00 01 	addi    r10,r10,1
 1804944:	39 08 00 01 	addi    r8,r8,1
 1804948:	fc 00 00 18 	frsp    f0,f0
 180494c:	b1 25 a3 44 	sth     r9,-23740(r5)
 1804950:	b1 44 a4 96 	sth     r10,-23402(r4)
 1804954:	b1 06 a4 98 	sth     r8,-23400(r6)
 1804958:	d0 1d a4 78 	stfs    f0,-23432(r29)
 180495c:	41 81 00 18 	bgt-    1804974 <periodic_task+0x1c0>
 1804960:	3d 60 01 82 	lis     r11,386
 1804964:	89 2b a3 58 	lbz     r9,-23720(r11)
 1804968:	39 29 00 01 	addi    r9,r9,1
 180496c:	99 2b a3 58 	stb     r9,-23720(r11)
 1804970:	48 00 00 0c 	b       180497c <periodic_task+0x1c8>
 1804974:	3d 20 01 82 	lis     r9,386
 1804978:	99 89 a3 58 	stb     r12,-23720(r9)
 180497c:	3d 20 01 82 	lis     r9,386
 1804980:	3d 40 01 82 	lis     r10,386
 1804984:	89 69 a3 58 	lbz     r11,-23720(r9)
 1804988:	88 0a a3 4b 	lbz     r0,-23733(r10)
 180498c:	21 6b 00 04 	subfic  r11,r11,4
 1804990:	7d 6b 59 10 	subfe   r11,r11,r11
 1804994:	7d 6b 00 d0 	neg     r11,r11
 1804998:	7c 00 5b 78 	or      r0,r0,r11
 180499c:	98 0a a3 4b 	stb     r0,-23733(r10)
 18049a0:	3d 20 01 82 	lis     r9,386
 18049a4:	88 09 a3 56 	lbz     r0,-23722(r9)
 18049a8:	2c 00 00 00 	cmpwi   r0,0
 18049ac:	40 82 00 1c 	bne-    18049c8 <periodic_task+0x214>
 18049b0:	48 00 4e a9 	bl      1809858 <estimator_propagate_state>
 18049b4:	4b ff f4 6d 	bl      1803e20 <navigation_update>
 18049b8:	4b ff f4 ad 	bl      1803e64 <send_nav_values>
 18049bc:	4b ff fc bd 	bl      1804678 <course_run>
 18049c0:	4b ff fd 0d 	bl      18046cc <altitude_control_task>
 18049c4:	4b ff fd 4d 	bl      1804710 <climb_control_task>
 18049c8:	3d 20 01 82 	lis     r9,386
 18049cc:	88 09 a3 54 	lbz     r0,-23724(r9)
 18049d0:	2c 00 00 00 	cmpwi   r0,0
 18049d4:	41 82 00 74 	beq-    1804a48 <periodic_task+0x294>
 18049d8:	2c 00 00 01 	cmpwi   r0,1
 18049dc:	40 82 00 48 	bne-    1804a24 <periodic_task+0x270>
 18049e0:	3d 60 01 82 	lis     r11,386
 18049e4:	89 2b a3 e4 	lbz     r9,-23580(r11)
 18049e8:	39 29 00 01 	addi    r9,r9,1
 18049ec:	71 20 00 01 	andi.   r0,r9,1
 18049f0:	99 2b a3 e4 	stb     r9,-23580(r11)
 18049f4:	41 82 00 54 	beq-    1804a48 <periodic_task+0x294>
 18049f8:	4b ff b6 7d 	bl      1800074 <send_boot>
 18049fc:	4b ff be 31 	bl      180082c <send_attitude>
 1804a00:	4b ff c3 35 	bl      1800d34 <send_adc>
 1804a04:	4b ff c6 09 	bl      180100c <send_settings>
 1804a08:	4b ff ca 39 	bl      1801440 <send_desired>
 1804a0c:	4b ff d1 15 	bl      1801b20 <send_bat>
 1804a10:	4b ff d4 f9 	bl      1801f08 <send_climb>
 1804a14:	4b ff da 65 	bl      1802478 <send_mode>
 1804a18:	4b ff dd 7d 	bl      1802794 <send_debug>
 1804a1c:	4b ff e0 95 	bl      1802ab0 <send_nav_ref>
 1804a20:	48 00 00 28 	b       1804a48 <periodic_task+0x294>
 1804a24:	2c 00 00 02 	cmpwi   r0,2
 1804a28:	40 82 00 10 	bne-    1804a38 <periodic_task+0x284>
 1804a2c:	48 00 00 39 	bl      1804a64 <stabilisation_task>
 1804a30:	48 00 1d e9 	bl      1806818 <link_fbw_send>
 1804a34:	48 00 00 14 	b       1804a48 <periodic_task+0x294>
 1804a38:	3d 60 01 82 	lis     r11,386
 1804a3c:	89 2b a3 40 	lbz     r9,-23744(r11)
 1804a40:	39 29 00 01 	addi    r9,r9,1
 1804a44:	99 2b a3 40 	stb     r9,-23744(r11)
 1804a48:	80 01 00 34 	lwz     r0,52(r1)
 1804a4c:	7c 08 03 a6 	mtlr    r0
 1804a50:	83 a1 00 24 	lwz     r29,36(r1)
 1804a54:	83 c1 00 28 	lwz     r30,40(r1)
 1804a58:	83 e1 00 2c 	lwz     r31,44(r1)
 1804a5c:	38 21 00 30 	addi    r1,r1,48
 1804a60:	4e 80 00 20 	blr

01804a64 <stabilisation_task>:
 1804a64:	94 21 ff f0 	stwu    r1,-16(r1)
 1804a68:	7c 08 02 a6 	mflr    r0
 1804a6c:	90 01 00 14 	stw     r0,20(r1)
 1804a70:	48 00 26 71 	bl      18070e0 <ir_update>
 1804a74:	48 00 49 cd 	bl      1809440 <estimator_update_state_infrared>
 1804a78:	48 00 27 1d 	bl      1807194 <roll_pitch_pid_run>
 1804a7c:	3d 20 01 82 	lis     r9,386
 1804a80:	c0 09 a4 d8 	lfs     f0,-23336(r9)
 1804a84:	3d 20 01 81 	lis     r9,385
 1804a88:	39 29 9f 50 	addi    r9,r9,-24752
 1804a8c:	fc 00 00 50 	fneg    f0,f0
 1804a90:	c9 a9 00 00 	lfd     f13,0(r9)
 1804a94:	3d 20 01 81 	lis     r9,385
 1804a98:	c9 89 9f 40 	lfd     f12,-24768(r9)
 1804a9c:	3d 60 01 82 	lis     r11,386
 1804aa0:	a0 0b a4 44 	lhz     r0,-23484(r11)
 1804aa4:	3d 20 01 82 	lis     r9,386
 1804aa8:	a1 69 a4 48 	lhz     r11,-23480(r9)
 1804aac:	3d 40 01 82 	lis     r10,386
 1804ab0:	fd a0 03 72 	fmul    f13,f0,f13
 1804ab4:	a1 0a a4 46 	lhz     r8,-23482(r10)
 1804ab8:	3d 20 01 82 	lis     r9,386
 1804abc:	39 49 a9 b4 	addi    r10,r9,-22092
 1804ac0:	b0 09 a9 b4 	sth     r0,-22092(r9)
 1804ac4:	b1 0a 00 02 	sth     r8,2(r10)
 1804ac8:	fc 0d 60 00 	fcmpu   cr0,f13,f12
 1804acc:	b1 6a 00 04 	sth     r11,4(r10)
 1804ad0:	40 80 00 0c 	bge-    1804adc <stabilisation_task+0x78>
 1804ad4:	39 20 da 80 	li      r9,-9600
 1804ad8:	48 00 00 28 	b       1804b00 <stabilisation_task+0x9c>
 1804adc:	3d 20 01 81 	lis     r9,385
 1804ae0:	c8 09 9f 48 	lfd     f0,-24760(r9)
 1804ae4:	fc 0d 00 00 	fcmpu   cr0,f13,f0
 1804ae8:	40 81 00 0c 	ble-    1804af4 <stabilisation_task+0x90>
 1804aec:	39 20 25 80 	li      r9,9600
 1804af0:	48 00 00 10 	b       1804b00 <stabilisation_task+0x9c>
 1804af4:	fc 00 68 1e 	fctiwz  f0,f13
 1804af8:	d8 01 00 08 	stfd    f0,8(r1)
 1804afc:	81 21 00 0c 	lwz     r9,12(r1)
 1804b00:	b1 2a 00 0a 	sth     r9,10(r10)
 1804b04:	80 01 00 14 	lwz     r0,20(r1)
 1804b08:	7c 08 03 a6 	mtlr    r0
 1804b0c:	38 21 00 10 	addi    r1,r1,16
 1804b10:	4e 80 00 20 	blr

01804b14 <send_gps_pos>:
 1804b14:	94 21 ff e0 	stwu    r1,-32(r1)
 1804b18:	7c 08 02 a6 	mflr    r0
 1804b1c:	93 61 00 0c 	stw     r27,12(r1)
 1804b20:	93 81 00 10 	stw     r28,16(r1)
 1804b24:	93 a1 00 14 	stw     r29,20(r1)
 1804b28:	93 c1 00 18 	stw     r30,24(r1)
 1804b2c:	93 e1 00 1c 	stw     r31,28(r1)
 1804b30:	90 01 00 24 	stw     r0,36(r1)
 1804b34:	3d 20 01 82 	lis     r9,386
 1804b38:	89 69 a4 31 	lbz     r11,-23503(r9)
 1804b3c:	3d 40 01 82 	lis     r10,386
 1804b40:	2c 0b 00 00 	cmpwi   r11,0
 1804b44:	38 00 00 00 	li      r0,0
 1804b48:	98 0a a4 18 	stb     r0,-23528(r10)
 1804b4c:	41 82 08 a0 	beq-    18053ec <send_gps_pos+0x8d8>
 1804b50:	3d 20 01 82 	lis     r9,386
 1804b54:	3d 60 01 82 	lis     r11,386
 1804b58:	89 29 a3 f9 	lbz     r9,-23559(r9)
 1804b5c:	88 0b a3 fa 	lbz     r0,-23558(r11)
 1804b60:	3c c0 01 82 	lis     r6,386
 1804b64:	7c 09 00 40 	cmplw   r9,r0
 1804b68:	3f 60 01 82 	lis     r27,386
 1804b6c:	41 80 00 1c 	blt-    1804b88 <send_gps_pos+0x74>
 1804b70:	88 1b a3 fa 	lbz     r0,-23558(r27)
 1804b74:	7c 00 48 50 	subf    r0,r0,r9
 1804b78:	20 00 00 ff 	subfic  r0,r0,255
 1804b7c:	2c 00 00 21 	cmpwi   r0,33
 1804b80:	41 81 00 18 	bgt-    1804b98 <send_gps_pos+0x84>
 1804b84:	48 00 08 54 	b       18053d8 <send_gps_pos+0x8c4>
 1804b88:	88 1b a3 fa 	lbz     r0,-23558(r27)
 1804b8c:	7c 09 00 50 	subf    r0,r9,r0
 1804b90:	2c 00 00 21 	cmpwi   r0,33
 1804b94:	40 81 08 44 	ble-    18053d8 <send_gps_pos+0x8c4>
 1804b98:	3d 60 01 82 	lis     r11,386
 1804b9c:	89 2b a3 f9 	lbz     r9,-23559(r11)
 1804ba0:	3d 40 01 82 	lis     r10,386
 1804ba4:	39 09 00 01 	addi    r8,r9,1
 1804ba8:	55 00 06 3e 	clrlwi  r0,r8,24
 1804bac:	28 00 00 fe 	cmplwi  r0,254
 1804bb0:	38 6a a8 b4 	addi    r3,r10,-22348
 1804bb4:	55 29 06 3e 	clrlwi  r9,r9,24
 1804bb8:	38 00 00 05 	li      r0,5
 1804bbc:	7c 03 49 ae 	stbx    r0,r3,r9
 1804bc0:	38 ab a3 f9 	addi    r5,r11,-23559
 1804bc4:	99 0b a3 f9 	stb     r8,-23559(r11)
 1804bc8:	40 81 00 0c 	ble-    1804bd4 <send_gps_pos+0xc0>
 1804bcc:	38 00 00 00 	li      r0,0
 1804bd0:	98 06 a3 f9 	stb     r0,-23559(r6)
 1804bd4:	89 26 a3 f9 	lbz     r9,-23559(r6)
 1804bd8:	39 40 00 08 	li      r10,8
 1804bdc:	39 69 00 01 	addi    r11,r9,1
 1804be0:	55 60 06 3e 	clrlwi  r0,r11,24
 1804be4:	55 29 06 3e 	clrlwi  r9,r9,24
 1804be8:	28 00 00 fe 	cmplwi  r0,254
 1804bec:	7d 43 49 ae 	stbx    r10,r3,r9
 1804bf0:	99 66 a3 f9 	stb     r11,-23559(r6)
 1804bf4:	40 81 00 0c 	ble-    1804c00 <send_gps_pos+0xec>
 1804bf8:	38 00 00 00 	li      r0,0
 1804bfc:	98 06 a3 f9 	stb     r0,-23559(r6)
 1804c00:	89 66 a3 f9 	lbz     r11,-23559(r6)
 1804c04:	3d 20 01 82 	lis     r9,386
 1804c08:	39 0b 00 01 	addi    r8,r11,1
 1804c0c:	89 49 a4 38 	lbz     r10,-23496(r9)
 1804c10:	55 00 06 3e 	clrlwi  r0,r8,24
 1804c14:	38 ea 00 08 	addi    r7,r10,8
 1804c18:	55 6b 06 3e 	clrlwi  r11,r11,24
 1804c1c:	28 00 00 fe 	cmplwi  r0,254
 1804c20:	7d 43 59 ae 	stbx    r10,r3,r11
 1804c24:	3f e0 01 82 	lis     r31,386
 1804c28:	3d 80 01 82 	lis     r12,386
 1804c2c:	38 87 00 08 	addi    r4,r7,8
 1804c30:	3b df a3 fc 	addi    r30,r31,-23556
 1804c34:	3b ac a3 f6 	addi    r29,r12,-23562
 1804c38:	98 ff a3 fc 	stb     r7,-23556(r31)
 1804c3c:	98 8c a3 f6 	stb     r4,-23562(r12)
 1804c40:	99 06 a3 f9 	stb     r8,-23559(r6)
 1804c44:	40 81 00 0c 	ble-    1804c50 <send_gps_pos+0x13c>
 1804c48:	38 00 00 00 	li      r0,0
 1804c4c:	98 06 a3 f9 	stb     r0,-23559(r6)
 1804c50:	89 66 a3 f9 	lbz     r11,-23559(r6)
 1804c54:	3d 20 01 82 	lis     r9,386
 1804c58:	39 0b 00 01 	addi    r8,r11,1
 1804c5c:	89 49 a4 24 	lbz     r10,-23516(r9)
 1804c60:	55 00 06 3e 	clrlwi  r0,r8,24
 1804c64:	7c e7 52 14 	add     r7,r7,r10
 1804c68:	55 6b 06 3e 	clrlwi  r11,r11,24
 1804c6c:	28 00 00 fe 	cmplwi  r0,254
 1804c70:	7d 43 59 ae 	stbx    r10,r3,r11
 1804c74:	7c 84 3a 14 	add     r4,r4,r7
 1804c78:	3b 89 a4 24 	addi    r28,r9,-23516
 1804c7c:	98 ff a3 fc 	stb     r7,-23556(r31)
 1804c80:	98 8c a3 f6 	stb     r4,-23562(r12)
 1804c84:	99 06 a3 f9 	stb     r8,-23559(r6)
 1804c88:	40 81 00 0c 	ble-    1804c94 <send_gps_pos+0x180>
 1804c8c:	38 00 00 00 	li      r0,0
 1804c90:	98 06 a3 f9 	stb     r0,-23559(r6)
 1804c94:	89 26 a3 f9 	lbz     r9,-23559(r6)
 1804c98:	89 7c 00 01 	lbz     r11,1(r28)
 1804c9c:	39 49 00 01 	addi    r10,r9,1
 1804ca0:	55 40 06 3e 	clrlwi  r0,r10,24
 1804ca4:	7d 07 5a 14 	add     r8,r7,r11
 1804ca8:	55 29 06 3e 	clrlwi  r9,r9,24
 1804cac:	28 00 00 fe 	cmplwi  r0,254
 1804cb0:	7d 63 49 ae 	stbx    r11,r3,r9
 1804cb4:	7c e4 42 14 	add     r7,r4,r8
 1804cb8:	99 1f a3 fc 	stb     r8,-23556(r31)
 1804cbc:	98 ec a3 f6 	stb     r7,-23562(r12)
 1804cc0:	99 46 a3 f9 	stb     r10,-23559(r6)
 1804cc4:	40 81 00 0c 	ble-    1804cd0 <send_gps_pos+0x1bc>
 1804cc8:	38 00 00 00 	li      r0,0
 1804ccc:	98 06 a3 f9 	stb     r0,-23559(r6)
 1804cd0:	89 26 a3 f9 	lbz     r9,-23559(r6)
 1804cd4:	89 7c 00 02 	lbz     r11,2(r28)
 1804cd8:	39 49 00 01 	addi    r10,r9,1
 1804cdc:	55 40 06 3e 	clrlwi  r0,r10,24
 1804ce0:	7d 08 5a 14 	add     r8,r8,r11
 1804ce4:	55 29 06 3e 	clrlwi  r9,r9,24
 1804ce8:	28 00 00 fe 	cmplwi  r0,254
 1804cec:	7d 63 49 ae 	stbx    r11,r3,r9
 1804cf0:	7c 87 42 14 	add     r4,r7,r8
 1804cf4:	99 1f a3 fc 	stb     r8,-23556(r31)
 1804cf8:	98 8c a3 f6 	stb     r4,-23562(r12)
 1804cfc:	99 46 a3 f9 	stb     r10,-23559(r6)
 1804d00:	40 81 00 0c 	ble-    1804d0c <send_gps_pos+0x1f8>
 1804d04:	38 00 00 00 	li      r0,0
 1804d08:	98 06 a3 f9 	stb     r0,-23559(r6)
 1804d0c:	89 26 a3 f9 	lbz     r9,-23559(r6)
 1804d10:	89 7c 00 03 	lbz     r11,3(r28)
 1804d14:	39 49 00 01 	addi    r10,r9,1
 1804d18:	55 40 06 3e 	clrlwi  r0,r10,24
 1804d1c:	7c e8 5a 14 	add     r7,r8,r11
 1804d20:	55 29 06 3e 	clrlwi  r9,r9,24
 1804d24:	28 00 00 fe 	cmplwi  r0,254
 1804d28:	7d 63 49 ae 	stbx    r11,r3,r9
 1804d2c:	7c 84 3a 14 	add     r4,r4,r7
 1804d30:	98 ff a3 fc 	stb     r7,-23556(r31)
 1804d34:	98 8c a3 f6 	stb     r4,-23562(r12)
 1804d38:	99 46 a3 f9 	stb     r10,-23559(r6)
 1804d3c:	40 81 00 0c 	ble-    1804d48 <send_gps_pos+0x234>
 1804d40:	38 00 00 00 	li      r0,0
 1804d44:	98 06 a3 f9 	stb     r0,-23559(r6)
 1804d48:	89 66 a3 f9 	lbz     r11,-23559(r6)
 1804d4c:	3d 20 01 82 	lis     r9,386
 1804d50:	39 0b 00 01 	addi    r8,r11,1
 1804d54:	89 49 a4 20 	lbz     r10,-23520(r9)
 1804d58:	55 00 06 3e 	clrlwi  r0,r8,24
 1804d5c:	7c e7 52 14 	add     r7,r7,r10
 1804d60:	55 6b 06 3e 	clrlwi  r11,r11,24
 1804d64:	28 00 00 fe 	cmplwi  r0,254
 1804d68:	7d 43 59 ae 	stbx    r10,r3,r11
 1804d6c:	7c 84 3a 14 	add     r4,r4,r7
 1804d70:	3b 89 a4 20 	addi    r28,r9,-23520
 1804d74:	98 ff a3 fc 	stb     r7,-23556(r31)
 1804d78:	98 8c a3 f6 	stb     r4,-23562(r12)
 1804d7c:	99 06 a3 f9 	stb     r8,-23559(r6)
 1804d80:	40 81 00 0c 	ble-    1804d8c <send_gps_pos+0x278>
 1804d84:	38 00 00 00 	li      r0,0
 1804d88:	98 06 a3 f9 	stb     r0,-23559(r6)
 1804d8c:	89 26 a3 f9 	lbz     r9,-23559(r6)
 1804d90:	89 7c 00 01 	lbz     r11,1(r28)
 1804d94:	39 49 00 01 	addi    r10,r9,1
 1804d98:	55 40 06 3e 	clrlwi  r0,r10,24
 1804d9c:	7d 07 5a 14 	add     r8,r7,r11
 1804da0:	55 29 06 3e 	clrlwi  r9,r9,24
 1804da4:	28 00 00 fe 	cmplwi  r0,254
 1804da8:	7d 63 49 ae 	stbx    r11,r3,r9
 1804dac:	7c e4 42 14 	add     r7,r4,r8
 1804db0:	99 1f a3 fc 	stb     r8,-23556(r31)
 1804db4:	98 ec a3 f6 	stb     r7,-23562(r12)
 1804db8:	99 46 a3 f9 	stb     r10,-23559(r6)
 1804dbc:	40 81 00 0c 	ble-    1804dc8 <send_gps_pos+0x2b4>
 1804dc0:	38 00 00 00 	li      r0,0
 1804dc4:	98 06 a3 f9 	stb     r0,-23559(r6)
 1804dc8:	89 26 a3 f9 	lbz     r9,-23559(r6)
 1804dcc:	89 7c 00 02 	lbz     r11,2(r28)
 1804dd0:	39 49 00 01 	addi    r10,r9,1
 1804dd4:	55 40 06 3e 	clrlwi  r0,r10,24
 1804dd8:	7d 08 5a 14 	add     r8,r8,r11
 1804ddc:	55 29 06 3e 	clrlwi  r9,r9,24
 1804de0:	28 00 00 fe 	cmplwi  r0,254
 1804de4:	7d 63 49 ae 	stbx    r11,r3,r9
 1804de8:	7c e7 42 14 	add     r7,r7,r8
 1804dec:	99 1f a3 fc 	stb     r8,-23556(r31)
 1804df0:	98 ec a3 f6 	stb     r7,-23562(r12)
 1804df4:	99 46 a3 f9 	stb     r10,-23559(r6)
 1804df8:	40 81 00 0c 	ble-    1804e04 <send_gps_pos+0x2f0>
 1804dfc:	38 00 00 00 	li      r0,0
 1804e00:	98 06 a3 f9 	stb     r0,-23559(r6)
 1804e04:	89 25 00 00 	lbz     r9,0(r5)
 1804e08:	89 7c 00 03 	lbz     r11,3(r28)
 1804e0c:	39 49 00 01 	addi    r10,r9,1
 1804e10:	7c c8 5a 14 	add     r6,r8,r11
 1804e14:	55 40 06 3e 	clrlwi  r0,r10,24
 1804e18:	55 29 06 3e 	clrlwi  r9,r9,24
 1804e1c:	7d 63 49 ae 	stbx    r11,r3,r9
 1804e20:	7c 87 32 14 	add     r4,r7,r6
 1804e24:	28 00 00 fe 	cmplwi  r0,254
 1804e28:	98 df a3 fc 	stb     r6,-23556(r31)
 1804e2c:	98 8c a3 f6 	stb     r4,-23562(r12)
 1804e30:	99 45 00 00 	stb     r10,0(r5)
 1804e34:	40 81 00 0c 	ble-    1804e40 <send_gps_pos+0x32c>
 1804e38:	38 00 00 00 	li      r0,0
 1804e3c:	98 05 00 00 	stb     r0,0(r5)
 1804e40:	3d 20 01 82 	lis     r9,386
 1804e44:	89 09 a4 28 	lbz     r8,-23512(r9)
 1804e48:	89 65 00 00 	lbz     r11,0(r5)
 1804e4c:	7d 46 42 14 	add     r10,r6,r8
 1804e50:	3b 89 a4 28 	addi    r28,r9,-23512
 1804e54:	38 eb 00 01 	addi    r7,r11,1
 1804e58:	7d 24 52 14 	add     r9,r4,r10
 1804e5c:	99 2c a3 f6 	stb     r9,-23562(r12)
 1804e60:	54 e0 06 3e 	clrlwi  r0,r7,24
 1804e64:	55 6b 06 3e 	clrlwi  r11,r11,24
 1804e68:	7d 03 59 ae 	stbx    r8,r3,r11
 1804e6c:	28 00 00 fe 	cmplwi  r0,254
 1804e70:	99 5f a3 fc 	stb     r10,-23556(r31)
 1804e74:	98 e5 00 00 	stb     r7,0(r5)
 1804e78:	40 81 00 0c 	ble-    1804e84 <send_gps_pos+0x370>
 1804e7c:	38 00 00 00 	li      r0,0
 1804e80:	98 05 00 00 	stb     r0,0(r5)
 1804e84:	89 25 00 00 	lbz     r9,0(r5)
 1804e88:	89 1c 00 01 	lbz     r8,1(r28)
 1804e8c:	88 1e 00 00 	lbz     r0,0(r30)
 1804e90:	89 7d 00 00 	lbz     r11,0(r29)
 1804e94:	38 e9 00 01 	addi    r7,r9,1
 1804e98:	7c c0 42 14 	add     r6,r0,r8
 1804e9c:	54 ea 06 3e 	clrlwi  r10,r7,24
 1804ea0:	55 29 06 3e 	clrlwi  r9,r9,24
 1804ea4:	7d 03 49 ae 	stbx    r8,r3,r9
 1804ea8:	7c 8b 32 14 	add     r4,r11,r6
 1804eac:	28 0a 00 fe 	cmplwi  r10,254
 1804eb0:	98 de 00 00 	stb     r6,0(r30)
 1804eb4:	98 9d 00 00 	stb     r4,0(r29)
 1804eb8:	98 e5 00 00 	stb     r7,0(r5)
 1804ebc:	40 81 00 0c 	ble-    1804ec8 <send_gps_pos+0x3b4>
 1804ec0:	38 00 00 00 	li      r0,0
 1804ec4:	98 05 00 00 	stb     r0,0(r5)
 1804ec8:	89 25 00 00 	lbz     r9,0(r5)
 1804ecc:	89 7c 00 02 	lbz     r11,2(r28)
 1804ed0:	39 49 00 01 	addi    r10,r9,1
 1804ed4:	7d 06 5a 14 	add     r8,r6,r11
 1804ed8:	55 40 06 3e 	clrlwi  r0,r10,24
 1804edc:	55 29 06 3e 	clrlwi  r9,r9,24
 1804ee0:	7d 63 49 ae 	stbx    r11,r3,r9
 1804ee4:	7c c4 42 14 	add     r6,r4,r8
 1804ee8:	28 00 00 fe 	cmplwi  r0,254
 1804eec:	99 1e 00 00 	stb     r8,0(r30)
 1804ef0:	98 dd 00 00 	stb     r6,0(r29)
 1804ef4:	99 45 00 00 	stb     r10,0(r5)
 1804ef8:	40 81 00 0c 	ble-    1804f04 <send_gps_pos+0x3f0>
 1804efc:	38 00 00 00 	li      r0,0
 1804f00:	98 05 00 00 	stb     r0,0(r5)
 1804f04:	89 25 00 00 	lbz     r9,0(r5)
 1804f08:	89 7c 00 03 	lbz     r11,3(r28)
 1804f0c:	39 49 00 01 	addi    r10,r9,1
 1804f10:	7c e8 5a 14 	add     r7,r8,r11
 1804f14:	55 40 06 3e 	clrlwi  r0,r10,24
 1804f18:	55 29 06 3e 	clrlwi  r9,r9,24
 1804f1c:	7d 63 49 ae 	stbx    r11,r3,r9
 1804f20:	7c c6 3a 14 	add     r6,r6,r7
 1804f24:	28 00 00 fe 	cmplwi  r0,254
 1804f28:	98 fe 00 00 	stb     r7,0(r30)
 1804f2c:	98 dd 00 00 	stb     r6,0(r29)
 1804f30:	99 45 00 00 	stb     r10,0(r5)
 1804f34:	40 81 00 0c 	ble-    1804f40 <send_gps_pos+0x42c>
 1804f38:	38 00 00 00 	li      r0,0
 1804f3c:	98 05 00 00 	stb     r0,0(r5)
 1804f40:	89 65 00 00 	lbz     r11,0(r5)
 1804f44:	3d 20 01 82 	lis     r9,386
 1804f48:	89 49 a4 14 	lbz     r10,-23532(r9)
 1804f4c:	39 0b 00 01 	addi    r8,r11,1
 1804f50:	7c e7 52 14 	add     r7,r7,r10
 1804f54:	55 00 06 3e 	clrlwi  r0,r8,24
 1804f58:	55 6b 06 3e 	clrlwi  r11,r11,24
 1804f5c:	7d 43 59 ae 	stbx    r10,r3,r11
 1804f60:	7c c6 3a 14 	add     r6,r6,r7
 1804f64:	28 00 00 fe 	cmplwi  r0,254
 1804f68:	98 fe 00 00 	stb     r7,0(r30)
 1804f6c:	98 dd 00 00 	stb     r6,0(r29)
 1804f70:	38 89 a4 14 	addi    r4,r9,-23532
 1804f74:	99 05 00 00 	stb     r8,0(r5)
 1804f78:	40 81 00 0c 	ble-    1804f84 <send_gps_pos+0x470>
 1804f7c:	38 00 00 00 	li      r0,0
 1804f80:	98 05 00 00 	stb     r0,0(r5)
 1804f84:	89 25 00 00 	lbz     r9,0(r5)
 1804f88:	89 64 00 01 	lbz     r11,1(r4)
 1804f8c:	39 49 00 01 	addi    r10,r9,1
 1804f90:	7d 07 5a 14 	add     r8,r7,r11
 1804f94:	55 40 06 3e 	clrlwi  r0,r10,24
 1804f98:	55 29 06 3e 	clrlwi  r9,r9,24
 1804f9c:	7d 63 49 ae 	stbx    r11,r3,r9
 1804fa0:	7c e6 42 14 	add     r7,r6,r8
 1804fa4:	28 00 00 fe 	cmplwi  r0,254
 1804fa8:	99 1e 00 00 	stb     r8,0(r30)
 1804fac:	98 fd 00 00 	stb     r7,0(r29)
 1804fb0:	99 45 00 00 	stb     r10,0(r5)
 1804fb4:	40 81 00 0c 	ble-    1804fc0 <send_gps_pos+0x4ac>
 1804fb8:	38 00 00 00 	li      r0,0
 1804fbc:	98 05 00 00 	stb     r0,0(r5)
 1804fc0:	89 25 00 00 	lbz     r9,0(r5)
 1804fc4:	89 64 00 02 	lbz     r11,2(r4)
 1804fc8:	39 49 00 01 	addi    r10,r9,1
 1804fcc:	7d 08 5a 14 	add     r8,r8,r11
 1804fd0:	55 40 06 3e 	clrlwi  r0,r10,24
 1804fd4:	55 29 06 3e 	clrlwi  r9,r9,24
 1804fd8:	7d 63 49 ae 	stbx    r11,r3,r9
 1804fdc:	7c c7 42 14 	add     r6,r7,r8
 1804fe0:	28 00 00 fe 	cmplwi  r0,254
 1804fe4:	99 1e 00 00 	stb     r8,0(r30)
 1804fe8:	98 dd 00 00 	stb     r6,0(r29)
 1804fec:	99 45 00 00 	stb     r10,0(r5)
 1804ff0:	40 81 00 0c 	ble-    1804ffc <send_gps_pos+0x4e8>
 1804ff4:	38 00 00 00 	li      r0,0
 1804ff8:	98 05 00 00 	stb     r0,0(r5)
 1804ffc:	89 25 00 00 	lbz     r9,0(r5)
 1805000:	89 64 00 03 	lbz     r11,3(r4)
 1805004:	39 49 00 01 	addi    r10,r9,1
 1805008:	7c e8 5a 14 	add     r7,r8,r11
 180500c:	55 40 06 3e 	clrlwi  r0,r10,24
 1805010:	55 29 06 3e 	clrlwi  r9,r9,24
 1805014:	7d 63 49 ae 	stbx    r11,r3,r9
 1805018:	7c c6 3a 14 	add     r6,r6,r7
 180501c:	28 00 00 fe 	cmplwi  r0,254
 1805020:	98 fe 00 00 	stb     r7,0(r30)
 1805024:	98 dd 00 00 	stb     r6,0(r29)
 1805028:	99 45 00 00 	stb     r10,0(r5)
 180502c:	40 81 00 0c 	ble-    1805038 <send_gps_pos+0x524>
 1805030:	38 00 00 00 	li      r0,0
 1805034:	98 05 00 00 	stb     r0,0(r5)
 1805038:	89 65 00 00 	lbz     r11,0(r5)
 180503c:	3d 20 01 82 	lis     r9,386
 1805040:	89 49 a4 2c 	lbz     r10,-23508(r9)
 1805044:	39 0b 00 01 	addi    r8,r11,1
 1805048:	7c e7 52 14 	add     r7,r7,r10
 180504c:	55 00 06 3e 	clrlwi  r0,r8,24
 1805050:	55 6b 06 3e 	clrlwi  r11,r11,24
 1805054:	7d 43 59 ae 	stbx    r10,r3,r11
 1805058:	7c c6 3a 14 	add     r6,r6,r7
 180505c:	28 00 00 fe 	cmplwi  r0,254
 1805060:	98 fe 00 00 	stb     r7,0(r30)
 1805064:	98 dd 00 00 	stb     r6,0(r29)
 1805068:	38 89 a4 2c 	addi    r4,r9,-23508
 180506c:	99 05 00 00 	stb     r8,0(r5)
 1805070:	40 81 00 0c 	ble-    180507c <send_gps_pos+0x568>
 1805074:	38 00 00 00 	li      r0,0
 1805078:	98 05 00 00 	stb     r0,0(r5)
 180507c:	89 25 00 00 	lbz     r9,0(r5)
 1805080:	89 64 00 01 	lbz     r11,1(r4)
 1805084:	39 49 00 01 	addi    r10,r9,1
 1805088:	7d 07 5a 14 	add     r8,r7,r11
 180508c:	55 40 06 3e 	clrlwi  r0,r10,24
 1805090:	55 29 06 3e 	clrlwi  r9,r9,24
 1805094:	7d 63 49 ae 	stbx    r11,r3,r9
 1805098:	7c e6 42 14 	add     r7,r6,r8
 180509c:	28 00 00 fe 	cmplwi  r0,254
 18050a0:	99 1e 00 00 	stb     r8,0(r30)
 18050a4:	98 fd 00 00 	stb     r7,0(r29)
 18050a8:	99 45 00 00 	stb     r10,0(r5)
 18050ac:	40 81 00 0c 	ble-    18050b8 <send_gps_pos+0x5a4>
 18050b0:	38 00 00 00 	li      r0,0
 18050b4:	98 05 00 00 	stb     r0,0(r5)
 18050b8:	89 25 00 00 	lbz     r9,0(r5)
 18050bc:	89 64 00 02 	lbz     r11,2(r4)
 18050c0:	39 49 00 01 	addi    r10,r9,1
 18050c4:	7d 08 5a 14 	add     r8,r8,r11
 18050c8:	55 40 06 3e 	clrlwi  r0,r10,24
 18050cc:	55 29 06 3e 	clrlwi  r9,r9,24
 18050d0:	7d 63 49 ae 	stbx    r11,r3,r9
 18050d4:	7c c7 42 14 	add     r6,r7,r8
 18050d8:	28 00 00 fe 	cmplwi  r0,254
 18050dc:	99 1e 00 00 	stb     r8,0(r30)
 18050e0:	98 dd 00 00 	stb     r6,0(r29)
 18050e4:	99 45 00 00 	stb     r10,0(r5)
 18050e8:	40 81 00 0c 	ble-    18050f4 <send_gps_pos+0x5e0>
 18050ec:	38 00 00 00 	li      r0,0
 18050f0:	98 05 00 00 	stb     r0,0(r5)
 18050f4:	89 25 00 00 	lbz     r9,0(r5)
 18050f8:	89 64 00 03 	lbz     r11,3(r4)
 18050fc:	39 49 00 01 	addi    r10,r9,1
 1805100:	7c e8 5a 14 	add     r7,r8,r11
 1805104:	55 40 06 3e 	clrlwi  r0,r10,24
 1805108:	55 29 06 3e 	clrlwi  r9,r9,24
 180510c:	7d 63 49 ae 	stbx    r11,r3,r9
 1805110:	7c c6 3a 14 	add     r6,r6,r7
 1805114:	28 00 00 fe 	cmplwi  r0,254
 1805118:	98 fe 00 00 	stb     r7,0(r30)
 180511c:	98 dd 00 00 	stb     r6,0(r29)
 1805120:	99 45 00 00 	stb     r10,0(r5)
 1805124:	40 81 00 0c 	ble-    1805130 <send_gps_pos+0x61c>
 1805128:	38 00 00 00 	li      r0,0
 180512c:	98 05 00 00 	stb     r0,0(r5)
 1805130:	89 65 00 00 	lbz     r11,0(r5)
 1805134:	3d 20 01 82 	lis     r9,386
 1805138:	89 49 a4 3c 	lbz     r10,-23492(r9)
 180513c:	39 0b 00 01 	addi    r8,r11,1
 1805140:	7c e7 52 14 	add     r7,r7,r10
 1805144:	55 00 06 3e 	clrlwi  r0,r8,24
 1805148:	55 6b 06 3e 	clrlwi  r11,r11,24
 180514c:	7d 43 59 ae 	stbx    r10,r3,r11
 1805150:	7c c6 3a 14 	add     r6,r6,r7
 1805154:	28 00 00 fe 	cmplwi  r0,254
 1805158:	98 fe 00 00 	stb     r7,0(r30)
 180515c:	98 dd 00 00 	stb     r6,0(r29)
 1805160:	38 89 a4 3c 	addi    r4,r9,-23492
 1805164:	99 05 00 00 	stb     r8,0(r5)
 1805168:	40 81 00 0c 	ble-    1805174 <send_gps_pos+0x660>
 180516c:	38 00 00 00 	li      r0,0
 1805170:	98 05 00 00 	stb     r0,0(r5)
 1805174:	89 25 00 00 	lbz     r9,0(r5)
 1805178:	89 64 00 01 	lbz     r11,1(r4)
 180517c:	39 49 00 01 	addi    r10,r9,1
 1805180:	7d 07 5a 14 	add     r8,r7,r11
 1805184:	55 40 06 3e 	clrlwi  r0,r10,24
 1805188:	55 29 06 3e 	clrlwi  r9,r9,24
 180518c:	7d 63 49 ae 	stbx    r11,r3,r9
 1805190:	7c e6 42 14 	add     r7,r6,r8
 1805194:	28 00 00 fe 	cmplwi  r0,254
 1805198:	99 1e 00 00 	stb     r8,0(r30)
 180519c:	98 fd 00 00 	stb     r7,0(r29)
 18051a0:	99 45 00 00 	stb     r10,0(r5)
 18051a4:	40 81 00 0c 	ble-    18051b0 <send_gps_pos+0x69c>
 18051a8:	38 00 00 00 	li      r0,0
 18051ac:	98 05 00 00 	stb     r0,0(r5)
 18051b0:	89 25 00 00 	lbz     r9,0(r5)
 18051b4:	89 64 00 02 	lbz     r11,2(r4)
 18051b8:	39 49 00 01 	addi    r10,r9,1
 18051bc:	7d 08 5a 14 	add     r8,r8,r11
 18051c0:	55 40 06 3e 	clrlwi  r0,r10,24
 18051c4:	55 29 06 3e 	clrlwi  r9,r9,24
 18051c8:	7d 63 49 ae 	stbx    r11,r3,r9
 18051cc:	7c c7 42 14 	add     r6,r7,r8
 18051d0:	28 00 00 fe 	cmplwi  r0,254
 18051d4:	99 1e 00 00 	stb     r8,0(r30)
 18051d8:	98 dd 00 00 	stb     r6,0(r29)
 18051dc:	99 45 00 00 	stb     r10,0(r5)
 18051e0:	40 81 00 0c 	ble-    18051ec <send_gps_pos+0x6d8>
 18051e4:	38 00 00 00 	li      r0,0
 18051e8:	98 05 00 00 	stb     r0,0(r5)
 18051ec:	89 25 00 00 	lbz     r9,0(r5)
 18051f0:	89 64 00 03 	lbz     r11,3(r4)
 18051f4:	39 49 00 01 	addi    r10,r9,1
 18051f8:	7c e8 5a 14 	add     r7,r8,r11
 18051fc:	55 40 06 3e 	clrlwi  r0,r10,24
 1805200:	55 29 06 3e 	clrlwi  r9,r9,24
 1805204:	7d 63 49 ae 	stbx    r11,r3,r9
 1805208:	7c c6 3a 14 	add     r6,r6,r7
 180520c:	28 00 00 fe 	cmplwi  r0,254
 1805210:	98 fe 00 00 	stb     r7,0(r30)
 1805214:	98 dd 00 00 	stb     r6,0(r29)
 1805218:	99 45 00 00 	stb     r10,0(r5)
 180521c:	40 81 00 0c 	ble-    1805228 <send_gps_pos+0x714>
 1805220:	38 00 00 00 	li      r0,0
 1805224:	98 05 00 00 	stb     r0,0(r5)
 1805228:	89 65 00 00 	lbz     r11,0(r5)
 180522c:	3d 20 01 82 	lis     r9,386
 1805230:	89 49 a4 34 	lbz     r10,-23500(r9)
 1805234:	39 0b 00 01 	addi    r8,r11,1
 1805238:	7c e7 52 14 	add     r7,r7,r10
 180523c:	55 00 06 3e 	clrlwi  r0,r8,24
 1805240:	55 6b 06 3e 	clrlwi  r11,r11,24
 1805244:	7d 43 59 ae 	stbx    r10,r3,r11
 1805248:	7c c6 3a 14 	add     r6,r6,r7
 180524c:	28 00 00 fe 	cmplwi  r0,254
 1805250:	98 fe 00 00 	stb     r7,0(r30)
 1805254:	98 dd 00 00 	stb     r6,0(r29)
 1805258:	38 89 a4 34 	addi    r4,r9,-23500
 180525c:	99 05 00 00 	stb     r8,0(r5)
 1805260:	40 81 00 0c 	ble-    180526c <send_gps_pos+0x758>
 1805264:	38 00 00 00 	li      r0,0
 1805268:	98 05 00 00 	stb     r0,0(r5)
 180526c:	89 25 00 00 	lbz     r9,0(r5)
 1805270:	89 64 00 01 	lbz     r11,1(r4)
 1805274:	39 49 00 01 	addi    r10,r9,1
 1805278:	7d 07 5a 14 	add     r8,r7,r11
 180527c:	55 40 06 3e 	clrlwi  r0,r10,24
 1805280:	55 29 06 3e 	clrlwi  r9,r9,24
 1805284:	7d 63 49 ae 	stbx    r11,r3,r9
 1805288:	7c e6 42 14 	add     r7,r6,r8
 180528c:	28 00 00 fe 	cmplwi  r0,254
 1805290:	99 1e 00 00 	stb     r8,0(r30)
 1805294:	98 fd 00 00 	stb     r7,0(r29)
 1805298:	99 45 00 00 	stb     r10,0(r5)
 180529c:	40 81 00 0c 	ble-    18052a8 <send_gps_pos+0x794>
 18052a0:	38 00 00 00 	li      r0,0
 18052a4:	98 05 00 00 	stb     r0,0(r5)
 18052a8:	89 25 00 00 	lbz     r9,0(r5)
 18052ac:	89 64 00 02 	lbz     r11,2(r4)
 18052b0:	39 49 00 01 	addi    r10,r9,1
 18052b4:	7d 08 5a 14 	add     r8,r8,r11
 18052b8:	55 40 06 3e 	clrlwi  r0,r10,24
 18052bc:	55 29 06 3e 	clrlwi  r9,r9,24
 18052c0:	7d 63 49 ae 	stbx    r11,r3,r9
 18052c4:	7c e7 42 14 	add     r7,r7,r8
 18052c8:	28 00 00 fe 	cmplwi  r0,254
 18052cc:	99 1e 00 00 	stb     r8,0(r30)
 18052d0:	98 fd 00 00 	stb     r7,0(r29)
 18052d4:	99 45 00 00 	stb     r10,0(r5)
 18052d8:	40 81 00 0c 	ble-    18052e4 <send_gps_pos+0x7d0>
 18052dc:	38 00 00 00 	li      r0,0
 18052e0:	98 05 00 00 	stb     r0,0(r5)
 18052e4:	89 25 00 00 	lbz     r9,0(r5)
 18052e8:	89 64 00 03 	lbz     r11,3(r4)
 18052ec:	39 49 00 01 	addi    r10,r9,1
 18052f0:	7d 08 5a 14 	add     r8,r8,r11
 18052f4:	55 40 06 3e 	clrlwi  r0,r10,24
 18052f8:	55 29 06 3e 	clrlwi  r9,r9,24
 18052fc:	7d 63 49 ae 	stbx    r11,r3,r9
 1805300:	7c e7 42 14 	add     r7,r7,r8
 1805304:	28 00 00 fe 	cmplwi  r0,254
 1805308:	99 1e 00 00 	stb     r8,0(r30)
 180530c:	98 fd 00 00 	stb     r7,0(r29)
 1805310:	99 45 00 00 	stb     r10,0(r5)
 1805314:	40 81 00 0c 	ble-    1805320 <send_gps_pos+0x80c>
 1805318:	38 00 00 00 	li      r0,0
 180531c:	98 05 00 00 	stb     r0,0(r5)
 1805320:	89 25 00 00 	lbz     r9,0(r5)
 1805324:	39 69 00 01 	addi    r11,r9,1
 1805328:	55 60 06 3e 	clrlwi  r0,r11,24
 180532c:	55 29 06 3e 	clrlwi  r9,r9,24
 1805330:	28 00 00 fe 	cmplwi  r0,254
 1805334:	7d 03 49 ae 	stbx    r8,r3,r9
 1805338:	99 65 00 00 	stb     r11,0(r5)
 180533c:	40 81 00 0c 	ble-    1805348 <send_gps_pos+0x834>
 1805340:	38 00 00 00 	li      r0,0
 1805344:	98 05 00 00 	stb     r0,0(r5)
 1805348:	89 25 00 00 	lbz     r9,0(r5)
 180534c:	39 69 00 01 	addi    r11,r9,1
 1805350:	55 60 06 3e 	clrlwi  r0,r11,24
 1805354:	55 29 06 3e 	clrlwi  r9,r9,24
 1805358:	28 00 00 fe 	cmplwi  r0,254
 180535c:	7c e3 49 ae 	stbx    r7,r3,r9
 1805360:	99 65 00 00 	stb     r11,0(r5)
 1805364:	40 81 00 0c 	ble-    1805370 <send_gps_pos+0x85c>
 1805368:	38 00 00 00 	li      r0,0
 180536c:	98 05 00 00 	stb     r0,0(r5)
 1805370:	38 c0 00 59 	li      r6,89
 1805374:	88 06 00 00 	lbz     r0,0(r6)
 1805378:	70 07 00 10 	andi.   r7,r0,16
 180537c:	40 82 00 6c 	bne-    18053e8 <send_gps_pos+0x8d4>
 1805380:	3d 60 01 82 	lis     r11,386
 1805384:	88 0b a3 fa 	lbz     r0,-23558(r11)
 1805388:	89 2b a3 fa 	lbz     r9,-23558(r11)
 180538c:	7d 03 00 ae 	lbzx    r8,r3,r0
 1805390:	39 29 00 01 	addi    r9,r9,1
 1805394:	99 2b a3 fa 	stb     r9,-23558(r11)
 1805398:	88 0b a3 fa 	lbz     r0,-23558(r11)
 180539c:	3d 40 01 82 	lis     r10,386
 18053a0:	28 00 00 fe 	cmplwi  r0,254
 18053a4:	3d 20 01 82 	lis     r9,386
 18053a8:	99 0a a3 f8 	stb     r8,-23560(r10)
 18053ac:	98 e9 a3 fb 	stb     r7,-23557(r9)
 18053b0:	40 81 00 08 	ble-    18053b8 <send_gps_pos+0x8a4>
 18053b4:	98 fb a3 fa 	stb     r7,-23558(r27)
 18053b8:	39 20 00 58 	li      r9,88
 18053bc:	88 09 00 00 	lbz     r0,0(r9)
 18053c0:	60 00 00 01 	ori     r0,r0,1
 18053c4:	98 09 00 00 	stb     r0,0(r9)
 18053c8:	89 66 00 00 	lbz     r11,0(r6)
 18053cc:	61 6b 00 10 	ori     r11,r11,16
 18053d0:	99 66 00 00 	stb     r11,0(r6)
 18053d4:	48 00 00 14 	b       18053e8 <send_gps_pos+0x8d4>
 18053d8:	3d 60 01 82 	lis     r11,386
 18053dc:	89 2b a3 f7 	lbz     r9,-23561(r11)
 18053e0:	39 29 00 01 	addi    r9,r9,1
 18053e4:	99 2b a3 f7 	stb     r9,-23561(r11)
 18053e8:	48 00 43 d1 	bl      18097b8 <estimator_update_state_gps>
 18053ec:	80 01 00 24 	lwz     r0,36(r1)
 18053f0:	7c 08 03 a6 	mtlr    r0
 18053f4:	83 61 00 0c 	lwz     r27,12(r1)
 18053f8:	83 81 00 10 	lwz     r28,16(r1)
 18053fc:	83 a1 00 14 	lwz     r29,20(r1)
 1805400:	83 c1 00 18 	lwz     r30,24(r1)
 1805404:	83 e1 00 1c 	lwz     r31,28(r1)
 1805408:	38 21 00 20 	addi    r1,r1,32
 180540c:	4e 80 00 20 	blr

01805410 <send_radIR>:
 1805410:	94 21 ff e0 	stwu    r1,-32(r1)
 1805414:	93 61 00 0c 	stw     r27,12(r1)
 1805418:	93 81 00 10 	stw     r28,16(r1)
 180541c:	93 a1 00 14 	stw     r29,20(r1)
 1805420:	93 c1 00 18 	stw     r30,24(r1)
 1805424:	93 e1 00 1c 	stw     r31,28(r1)
 1805428:	3d 20 01 82 	lis     r9,386
 180542c:	88 09 a4 31 	lbz     r0,-23503(r9)
 1805430:	2c 00 00 00 	cmpwi   r0,0
 1805434:	41 82 05 78 	beq-    18059ac <send_radIR+0x59c>
 1805438:	3d 20 01 82 	lis     r9,386
 180543c:	3d 60 01 82 	lis     r11,386
 1805440:	89 29 a3 f9 	lbz     r9,-23559(r9)
 1805444:	88 0b a3 fa 	lbz     r0,-23558(r11)
 1805448:	3c c0 01 82 	lis     r6,386
 180544c:	7c 09 00 40 	cmplw   r9,r0
 1805450:	3f 60 01 82 	lis     r27,386
 1805454:	41 80 00 1c 	blt-    1805470 <send_radIR+0x60>
 1805458:	88 1b a3 fa 	lbz     r0,-23558(r27)
 180545c:	7c 00 48 50 	subf    r0,r0,r9
 1805460:	20 00 00 ff 	subfic  r0,r0,255
 1805464:	2c 00 00 14 	cmpwi   r0,20
 1805468:	41 81 00 18 	bgt-    1805480 <send_radIR+0x70>
 180546c:	48 00 05 30 	b       180599c <send_radIR+0x58c>
 1805470:	88 1b a3 fa 	lbz     r0,-23558(r27)
 1805474:	7c 09 00 50 	subf    r0,r9,r0
 1805478:	2c 00 00 14 	cmpwi   r0,20
 180547c:	40 81 05 20 	ble-    180599c <send_radIR+0x58c>
 1805480:	3d 60 01 82 	lis     r11,386
 1805484:	89 2b a3 f9 	lbz     r9,-23559(r11)
 1805488:	3d 40 01 82 	lis     r10,386
 180548c:	39 09 00 01 	addi    r8,r9,1
 1805490:	38 6a a8 b4 	addi    r3,r10,-22348
 1805494:	55 00 06 3e 	clrlwi  r0,r8,24
 1805498:	55 29 06 3e 	clrlwi  r9,r9,24
 180549c:	39 40 00 05 	li      r10,5
 18054a0:	28 00 00 fe 	cmplwi  r0,254
 18054a4:	7d 43 49 ae 	stbx    r10,r3,r9
 18054a8:	38 8b a3 f9 	addi    r4,r11,-23559
 18054ac:	99 0b a3 f9 	stb     r8,-23559(r11)
 18054b0:	40 81 00 0c 	ble-    18054bc <send_radIR+0xac>
 18054b4:	38 00 00 00 	li      r0,0
 18054b8:	98 06 a3 f9 	stb     r0,-23559(r6)
 18054bc:	89 26 a3 f9 	lbz     r9,-23559(r6)
 18054c0:	39 69 00 01 	addi    r11,r9,1
 18054c4:	55 60 06 3e 	clrlwi  r0,r11,24
 18054c8:	55 29 06 3e 	clrlwi  r9,r9,24
 18054cc:	28 00 00 fe 	cmplwi  r0,254
 18054d0:	7d 43 49 ae 	stbx    r10,r3,r9
 18054d4:	99 66 a3 f9 	stb     r11,-23559(r6)
 18054d8:	40 81 00 0c 	ble-    18054e4 <send_radIR+0xd4>
 18054dc:	38 00 00 00 	li      r0,0
 18054e0:	98 06 a3 f9 	stb     r0,-23559(r6)
 18054e4:	89 46 a3 f9 	lbz     r10,-23559(r6)
 18054e8:	3d 20 01 82 	lis     r9,386
 18054ec:	39 0a 00 01 	addi    r8,r10,1
 18054f0:	89 69 a4 d0 	lbz     r11,-23344(r9)
 18054f4:	55 00 06 3e 	clrlwi  r0,r8,24
 18054f8:	55 4a 06 3e 	clrlwi  r10,r10,24
 18054fc:	28 00 00 fe 	cmplwi  r0,254
 1805500:	7d 63 51 ae 	stbx    r11,r3,r10
 1805504:	3f e0 01 82 	lis     r31,386
 1805508:	3d 80 01 82 	lis     r12,386
 180550c:	38 ab 00 0a 	addi    r5,r11,10
 1805510:	38 eb 00 05 	addi    r7,r11,5
 1805514:	3b c9 a4 d0 	addi    r30,r9,-23344
 1805518:	3b bf a3 fc 	addi    r29,r31,-23556
 180551c:	3b 8c a3 f6 	addi    r28,r12,-23562
 1805520:	98 ff a3 fc 	stb     r7,-23556(r31)
 1805524:	98 ac a3 f6 	stb     r5,-23562(r12)
 1805528:	99 06 a3 f9 	stb     r8,-23559(r6)
 180552c:	40 81 00 0c 	ble-    1805538 <send_radIR+0x128>
 1805530:	38 00 00 00 	li      r0,0
 1805534:	98 06 a3 f9 	stb     r0,-23559(r6)
 1805538:	89 26 a3 f9 	lbz     r9,-23559(r6)
 180553c:	89 7e 00 01 	lbz     r11,1(r30)
 1805540:	39 49 00 01 	addi    r10,r9,1
 1805544:	55 40 06 3e 	clrlwi  r0,r10,24
 1805548:	7d 07 5a 14 	add     r8,r7,r11
 180554c:	55 29 06 3e 	clrlwi  r9,r9,24
 1805550:	28 00 00 fe 	cmplwi  r0,254
 1805554:	7d 63 49 ae 	stbx    r11,r3,r9
 1805558:	7c e5 42 14 	add     r7,r5,r8
 180555c:	99 1f a3 fc 	stb     r8,-23556(r31)
 1805560:	98 ec a3 f6 	stb     r7,-23562(r12)
 1805564:	99 46 a3 f9 	stb     r10,-23559(r6)
 1805568:	40 81 00 0c 	ble-    1805574 <send_radIR+0x164>
 180556c:	38 00 00 00 	li      r0,0
 1805570:	98 06 a3 f9 	stb     r0,-23559(r6)
 1805574:	89 26 a3 f9 	lbz     r9,-23559(r6)
 1805578:	89 7e 00 02 	lbz     r11,2(r30)
 180557c:	39 49 00 01 	addi    r10,r9,1
 1805580:	55 40 06 3e 	clrlwi  r0,r10,24
 1805584:	7d 08 5a 14 	add     r8,r8,r11
 1805588:	55 29 06 3e 	clrlwi  r9,r9,24
 180558c:	28 00 00 fe 	cmplwi  r0,254
 1805590:	7d 63 49 ae 	stbx    r11,r3,r9
 1805594:	7c a7 42 14 	add     r5,r7,r8
 1805598:	99 1f a3 fc 	stb     r8,-23556(r31)
 180559c:	98 ac a3 f6 	stb     r5,-23562(r12)
 18055a0:	99 46 a3 f9 	stb     r10,-23559(r6)
 18055a4:	40 81 00 0c 	ble-    18055b0 <send_radIR+0x1a0>
 18055a8:	38 00 00 00 	li      r0,0
 18055ac:	98 06 a3 f9 	stb     r0,-23559(r6)
 18055b0:	89 26 a3 f9 	lbz     r9,-23559(r6)
 18055b4:	89 7e 00 03 	lbz     r11,3(r30)
 18055b8:	39 49 00 01 	addi    r10,r9,1
 18055bc:	55 40 06 3e 	clrlwi  r0,r10,24
 18055c0:	7c e8 5a 14 	add     r7,r8,r11
 18055c4:	55 29 06 3e 	clrlwi  r9,r9,24
 18055c8:	28 00 00 fe 	cmplwi  r0,254
 18055cc:	7d 63 49 ae 	stbx    r11,r3,r9
 18055d0:	7c a5 3a 14 	add     r5,r5,r7
 18055d4:	98 ff a3 fc 	stb     r7,-23556(r31)
 18055d8:	98 ac a3 f6 	stb     r5,-23562(r12)
 18055dc:	99 46 a3 f9 	stb     r10,-23559(r6)
 18055e0:	40 81 00 0c 	ble-    18055ec <send_radIR+0x1dc>
 18055e4:	38 00 00 00 	li      r0,0
 18055e8:	98 06 a3 f9 	stb     r0,-23559(r6)
 18055ec:	89 66 a3 f9 	lbz     r11,-23559(r6)
 18055f0:	3d 20 01 82 	lis     r9,386
 18055f4:	39 0b 00 01 	addi    r8,r11,1
 18055f8:	89 49 a4 e8 	lbz     r10,-23320(r9)
 18055fc:	55 00 06 3e 	clrlwi  r0,r8,24
 1805600:	7c e7 52 14 	add     r7,r7,r10
 1805604:	55 6b 06 3e 	clrlwi  r11,r11,24
 1805608:	28 00 00 fe 	cmplwi  r0,254
 180560c:	7d 43 59 ae 	stbx    r10,r3,r11
 1805610:	7c a5 3a 14 	add     r5,r5,r7
 1805614:	3b c9 a4 e8 	addi    r30,r9,-23320
 1805618:	98 ff a3 fc 	stb     r7,-23556(r31)
 180561c:	98 ac a3 f6 	stb     r5,-23562(r12)
 1805620:	99 06 a3 f9 	stb     r8,-23559(r6)
 1805624:	40 81 00 0c 	ble-    1805630 <send_radIR+0x220>
 1805628:	38 00 00 00 	li      r0,0
 180562c:	98 06 a3 f9 	stb     r0,-23559(r6)
 1805630:	89 26 a3 f9 	lbz     r9,-23559(r6)
 1805634:	89 7e 00 01 	lbz     r11,1(r30)
 1805638:	39 49 00 01 	addi    r10,r9,1
 180563c:	55 40 06 3e 	clrlwi  r0,r10,24
 1805640:	7d 07 5a 14 	add     r8,r7,r11
 1805644:	55 29 06 3e 	clrlwi  r9,r9,24
 1805648:	28 00 00 fe 	cmplwi  r0,254
 180564c:	7d 63 49 ae 	stbx    r11,r3,r9
 1805650:	7c e5 42 14 	add     r7,r5,r8
 1805654:	99 1f a3 fc 	stb     r8,-23556(r31)
 1805658:	98 ec a3 f6 	stb     r7,-23562(r12)
 180565c:	99 46 a3 f9 	stb     r10,-23559(r6)
 1805660:	40 81 00 0c 	ble-    180566c <send_radIR+0x25c>
 1805664:	38 00 00 00 	li      r0,0
 1805668:	98 06 a3 f9 	stb     r0,-23559(r6)
 180566c:	89 26 a3 f9 	lbz     r9,-23559(r6)
 1805670:	89 7e 00 02 	lbz     r11,2(r30)
 1805674:	39 49 00 01 	addi    r10,r9,1
 1805678:	55 40 06 3e 	clrlwi  r0,r10,24
 180567c:	7d 08 5a 14 	add     r8,r8,r11
 1805680:	55 29 06 3e 	clrlwi  r9,r9,24
 1805684:	28 00 00 fe 	cmplwi  r0,254
 1805688:	7d 63 49 ae 	stbx    r11,r3,r9
 180568c:	7c a7 42 14 	add     r5,r7,r8
 1805690:	99 1f a3 fc 	stb     r8,-23556(r31)
 1805694:	98 ac a3 f6 	stb     r5,-23562(r12)
 1805698:	99 46 a3 f9 	stb     r10,-23559(r6)
 180569c:	40 81 00 0c 	ble-    18056a8 <send_radIR+0x298>
 18056a0:	38 00 00 00 	li      r0,0
 18056a4:	98 06 a3 f9 	stb     r0,-23559(r6)
 18056a8:	89 26 a3 f9 	lbz     r9,-23559(r6)
 18056ac:	89 7e 00 03 	lbz     r11,3(r30)
 18056b0:	39 49 00 01 	addi    r10,r9,1
 18056b4:	55 40 06 3e 	clrlwi  r0,r10,24
 18056b8:	7c e8 5a 14 	add     r7,r8,r11
 18056bc:	55 29 06 3e 	clrlwi  r9,r9,24
 18056c0:	28 00 00 fe 	cmplwi  r0,254
 18056c4:	7d 63 49 ae 	stbx    r11,r3,r9
 18056c8:	7c a5 3a 14 	add     r5,r5,r7
 18056cc:	98 ff a3 fc 	stb     r7,-23556(r31)
 18056d0:	98 ac a3 f6 	stb     r5,-23562(r12)
 18056d4:	99 46 a3 f9 	stb     r10,-23559(r6)
 18056d8:	40 81 00 0c 	ble-    18056e4 <send_radIR+0x2d4>
 18056dc:	38 00 00 00 	li      r0,0
 18056e0:	98 06 a3 f9 	stb     r0,-23559(r6)
 18056e4:	89 64 00 00 	lbz     r11,0(r4)
 18056e8:	3d 20 01 82 	lis     r9,386
 18056ec:	89 49 a4 c8 	lbz     r10,-23352(r9)
 18056f0:	39 0b 00 01 	addi    r8,r11,1
 18056f4:	7c c7 52 14 	add     r6,r7,r10
 18056f8:	55 00 06 3e 	clrlwi  r0,r8,24
 18056fc:	55 6b 06 3e 	clrlwi  r11,r11,24
 1805700:	7d 43 59 ae 	stbx    r10,r3,r11
 1805704:	7c a5 32 14 	add     r5,r5,r6
 1805708:	28 00 00 fe 	cmplwi  r0,254
 180570c:	98 df a3 fc 	stb     r6,-23556(r31)
 1805710:	98 ac a3 f6 	stb     r5,-23562(r12)
 1805714:	3b c9 a4 c8 	addi    r30,r9,-23352
 1805718:	99 04 00 00 	stb     r8,0(r4)
 180571c:	40 81 00 0c 	ble-    1805728 <send_radIR+0x318>
 1805720:	38 00 00 00 	li      r0,0
 1805724:	98 04 00 00 	stb     r0,0(r4)
 1805728:	89 1e 00 01 	lbz     r8,1(r30)
 180572c:	89 24 00 00 	lbz     r9,0(r4)
 1805730:	7d 46 42 14 	add     r10,r6,r8
 1805734:	38 e9 00 01 	addi    r7,r9,1
 1805738:	7d 65 52 14 	add     r11,r5,r10
 180573c:	99 6c a3 f6 	stb     r11,-23562(r12)
 1805740:	54 e0 06 3e 	clrlwi  r0,r7,24
 1805744:	55 29 06 3e 	clrlwi  r9,r9,24
 1805748:	7d 03 49 ae 	stbx    r8,r3,r9
 180574c:	28 00 00 fe 	cmplwi  r0,254
 1805750:	99 5f a3 fc 	stb     r10,-23556(r31)
 1805754:	98 e4 00 00 	stb     r7,0(r4)
 1805758:	40 81 00 0c 	ble-    1805764 <send_radIR+0x354>
 180575c:	38 00 00 00 	li      r0,0
 1805760:	98 04 00 00 	stb     r0,0(r4)
 1805764:	89 24 00 00 	lbz     r9,0(r4)
 1805768:	89 1e 00 02 	lbz     r8,2(r30)
 180576c:	88 1d 00 00 	lbz     r0,0(r29)
 1805770:	89 7c 00 00 	lbz     r11,0(r28)
 1805774:	38 e9 00 01 	addi    r7,r9,1
 1805778:	7c c0 42 14 	add     r6,r0,r8
 180577c:	54 ea 06 3e 	clrlwi  r10,r7,24
 1805780:	55 29 06 3e 	clrlwi  r9,r9,24
 1805784:	7d 03 49 ae 	stbx    r8,r3,r9
 1805788:	7c ab 32 14 	add     r5,r11,r6
 180578c:	28 0a 00 fe 	cmplwi  r10,254
 1805790:	98 dd 00 00 	stb     r6,0(r29)
 1805794:	98 bc 00 00 	stb     r5,0(r28)
 1805798:	98 e4 00 00 	stb     r7,0(r4)
 180579c:	40 81 00 0c 	ble-    18057a8 <send_radIR+0x398>
 18057a0:	38 00 00 00 	li      r0,0
 18057a4:	98 04 00 00 	stb     r0,0(r4)
 18057a8:	89 24 00 00 	lbz     r9,0(r4)
 18057ac:	89 7e 00 03 	lbz     r11,3(r30)
 18057b0:	39 49 00 01 	addi    r10,r9,1
 18057b4:	7c e6 5a 14 	add     r7,r6,r11
 18057b8:	55 40 06 3e 	clrlwi  r0,r10,24
 18057bc:	55 29 06 3e 	clrlwi  r9,r9,24
 18057c0:	7d 63 49 ae 	stbx    r11,r3,r9
 18057c4:	7c c5 3a 14 	add     r6,r5,r7
 18057c8:	28 00 00 fe 	cmplwi  r0,254
 18057cc:	98 fd 00 00 	stb     r7,0(r29)
 18057d0:	98 dc 00 00 	stb     r6,0(r28)
 18057d4:	99 44 00 00 	stb     r10,0(r4)
 18057d8:	40 81 00 0c 	ble-    18057e4 <send_radIR+0x3d4>
 18057dc:	38 00 00 00 	li      r0,0
 18057e0:	98 04 00 00 	stb     r0,0(r4)
 18057e4:	89 64 00 00 	lbz     r11,0(r4)
 18057e8:	3d 20 01 82 	lis     r9,386
 18057ec:	89 49 a3 6a 	lbz     r10,-23702(r9)
 18057f0:	39 0b 00 01 	addi    r8,r11,1
 18057f4:	7c e7 52 14 	add     r7,r7,r10
 18057f8:	55 00 06 3e 	clrlwi  r0,r8,24
 18057fc:	55 6b 06 3e 	clrlwi  r11,r11,24
 1805800:	7d 43 59 ae 	stbx    r10,r3,r11
 1805804:	7c c6 3a 14 	add     r6,r6,r7
 1805808:	28 00 00 fe 	cmplwi  r0,254
 180580c:	98 fd 00 00 	stb     r7,0(r29)
 1805810:	98 dc 00 00 	stb     r6,0(r28)
 1805814:	38 a9 a3 6a 	addi    r5,r9,-23702
 1805818:	99 04 00 00 	stb     r8,0(r4)
 180581c:	40 81 00 0c 	ble-    1805828 <send_radIR+0x418>
 1805820:	38 00 00 00 	li      r0,0
 1805824:	98 04 00 00 	stb     r0,0(r4)
 1805828:	89 24 00 00 	lbz     r9,0(r4)
 180582c:	89 65 00 01 	lbz     r11,1(r5)
 1805830:	39 49 00 01 	addi    r10,r9,1
 1805834:	7c e7 5a 14 	add     r7,r7,r11
 1805838:	55 40 06 3e 	clrlwi  r0,r10,24
 180583c:	55 29 06 3e 	clrlwi  r9,r9,24
 1805840:	7d 63 49 ae 	stbx    r11,r3,r9
 1805844:	7c c6 3a 14 	add     r6,r6,r7
 1805848:	28 00 00 fe 	cmplwi  r0,254
 180584c:	98 fd 00 00 	stb     r7,0(r29)
 1805850:	98 dc 00 00 	stb     r6,0(r28)
 1805854:	99 44 00 00 	stb     r10,0(r4)
 1805858:	40 81 00 0c 	ble-    1805864 <send_radIR+0x454>
 180585c:	38 00 00 00 	li      r0,0
 1805860:	98 04 00 00 	stb     r0,0(r4)
 1805864:	89 64 00 00 	lbz     r11,0(r4)
 1805868:	3d 20 01 82 	lis     r9,386
 180586c:	89 49 a3 6c 	lbz     r10,-23700(r9)
 1805870:	39 0b 00 01 	addi    r8,r11,1
 1805874:	7c e7 52 14 	add     r7,r7,r10
 1805878:	55 00 06 3e 	clrlwi  r0,r8,24
 180587c:	55 6b 06 3e 	clrlwi  r11,r11,24
 1805880:	7d 43 59 ae 	stbx    r10,r3,r11
 1805884:	7c c6 3a 14 	add     r6,r6,r7
 1805888:	28 00 00 fe 	cmplwi  r0,254
 180588c:	98 fd 00 00 	stb     r7,0(r29)
 1805890:	98 dc 00 00 	stb     r6,0(r28)
 1805894:	38 a9 a3 6c 	addi    r5,r9,-23700
 1805898:	99 04 00 00 	stb     r8,0(r4)
 180589c:	40 81 00 0c 	ble-    18058a8 <send_radIR+0x498>
 18058a0:	38 00 00 00 	li      r0,0
 18058a4:	98 04 00 00 	stb     r0,0(r4)
 18058a8:	89 24 00 00 	lbz     r9,0(r4)
 18058ac:	89 65 00 01 	lbz     r11,1(r5)
 18058b0:	39 49 00 01 	addi    r10,r9,1
 18058b4:	7d 07 5a 14 	add     r8,r7,r11
 18058b8:	55 40 06 3e 	clrlwi  r0,r10,24
 18058bc:	55 29 06 3e 	clrlwi  r9,r9,24
 18058c0:	7d 63 49 ae 	stbx    r11,r3,r9
 18058c4:	7c e6 42 14 	add     r7,r6,r8
 18058c8:	28 00 00 fe 	cmplwi  r0,254
 18058cc:	99 1d 00 00 	stb     r8,0(r29)
 18058d0:	98 fc 00 00 	stb     r7,0(r28)
 18058d4:	99 44 00 00 	stb     r10,0(r4)
 18058d8:	40 81 00 0c 	ble-    18058e4 <send_radIR+0x4d4>
 18058dc:	38 00 00 00 	li      r0,0
 18058e0:	98 04 00 00 	stb     r0,0(r4)
 18058e4:	89 24 00 00 	lbz     r9,0(r4)
 18058e8:	39 69 00 01 	addi    r11,r9,1
 18058ec:	55 60 06 3e 	clrlwi  r0,r11,24
 18058f0:	55 29 06 3e 	clrlwi  r9,r9,24
 18058f4:	28 00 00 fe 	cmplwi  r0,254
 18058f8:	7d 03 49 ae 	stbx    r8,r3,r9
 18058fc:	99 64 00 00 	stb     r11,0(r4)
 1805900:	40 81 00 0c 	ble-    180590c <send_radIR+0x4fc>
 1805904:	38 00 00 00 	li      r0,0
 1805908:	98 04 00 00 	stb     r0,0(r4)
 180590c:	89 24 00 00 	lbz     r9,0(r4)
 1805910:	39 69 00 01 	addi    r11,r9,1
 1805914:	55 60 06 3e 	clrlwi  r0,r11,24
 1805918:	55 29 06 3e 	clrlwi  r9,r9,24
 180591c:	28 00 00 fe 	cmplwi  r0,254
 1805920:	7c e3 49 ae 	stbx    r7,r3,r9
 1805924:	99 64 00 00 	stb     r11,0(r4)
 1805928:	40 81 00 0c 	ble-    1805934 <send_radIR+0x524>
 180592c:	38 00 00 00 	li      r0,0
 1805930:	98 04 00 00 	stb     r0,0(r4)
 1805934:	38 c0 00 59 	li      r6,89
 1805938:	88 06 00 00 	lbz     r0,0(r6)
 180593c:	70 07 00 10 	andi.   r7,r0,16
 1805940:	40 82 00 6c 	bne-    18059ac <send_radIR+0x59c>
 1805944:	3d 60 01 82 	lis     r11,386
 1805948:	88 0b a3 fa 	lbz     r0,-23558(r11)
 180594c:	89 2b a3 fa 	lbz     r9,-23558(r11)
 1805950:	7d 03 00 ae 	lbzx    r8,r3,r0
 1805954:	39 29 00 01 	addi    r9,r9,1
 1805958:	99 2b a3 fa 	stb     r9,-23558(r11)
 180595c:	88 0b a3 fa 	lbz     r0,-23558(r11)
 1805960:	3d 40 01 82 	lis     r10,386
 1805964:	28 00 00 fe 	cmplwi  r0,254
 1805968:	3d 20 01 82 	lis     r9,386
 180596c:	99 0a a3 f8 	stb     r8,-23560(r10)
 1805970:	98 e9 a3 fb 	stb     r7,-23557(r9)
 1805974:	40 81 00 08 	ble-    180597c <send_radIR+0x56c>
 1805978:	98 fb a3 fa 	stb     r7,-23558(r27)
 180597c:	39 20 00 58 	li      r9,88
 1805980:	88 09 00 00 	lbz     r0,0(r9)
 1805984:	60 00 00 01 	ori     r0,r0,1
 1805988:	98 09 00 00 	stb     r0,0(r9)
 180598c:	89 66 00 00 	lbz     r11,0(r6)
 1805990:	61 6b 00 10 	ori     r11,r11,16
 1805994:	99 66 00 00 	stb     r11,0(r6)
 1805998:	48 00 00 14 	b       18059ac <send_radIR+0x59c>
 180599c:	3d 60 01 82 	lis     r11,386
 18059a0:	89 2b a3 f7 	lbz     r9,-23561(r11)
 18059a4:	39 29 00 01 	addi    r9,r9,1
 18059a8:	99 2b a3 f7 	stb     r9,-23561(r11)
 18059ac:	83 61 00 0c 	lwz     r27,12(r1)
 18059b0:	83 81 00 10 	lwz     r28,16(r1)
 18059b4:	83 a1 00 14 	lwz     r29,20(r1)
 18059b8:	83 c1 00 18 	lwz     r30,24(r1)
 18059bc:	83 e1 00 1c 	lwz     r31,28(r1)
 18059c0:	38 21 00 20 	addi    r1,r1,32
 18059c4:	4e 80 00 20 	blr

018059c8 <send_takeOff>:
 18059c8:	94 21 ff f0 	stwu    r1,-16(r1)
 18059cc:	93 c1 00 08 	stw     r30,8(r1)
 18059d0:	93 e1 00 0c 	stw     r31,12(r1)
 18059d4:	3d 20 01 82 	lis     r9,386
 18059d8:	88 09 a4 31 	lbz     r0,-23503(r9)
 18059dc:	2c 00 00 00 	cmpwi   r0,0
 18059e0:	41 82 02 48 	beq-    1805c28 <send_takeOff+0x260>
 18059e4:	3c e0 01 82 	lis     r7,386
 18059e8:	a0 07 a4 b4 	lhz     r0,-23372(r7)
 18059ec:	2c 00 00 00 	cmpwi   r0,0
 18059f0:	40 82 02 2c 	bne-    1805c1c <send_takeOff+0x254>
 18059f4:	3d 20 01 82 	lis     r9,386
 18059f8:	c0 09 a4 d4 	lfs     f0,-23340(r9)
 18059fc:	3d 20 01 81 	lis     r9,385
 1805a00:	39 29 9f 58 	addi    r9,r9,-24744
 1805a04:	c9 a9 00 00 	lfd     f13,0(r9)
 1805a08:	fc 00 68 00 	fcmpu   cr0,f0,f13
 1805a0c:	40 81 02 10 	ble-    1805c1c <send_takeOff+0x254>
 1805a10:	3d 20 01 82 	lis     r9,386
 1805a14:	3d 60 01 82 	lis     r11,386
 1805a18:	89 09 a3 f9 	lbz     r8,-23559(r9)
 1805a1c:	88 0b a3 fa 	lbz     r0,-23558(r11)
 1805a20:	39 40 00 01 	li      r10,1
 1805a24:	7c 08 00 40 	cmplw   r8,r0
 1805a28:	3d 20 01 82 	lis     r9,386
 1805a2c:	99 49 a3 4c 	stb     r10,-23732(r9)
 1805a30:	b1 47 a4 b4 	sth     r10,-23372(r7)
 1805a34:	3c c0 01 82 	lis     r6,386
 1805a38:	3f c0 01 82 	lis     r30,386
 1805a3c:	41 80 00 1c 	blt-    1805a58 <send_takeOff+0x90>
 1805a40:	88 1e a3 fa 	lbz     r0,-23558(r30)
 1805a44:	7c 00 40 50 	subf    r0,r0,r8
 1805a48:	20 00 00 ff 	subfic  r0,r0,255
 1805a4c:	2c 00 00 06 	cmpwi   r0,6
 1805a50:	41 81 00 18 	bgt-    1805a68 <send_takeOff+0xa0>
 1805a54:	48 00 01 b8 	b       1805c0c <send_takeOff+0x244>
 1805a58:	88 1e a3 fa 	lbz     r0,-23558(r30)
 1805a5c:	7c 08 00 50 	subf    r0,r8,r0
 1805a60:	2c 00 00 06 	cmpwi   r0,6
 1805a64:	40 81 01 a8 	ble-    1805c0c <send_takeOff+0x244>
 1805a68:	3d 00 01 82 	lis     r8,386
 1805a6c:	89 28 a3 f9 	lbz     r9,-23559(r8)
 1805a70:	3d 60 01 82 	lis     r11,386
 1805a74:	39 49 00 01 	addi    r10,r9,1
 1805a78:	55 40 06 3e 	clrlwi  r0,r10,24
 1805a7c:	28 00 00 fe 	cmplwi  r0,254
 1805a80:	38 8b a8 b4 	addi    r4,r11,-22348
 1805a84:	55 29 06 3e 	clrlwi  r9,r9,24
 1805a88:	38 00 00 05 	li      r0,5
 1805a8c:	7c 04 49 ae 	stbx    r0,r4,r9
 1805a90:	99 48 a3 f9 	stb     r10,-23559(r8)
 1805a94:	40 81 00 0c 	ble-    1805aa0 <send_takeOff+0xd8>
 1805a98:	38 00 00 00 	li      r0,0
 1805a9c:	98 06 a3 f9 	stb     r0,-23559(r6)
 1805aa0:	89 26 a3 f9 	lbz     r9,-23559(r6)
 1805aa4:	39 40 00 04 	li      r10,4
 1805aa8:	39 69 00 01 	addi    r11,r9,1
 1805aac:	55 60 06 3e 	clrlwi  r0,r11,24
 1805ab0:	55 29 06 3e 	clrlwi  r9,r9,24
 1805ab4:	28 00 00 fe 	cmplwi  r0,254
 1805ab8:	7d 44 49 ae 	stbx    r10,r4,r9
 1805abc:	99 66 a3 f9 	stb     r11,-23559(r6)
 1805ac0:	40 81 00 0c 	ble-    1805acc <send_takeOff+0x104>
 1805ac4:	38 00 00 00 	li      r0,0
 1805ac8:	98 06 a3 f9 	stb     r0,-23559(r6)
 1805acc:	89 66 a3 f9 	lbz     r11,-23559(r6)
 1805ad0:	3d 20 01 82 	lis     r9,386
 1805ad4:	39 0b 00 01 	addi    r8,r11,1
 1805ad8:	89 49 a3 44 	lbz     r10,-23740(r9)
 1805adc:	55 00 06 3e 	clrlwi  r0,r8,24
 1805ae0:	38 ea 00 04 	addi    r7,r10,4
 1805ae4:	55 6b 06 3e 	clrlwi  r11,r11,24
 1805ae8:	28 00 00 fe 	cmplwi  r0,254
 1805aec:	7d 44 59 ae 	stbx    r10,r4,r11
 1805af0:	38 a7 00 04 	addi    r5,r7,4
 1805af4:	3c 60 01 82 	lis     r3,386
 1805af8:	3d 80 01 82 	lis     r12,386
 1805afc:	3b e9 a3 44 	addi    r31,r9,-23740
 1805b00:	98 e3 a3 fc 	stb     r7,-23556(r3)
 1805b04:	98 ac a3 f6 	stb     r5,-23562(r12)
 1805b08:	99 06 a3 f9 	stb     r8,-23559(r6)
 1805b0c:	40 81 00 0c 	ble-    1805b18 <send_takeOff+0x150>
 1805b10:	38 00 00 00 	li      r0,0
 1805b14:	98 06 a3 f9 	stb     r0,-23559(r6)
 1805b18:	89 26 a3 f9 	lbz     r9,-23559(r6)
 1805b1c:	89 7f 00 01 	lbz     r11,1(r31)
 1805b20:	39 49 00 01 	addi    r10,r9,1
 1805b24:	55 40 06 3e 	clrlwi  r0,r10,24
 1805b28:	7d 07 5a 14 	add     r8,r7,r11
 1805b2c:	55 29 06 3e 	clrlwi  r9,r9,24
 1805b30:	28 00 00 fe 	cmplwi  r0,254
 1805b34:	7d 64 49 ae 	stbx    r11,r4,r9
 1805b38:	7c e5 42 14 	add     r7,r5,r8
 1805b3c:	99 03 a3 fc 	stb     r8,-23556(r3)
 1805b40:	98 ec a3 f6 	stb     r7,-23562(r12)
 1805b44:	99 46 a3 f9 	stb     r10,-23559(r6)
 1805b48:	40 81 00 0c 	ble-    1805b54 <send_takeOff+0x18c>
 1805b4c:	38 00 00 00 	li      r0,0
 1805b50:	98 06 a3 f9 	stb     r0,-23559(r6)
 1805b54:	89 26 a3 f9 	lbz     r9,-23559(r6)
 1805b58:	39 69 00 01 	addi    r11,r9,1
