
autopilot.elf:     file format elf32-powerpc

Disassembly of section .text:

01800074 <send_boot>:
 1800074:	94 21 ff e0 	stwu    r1,-32(r1)
 1800078:	93 61 00 0c 	stw     r27,12(r1)
 180007c:	93 81 00 10 	stw     r28,16(r1)
 1800080:	93 a1 00 14 	stw     r29,20(r1)
 1800084:	93 c1 00 18 	stw     r30,24(r1)
 1800088:	93 e1 00 1c 	stw     r31,28(r1)
 180008c:	3d 20 01 82 	lis     r9,386
 1800090:	88 09 a3 4d 	lbz     r0,-23731(r9)
 1800094:	2c 00 00 00 	cmpwi   r0,0
 1800098:	41 82 07 78 	beq-    1800810 <send_boot+0x79c>
 180009c:	3d 20 01 82 	lis     r9,386
 18000a0:	3d 60 01 82 	lis     r11,386
 18000a4:	89 29 a3 f9 	lbz     r9,-23559(r9)
 18000a8:	88 0b a3 fa 	lbz     r0,-23558(r11)
 18000ac:	3c c0 01 82 	lis     r6,386
 18000b0:	7c 09 00 40 	cmplw   r9,r0
 18000b4:	3f 60 01 82 	lis     r27,386
 18000b8:	41 80 00 1c 	blt-    18000d4 <send_boot+0x60>
 18000bc:	88 1b a3 fa 	lbz     r0,-23558(r27)
 18000c0:	7c 00 48 50 	subf    r0,r0,r9
 18000c4:	20 00 00 ff 	subfic  r0,r0,255
 18000c8:	2c 00 00 06 	cmpwi   r0,6
 18000cc:	41 81 00 18 	bgt-    18000e4 <send_boot+0x70>
 18000d0:	48 00 01 b8 	b       1800288 <send_boot+0x214>
 18000d4:	88 1b a3 fa 	lbz     r0,-23558(r27)
 18000d8:	7c 09 00 50 	subf    r0,r9,r0
 18000dc:	2c 00 00 06 	cmpwi   r0,6
 18000e0:	40 81 01 a8 	ble-    1800288 <send_boot+0x214>
 18000e4:	3d 00 01 82 	lis     r8,386
 18000e8:	89 28 a3 f9 	lbz     r9,-23559(r8)
 18000ec:	3d 60 01 82 	lis     r11,386
 18000f0:	39 49 00 01 	addi    r10,r9,1
 18000f4:	55 40 06 3e 	clrlwi  r0,r10,24
 18000f8:	28 00 00 fe 	cmplwi  r0,254
 18000fc:	38 8b a8 b4 	addi    r4,r11,-22348
 1800100:	55 29 06 3e 	clrlwi  r9,r9,24
 1800104:	38 00 00 05 	li      r0,5
 1800108:	7c 04 49 ae 	stbx    r0,r4,r9
 180010c:	99 48 a3 f9 	stb     r10,-23559(r8)
 1800110:	40 81 00 0c 	ble-    180011c <send_boot+0xa8>
 1800114:	38 00 00 00 	li      r0,0
 1800118:	98 06 a3 f9 	stb     r0,-23559(r6)
 180011c:	89 26 a3 f9 	lbz     r9,-23559(r6)
 1800120:	39 40 00 01 	li      r10,1
 1800124:	39 69 00 01 	addi    r11,r9,1
 1800128:	55 60 06 3e 	clrlwi  r0,r11,24
 180012c:	55 29 06 3e 	clrlwi  r9,r9,24
 1800130:	28 00 00 fe 	cmplwi  r0,254
 1800134:	7d 44 49 ae 	stbx    r10,r4,r9
 1800138:	99 66 a3 f9 	stb     r11,-23559(r6)
 180013c:	40 81 00 0c 	ble-    1800148 <send_boot+0xd4>
 1800140:	38 00 00 00 	li      r0,0
 1800144:	98 06 a3 f9 	stb     r0,-23559(r6)
 1800148:	89 66 a3 f9 	lbz     r11,-23559(r6)
 180014c:	3d 20 01 82 	lis     r9,386
 1800150:	39 0b 00 01 	addi    r8,r11,1
 1800154:	89 49 a3 42 	lbz     r10,-23742(r9)
 1800158:	55 00 06 3e 	clrlwi  r0,r8,24
 180015c:	38 ea 00 01 	addi    r7,r10,1
 1800160:	55 6b 06 3e 	clrlwi  r11,r11,24
 1800164:	28 00 00 fe 	cmplwi  r0,254
 1800168:	7d 44 59 ae 	stbx    r10,r4,r11
 180016c:	38 a7 00 01 	addi    r5,r7,1
 1800170:	3c 60 01 82 	lis     r3,386
 1800174:	3f e0 01 82 	lis     r31,386
 1800178:	3b c9 a3 42 	addi    r30,r9,-23742
 180017c:	98 e3 a3 fc 	stb     r7,-23556(r3)
 1800180:	98 bf a3 f6 	stb     r5,-23562(r31)
 1800184:	99 06 a3 f9 	stb     r8,-23559(r6)
 1800188:	40 81 00 0c 	ble-    1800194 <send_boot+0x120>
 180018c:	38 00 00 00 	li      r0,0
 1800190:	98 06 a3 f9 	stb     r0,-23559(r6)
 1800194:	89 26 a3 f9 	lbz     r9,-23559(r6)
 1800198:	89 7e 00 01 	lbz     r11,1(r30)
 180019c:	39 49 00 01 	addi    r10,r9,1
 18001a0:	55 40 06 3e 	clrlwi  r0,r10,24
 18001a4:	7d 07 5a 14 	add     r8,r7,r11
 18001a8:	55 29 06 3e 	clrlwi  r9,r9,24
 18001ac:	28 00 00 fe 	cmplwi  r0,254
 18001b0:	7d 64 49 ae 	stbx    r11,r4,r9
 18001b4:	7c e5 42 14 	add     r7,r5,r8
 18001b8:	99 03 a3 fc 	stb     r8,-23556(r3)
 18001bc:	98 ff a3 f6 	stb     r7,-23562(r31)
 18001c0:	99 46 a3 f9 	stb     r10,-23559(r6)
 18001c4:	40 81 00 0c 	ble-    18001d0 <send_boot+0x15c>
 18001c8:	38 00 00 00 	li      r0,0
 18001cc:	98 06 a3 f9 	stb     r0,-23559(r6)
 18001d0:	89 26 a3 f9 	lbz     r9,-23559(r6)
 18001d4:	39 69 00 01 	addi    r11,r9,1
 18001d8:	55 60 06 3e 	clrlwi  r0,r11,24
 18001dc:	55 29 06 3e 	clrlwi  r9,r9,24
 18001e0:	28 00 00 fe 	cmplwi  r0,254
 18001e4:	7d 04 49 ae 	stbx    r8,r4,r9
 18001e8:	99 66 a3 f9 	stb     r11,-23559(r6)
 18001ec:	40 81 00 0c 	ble-    18001f8 <send_boot+0x184>
 18001f0:	38 00 00 00 	li      r0,0
 18001f4:	98 06 a3 f9 	stb     r0,-23559(r6)
 18001f8:	89 26 a3 f9 	lbz     r9,-23559(r6)
 18001fc:	39 69 00 01 	addi    r11,r9,1
 1800200:	55 60 06 3e 	clrlwi  r0,r11,24
 1800204:	55 29 06 3e 	clrlwi  r9,r9,24
 1800208:	28 00 00 fe 	cmplwi  r0,254
 180020c:	7c e4 49 ae 	stbx    r7,r4,r9
 1800210:	99 66 a3 f9 	stb     r11,-23559(r6)
 1800214:	40 81 00 0c 	ble-    1800220 <send_boot+0x1ac>
 1800218:	38 00 00 00 	li      r0,0
 180021c:	98 06 a3 f9 	stb     r0,-23559(r6)
 1800220:	38 a0 00 59 	li      r5,89
 1800224:	88 05 00 00 	lbz     r0,0(r5)
 1800228:	70 07 00 10 	andi.   r7,r0,16
 180022c:	40 82 00 6c 	bne-    1800298 <send_boot+0x224>
 1800230:	3d 60 01 82 	lis     r11,386
 1800234:	88 0b a3 fa 	lbz     r0,-23558(r11)
 1800238:	89 2b a3 fa 	lbz     r9,-23558(r11)
 180023c:	7d 04 00 ae 	lbzx    r8,r4,r0
 1800240:	39 29 00 01 	addi    r9,r9,1
 1800244:	99 2b a3 fa 	stb     r9,-23558(r11)
 1800248:	88 0b a3 fa 	lbz     r0,-23558(r11)
 180024c:	3d 40 01 82 	lis     r10,386
 1800250:	28 00 00 fe 	cmplwi  r0,254
 1800254:	3d 20 01 82 	lis     r9,386
 1800258:	99 0a a3 f8 	stb     r8,-23560(r10)
 180025c:	98 e9 a3 fb 	stb     r7,-23557(r9)
 1800260:	40 81 00 08 	ble-    1800268 <send_boot+0x1f4>
 1800264:	98 fb a3 fa 	stb     r7,-23558(r27)
 1800268:	39 20 00 58 	li      r9,88
 180026c:	88 09 00 00 	lbz     r0,0(r9)
 1800270:	60 00 00 01 	ori     r0,r0,1
 1800274:	98 09 00 00 	stb     r0,0(r9)
 1800278:	89 65 00 00 	lbz     r11,0(r5)
 180027c:	61 6b 00 10 	ori     r11,r11,16
 1800280:	99 65 00 00 	stb     r11,0(r5)
 1800284:	48 00 00 14 	b       1800298 <send_boot+0x224>
 1800288:	3d 60 01 82 	lis     r11,386
 180028c:	89 2b a3 f7 	lbz     r9,-23561(r11)
 1800290:	39 29 00 01 	addi    r9,r9,1
 1800294:	99 2b a3 f7 	stb     r9,-23561(r11)
 1800298:	3d 20 01 82 	lis     r9,386
 180029c:	3d 60 01 82 	lis     r11,386
 18002a0:	89 29 a3 f9 	lbz     r9,-23559(r9)
 18002a4:	88 0b a3 fa 	lbz     r0,-23558(r11)
 18002a8:	7c 09 00 40 	cmplw   r9,r0
 18002ac:	41 80 00 1c 	blt-    18002c8 <send_boot+0x254>
 18002b0:	88 1b a3 fa 	lbz     r0,-23558(r27)
 18002b4:	7c 00 48 50 	subf    r0,r0,r9
 18002b8:	20 00 00 ff 	subfic  r0,r0,255
 18002bc:	2c 00 00 14 	cmpwi   r0,20
 18002c0:	41 81 00 18 	bgt-    18002d8 <send_boot+0x264>
 18002c4:	48 00 05 30 	b       18007f4 <send_boot+0x780>
 18002c8:	88 1b a3 fa 	lbz     r0,-23558(r27)
 18002cc:	7c 09 00 50 	subf    r0,r9,r0
 18002d0:	2c 00 00 14 	cmpwi   r0,20
 18002d4:	40 81 05 20 	ble-    18007f4 <send_boot+0x780>
 18002d8:	3d 60 01 82 	lis     r11,386
 18002dc:	89 2b a3 f9 	lbz     r9,-23559(r11)
 18002e0:	3d 40 01 82 	lis     r10,386
 18002e4:	39 09 00 01 	addi    r8,r9,1
 18002e8:	38 6a a8 b4 	addi    r3,r10,-22348
 18002ec:	55 00 06 3e 	clrlwi  r0,r8,24
 18002f0:	55 29 06 3e 	clrlwi  r9,r9,24
 18002f4:	39 40 00 05 	li      r10,5
 18002f8:	28 00 00 fe 	cmplwi  r0,254
 18002fc:	7d 43 49 ae 	stbx    r10,r3,r9
 1800300:	38 8b a3 f9 	addi    r4,r11,-23559
 1800304:	99 0b a3 f9 	stb     r8,-23559(r11)
 1800308:	40 81 00 0c 	ble-    1800314 <send_boot+0x2a0>
 180030c:	38 00 00 00 	li      r0,0
 1800310:	98 06 a3 f9 	stb     r0,-23559(r6)
 1800314:	89 26 a3 f9 	lbz     r9,-23559(r6)
 1800318:	39 69 00 01 	addi    r11,r9,1
 180031c:	55 60 06 3e 	clrlwi  r0,r11,24
 1800320:	55 29 06 3e 	clrlwi  r9,r9,24
 1800324:	28 00 00 fe 	cmplwi  r0,254
 1800328:	7d 43 49 ae 	stbx    r10,r3,r9
 180032c:	99 66 a3 f9 	stb     r11,-23559(r6)
 1800330:	40 81 00 0c 	ble-    180033c <send_boot+0x2c8>
 1800334:	38 00 00 00 	li      r0,0
 1800338:	98 06 a3 f9 	stb     r0,-23559(r6)
 180033c:	89 46 a3 f9 	lbz     r10,-23559(r6)
 1800340:	3d 20 01 82 	lis     r9,386
 1800344:	39 0a 00 01 	addi    r8,r10,1
 1800348:	89 69 a4 d0 	lbz     r11,-23344(r9)
 180034c:	55 00 06 3e 	clrlwi  r0,r8,24
 1800350:	55 4a 06 3e 	clrlwi  r10,r10,24
 1800354:	28 00 00 fe 	cmplwi  r0,254
 1800358:	7d 63 51 ae 	stbx    r11,r3,r10
 180035c:	3f e0 01 82 	lis     r31,386
 1800360:	3d 80 01 82 	lis     r12,386
 1800364:	38 ab 00 0a 	addi    r5,r11,10
 1800368:	38 eb 00 05 	addi    r7,r11,5
 180036c:	3b c9 a4 d0 	addi    r30,r9,-23344
 1800370:	3b bf a3 fc 	addi    r29,r31,-23556
 1800374:	3b 8c a3 f6 	addi    r28,r12,-23562
 1800378:	98 ff a3 fc 	stb     r7,-23556(r31)
 180037c:	98 ac a3 f6 	stb     r5,-23562(r12)
 1800380:	99 06 a3 f9 	stb     r8,-23559(r6)
 1800384:	40 81 00 0c 	ble-    1800390 <send_boot+0x31c>
 1800388:	38 00 00 00 	li      r0,0
 180038c:	98 06 a3 f9 	stb     r0,-23559(r6)
 1800390:	89 26 a3 f9 	lbz     r9,-23559(r6)
 1800394:	89 7e 00 01 	lbz     r11,1(r30)
 1800398:	39 49 00 01 	addi    r10,r9,1
 180039c:	55 40 06 3e 	clrlwi  r0,r10,24
 18003a0:	7d 07 5a 14 	add     r8,r7,r11
 18003a4:	55 29 06 3e 	clrlwi  r9,r9,24
 18003a8:	28 00 00 fe 	cmplwi  r0,254
 18003ac:	7d 63 49 ae 	stbx    r11,r3,r9
 18003b0:	7c e5 42 14 	add     r7,r5,r8
 18003b4:	99 1f a3 fc 	stb     r8,-23556(r31)
 18003b8:	98 ec a3 f6 	stb     r7,-23562(r12)
 18003bc:	99 46 a3 f9 	stb     r10,-23559(r6)
 18003c0:	40 81 00 0c 	ble-    18003cc <send_boot+0x358>
 18003c4:	38 00 00 00 	li      r0,0
 18003c8:	98 06 a3 f9 	stb     r0,-23559(r6)
 18003cc:	89 26 a3 f9 	lbz     r9,-23559(r6)
 18003d0:	89 7e 00 02 	lbz     r11,2(r30)
 18003d4:	39 49 00 01 	addi    r10,r9,1
 18003d8:	55 40 06 3e 	clrlwi  r0,r10,24
 18003dc:	7d 08 5a 14 	add     r8,r8,r11
 18003e0:	55 29 06 3e 	clrlwi  r9,r9,24
 18003e4:	28 00 00 fe 	cmplwi  r0,254
 18003e8:	7d 63 49 ae 	stbx    r11,r3,r9
 18003ec:	7c a7 42 14 	add     r5,r7,r8
 18003f0:	99 1f a3 fc 	stb     r8,-23556(r31)
 18003f4:	98 ac a3 f6 	stb     r5,-23562(r12)
 18003f8:	99 46 a3 f9 	stb     r10,-23559(r6)
 18003fc:	40 81 00 0c 	ble-    1800408 <send_boot+0x394>
 1800400:	38 00 00 00 	li      r0,0
 1800404:	98 06 a3 f9 	stb     r0,-23559(r6)
 1800408:	89 26 a3 f9 	lbz     r9,-23559(r6)
 180040c:	89 7e 00 03 	lbz     r11,3(r30)
 1800410:	39 49 00 01 	addi    r10,r9,1
 1800414:	55 40 06 3e 	clrlwi  r0,r10,24
 1800418:	7c e8 5a 14 	add     r7,r8,r11
 180041c:	55 29 06 3e 	clrlwi  r9,r9,24
 1800420:	28 00 00 fe 	cmplwi  r0,254
 1800424:	7d 63 49 ae 	stbx    r11,r3,r9
 1800428:	7c a5 3a 14 	add     r5,r5,r7
 180042c:	98 ff a3 fc 	stb     r7,-23556(r31)
 1800430:	98 ac a3 f6 	stb     r5,-23562(r12)
 1800434:	99 46 a3 f9 	stb     r10,-23559(r6)
 1800438:	40 81 00 0c 	ble-    1800444 <send_boot+0x3d0>
 180043c:	38 00 00 00 	li      r0,0
 1800440:	98 06 a3 f9 	stb     r0,-23559(r6)
 1800444:	89 66 a3 f9 	lbz     r11,-23559(r6)
 1800448:	3d 20 01 82 	lis     r9,386
 180044c:	39 0b 00 01 	addi    r8,r11,1
 1800450:	89 49 a4 e8 	lbz     r10,-23320(r9)
 1800454:	55 00 06 3e 	clrlwi  r0,r8,24
 1800458:	7c e7 52 14 	add     r7,r7,r10
 180045c:	55 6b 06 3e 	clrlwi  r11,r11,24
 1800460:	28 00 00 fe 	cmplwi  r0,254
 1800464:	7d 43 59 ae 	stbx    r10,r3,r11
 1800468:	7c a5 3a 14 	add     r5,r5,r7
 180046c:	3b c9 a4 e8 	addi    r30,r9,-23320
 1800470:	98 ff a3 fc 	stb     r7,-23556(r31)
 1800474:	98 ac a3 f6 	stb     r5,-23562(r12)
 1800478:	99 06 a3 f9 	stb     r8,-23559(r6)
 180047c:	40 81 00 0c 	ble-    1800488 <send_boot+0x414>
 1800480:	38 00 00 00 	li      r0,0
 1800484:	98 06 a3 f9 	stb     r0,-23559(r6)
 1800488:	89 26 a3 f9 	lbz     r9,-23559(r6)
 180048c:	89 7e 00 01 	lbz     r11,1(r30)
 1800490:	39 49 00 01 	addi    r10,r9,1
 1800494:	55 40 06 3e 	clrlwi  r0,r10,24
 1800498:	7d 07 5a 14 	add     r8,r7,r11
 180049c:	55 29 06 3e 	clrlwi  r9,r9,24
 18004a0:	28 00 00 fe 	cmplwi  r0,254
 18004a4:	7d 63 49 ae 	stbx    r11,r3,r9
 18004a8:	7c e5 42 14 	add     r7,r5,r8
 18004ac:	99 1f a3 fc 	stb     r8,-23556(r31)
 18004b0:	98 ec a3 f6 	stb     r7,-23562(r12)
 18004b4:	99 46 a3 f9 	stb     r10,-23559(r6)
 18004b8:	40 81 00 0c 	ble-    18004c4 <send_boot+0x450>
 18004bc:	38 00 00 00 	li      r0,0
 18004c0:	98 06 a3 f9 	stb     r0,-23559(r6)
 18004c4:	89 26 a3 f9 	lbz     r9,-23559(r6)
 18004c8:	89 7e 00 02 	lbz     r11,2(r30)
 18004cc:	39 49 00 01 	addi    r10,r9,1
 18004d0:	55 40 06 3e 	clrlwi  r0,r10,24
 18004d4:	7d 08 5a 14 	add     r8,r8,r11
 18004d8:	55 29 06 3e 	clrlwi  r9,r9,24
 18004dc:	28 00 00 fe 	cmplwi  r0,254
 18004e0:	7d 63 49 ae 	stbx    r11,r3,r9
 18004e4:	7c a7 42 14 	add     r5,r7,r8
 18004e8:	99 1f a3 fc 	stb     r8,-23556(r31)
 18004ec:	98 ac a3 f6 	stb     r5,-23562(r12)
 18004f0:	99 46 a3 f9 	stb     r10,-23559(r6)
 18004f4:	40 81 00 0c 	ble-    1800500 <send_boot+0x48c>
 18004f8:	38 00 00 00 	li      r0,0
 18004fc:	98 06 a3 f9 	stb     r0,-23559(r6)
 1800500:	89 26 a3 f9 	lbz     r9,-23559(r6)
 1800504:	89 7e 00 03 	lbz     r11,3(r30)
 1800508:	39 49 00 01 	addi    r10,r9,1
 180050c:	55 40 06 3e 	clrlwi  r0,r10,24
 1800510:	7c e8 5a 14 	add     r7,r8,r11
 1800514:	55 29 06 3e 	clrlwi  r9,r9,24
 1800518:	28 00 00 fe 	cmplwi  r0,254
 180051c:	7d 63 49 ae 	stbx    r11,r3,r9
 1800520:	7c a5 3a 14 	add     r5,r5,r7
 1800524:	98 ff a3 fc 	stb     r7,-23556(r31)
 1800528:	98 ac a3 f6 	stb     r5,-23562(r12)
 180052c:	99 46 a3 f9 	stb     r10,-23559(r6)
 1800530:	40 81 00 0c 	ble-    180053c <send_boot+0x4c8>
 1800534:	38 00 00 00 	li      r0,0
 1800538:	98 06 a3 f9 	stb     r0,-23559(r6)
 180053c:	89 64 00 00 	lbz     r11,0(r4)
 1800540:	3d 20 01 82 	lis     r9,386
 1800544:	89 49 a4 c8 	lbz     r10,-23352(r9)
 1800548:	39 0b 00 01 	addi    r8,r11,1
 180054c:	7c c7 52 14 	add     r6,r7,r10
 1800550:	55 00 06 3e 	clrlwi  r0,r8,24
 1800554:	55 6b 06 3e 	clrlwi  r11,r11,24
 1800558:	7d 43 59 ae 	stbx    r10,r3,r11
 180055c:	7c a5 32 14 	add     r5,r5,r6
 1800560:	28 00 00 fe 	cmplwi  r0,254
 1800564:	98 df a3 fc 	stb     r6,-23556(r31)
 1800568:	98 ac a3 f6 	stb     r5,-23562(r12)
 180056c:	3b c9 a4 c8 	addi    r30,r9,-23352
 1800570:	99 04 00 00 	stb     r8,0(r4)
 1800574:	40 81 00 0c 	ble-    1800580 <send_boot+0x50c>
 1800578:	38 00 00 00 	li      r0,0
 180057c:	98 04 00 00 	stb     r0,0(r4)
 1800580:	89 1e 00 01 	lbz     r8,1(r30)
 1800584:	89 24 00 00 	lbz     r9,0(r4)
 1800588:	7d 46 42 14 	add     r10,r6,r8
 180058c:	38 e9 00 01 	addi    r7,r9,1
 1800590:	7d 65 52 14 	add     r11,r5,r10
 1800594:	99 6c a3 f6 	stb     r11,-23562(r12)
 1800598:	54 e0 06 3e 	clrlwi  r0,r7,24
 180059c:	55 29 06 3e 	clrlwi  r9,r9,24
 18005a0:	7d 03 49 ae 	stbx    r8,r3,r9
 18005a4:	28 00 00 fe 	cmplwi  r0,254
 18005a8:	99 5f a3 fc 	stb     r10,-23556(r31)
 18005ac:	98 e4 00 00 	stb     r7,0(r4)
 18005b0:	40 81 00 0c 	ble-    18005bc <send_boot+0x548>
 18005b4:	38 00 00 00 	li      r0,0
 18005b8:	98 04 00 00 	stb     r0,0(r4)
 18005bc:	89 24 00 00 	lbz     r9,0(r4)
 18005c0:	89 1e 00 02 	lbz     r8,2(r30)
 18005c4:	88 1d 00 00 	lbz     r0,0(r29)
 18005c8:	89 7c 00 00 	lbz     r11,0(r28)
 18005cc:	38 e9 00 01 	addi    r7,r9,1
 18005d0:	7c c0 42 14 	add     r6,r0,r8
 18005d4:	54 ea 06 3e 	clrlwi  r10,r7,24
 18005d8:	55 29 06 3e 	clrlwi  r9,r9,24
 18005dc:	7d 03 49 ae 	stbx    r8,r3,r9
 18005e0:	7c ab 32 14 	add     r5,r11,r6
 18005e4:	28 0a 00 fe 	cmplwi  r10,254
 18005e8:	98 dd 00 00 	stb     r6,0(r29)
 18005ec:	98 bc 00 00 	stb     r5,0(r28)
 18005f0:	98 e4 00 00 	stb     r7,0(r4)
 18005f4:	40 81 00 0c 	ble-    1800600 <send_boot+0x58c>
 18005f8:	38 00 00 00 	li      r0,0
 18005fc:	98 04 00 00 	stb     r0,0(r4)
 1800600:	89 24 00 00 	lbz     r9,0(r4)
 1800604:	89 7e 00 03 	lbz     r11,3(r30)
 1800608:	39 49 00 01 	addi    r10,r9,1
 180060c:	7c e6 5a 14 	add     r7,r6,r11
 1800610:	55 40 06 3e 	clrlwi  r0,r10,24
 1800614:	55 29 06 3e 	clrlwi  r9,r9,24
 1800618:	7d 63 49 ae 	stbx    r11,r3,r9
 180061c:	7c c5 3a 14 	add     r6,r5,r7
 1800620:	28 00 00 fe 	cmplwi  r0,254
 1800624:	98 fd 00 00 	stb     r7,0(r29)
 1800628:	98 dc 00 00 	stb     r6,0(r28)
 180062c:	99 44 00 00 	stb     r10,0(r4)
 1800630:	40 81 00 0c 	ble-    180063c <send_boot+0x5c8>
 1800634:	38 00 00 00 	li      r0,0
 1800638:	98 04 00 00 	stb     r0,0(r4)
 180063c:	89 64 00 00 	lbz     r11,0(r4)
 1800640:	3d 20 01 82 	lis     r9,386
 1800644:	89 49 a3 6a 	lbz     r10,-23702(r9)
 1800648:	39 0b 00 01 	addi    r8,r11,1
 180064c:	7c e7 52 14 	add     r7,r7,r10
 1800650:	55 00 06 3e 	clrlwi  r0,r8,24
 1800654:	55 6b 06 3e 	clrlwi  r11,r11,24
 1800658:	7d 43 59 ae 	stbx    r10,r3,r11
 180065c:	7c c6 3a 14 	add     r6,r6,r7
 1800660:	28 00 00 fe 	cmplwi  r0,254
 1800664:	98 fd 00 00 	stb     r7,0(r29)
 1800668:	98 dc 00 00 	stb     r6,0(r28)
 180066c:	38 a9 a3 6a 	addi    r5,r9,-23702
 1800670:	99 04 00 00 	stb     r8,0(r4)
 1800674:	40 81 00 0c 	ble-    1800680 <send_boot+0x60c>
 1800678:	38 00 00 00 	li      r0,0
 180067c:	98 04 00 00 	stb     r0,0(r4)
 1800680:	89 24 00 00 	lbz     r9,0(r4)
 1800684:	89 65 00 01 	lbz     r11,1(r5)
 1800688:	39 49 00 01 	addi    r10,r9,1
 180068c:	7c e7 5a 14 	add     r7,r7,r11
 1800690:	55 40 06 3e 	clrlwi  r0,r10,24
 1800694:	55 29 06 3e 	clrlwi  r9,r9,24
 1800698:	7d 63 49 ae 	stbx    r11,r3,r9
 180069c:	7c c6 3a 14 	add     r6,r6,r7
 18006a0:	28 00 00 fe 	cmplwi  r0,254
 18006a4:	98 fd 00 00 	stb     r7,0(r29)
 18006a8:	98 dc 00 00 	stb     r6,0(r28)
 18006ac:	99 44 00 00 	stb     r10,0(r4)
 18006b0:	40 81 00 0c 	ble-    18006bc <send_boot+0x648>
 18006b4:	38 00 00 00 	li      r0,0
 18006b8:	98 04 00 00 	stb     r0,0(r4)
 18006bc:	89 64 00 00 	lbz     r11,0(r4)
 18006c0:	3d 20 01 82 	lis     r9,386
 18006c4:	89 49 a3 6c 	lbz     r10,-23700(r9)
 18006c8:	39 0b 00 01 	addi    r8,r11,1
 18006cc:	7c e7 52 14 	add     r7,r7,r10
 18006d0:	55 00 06 3e 	clrlwi  r0,r8,24
 18006d4:	55 6b 06 3e 	clrlwi  r11,r11,24
 18006d8:	7d 43 59 ae 	stbx    r10,r3,r11
 18006dc:	7c c6 3a 14 	add     r6,r6,r7
 18006e0:	28 00 00 fe 	cmplwi  r0,254
 18006e4:	98 fd 00 00 	stb     r7,0(r29)
 18006e8:	98 dc 00 00 	stb     r6,0(r28)
 18006ec:	38 a9 a3 6c 	addi    r5,r9,-23700
 18006f0:	99 04 00 00 	stb     r8,0(r4)
 18006f4:	40 81 00 0c 	ble-    1800700 <send_boot+0x68c>
 18006f8:	38 00 00 00 	li      r0,0
 18006fc:	98 04 00 00 	stb     r0,0(r4)
 1800700:	89 24 00 00 	lbz     r9,0(r4)
 1800704:	89 65 00 01 	lbz     r11,1(r5)
 1800708:	39 49 00 01 	addi    r10,r9,1
 180070c:	7d 07 5a 14 	add     r8,r7,r11
 1800710:	55 40 06 3e 	clrlwi  r0,r10,24
 1800714:	55 29 06 3e 	clrlwi  r9,r9,24
 1800718:	7d 63 49 ae 	stbx    r11,r3,r9
 180071c:	7c e6 42 14 	add     r7,r6,r8
 1800720:	28 00 00 fe 	cmplwi  r0,254
 1800724:	99 1d 00 00 	stb     r8,0(r29)
 1800728:	98 fc 00 00 	stb     r7,0(r28)
 180072c:	99 44 00 00 	stb     r10,0(r4)
 1800730:	40 81 00 0c 	ble-    180073c <send_boot+0x6c8>
 1800734:	38 00 00 00 	li      r0,0
 1800738:	98 04 00 00 	stb     r0,0(r4)
 180073c:	89 24 00 00 	lbz     r9,0(r4)
 1800740:	39 69 00 01 	addi    r11,r9,1
 1800744:	55 60 06 3e 	clrlwi  r0,r11,24
 1800748:	55 29 06 3e 	clrlwi  r9,r9,24
 180074c:	28 00 00 fe 	cmplwi  r0,254
 1800750:	7d 03 49 ae 	stbx    r8,r3,r9
 1800754:	99 64 00 00 	stb     r11,0(r4)
 1800758:	40 81 00 0c 	ble-    1800764 <send_boot+0x6f0>
 180075c:	38 00 00 00 	li      r0,0
 1800760:	98 04 00 00 	stb     r0,0(r4)
 1800764:	89 24 00 00 	lbz     r9,0(r4)
 1800768:	39 69 00 01 	addi    r11,r9,1
 180076c:	55 60 06 3e 	clrlwi  r0,r11,24
 1800770:	55 29 06 3e 	clrlwi  r9,r9,24
 1800774:	28 00 00 fe 	cmplwi  r0,254
 1800778:	7c e3 49 ae 	stbx    r7,r3,r9
 180077c:	99 64 00 00 	stb     r11,0(r4)
 1800780:	40 81 00 0c 	ble-    180078c <send_boot+0x718>
 1800784:	38 00 00 00 	li      r0,0
 1800788:	98 04 00 00 	stb     r0,0(r4)
 180078c:	38 c0 00 59 	li      r6,89
 1800790:	88 06 00 00 	lbz     r0,0(r6)
 1800794:	70 07 00 10 	andi.   r7,r0,16
 1800798:	40 82 00 6c 	bne-    1800804 <send_boot+0x790>
 180079c:	3d 60 01 82 	lis     r11,386
 18007a0:	88 0b a3 fa 	lbz     r0,-23558(r11)
 18007a4:	89 2b a3 fa 	lbz     r9,-23558(r11)
 18007a8:	7d 03 00 ae 	lbzx    r8,r3,r0
 18007ac:	39 29 00 01 	addi    r9,r9,1
 18007b0:	99 2b a3 fa 	stb     r9,-23558(r11)
 18007b4:	88 0b a3 fa 	lbz     r0,-23558(r11)
 18007b8:	3d 40 01 82 	lis     r10,386
 18007bc:	28 00 00 fe 	cmplwi  r0,254
 18007c0:	3d 20 01 82 	lis     r9,386
 18007c4:	99 0a a3 f8 	stb     r8,-23560(r10)
 18007c8:	98 e9 a3 fb 	stb     r7,-23557(r9)
 18007cc:	40 81 00 08 	ble-    18007d4 <send_boot+0x760>
 18007d0:	98 fb a3 fa 	stb     r7,-23558(r27)
 18007d4:	39 20 00 58 	li      r9,88
 18007d8:	88 09 00 00 	lbz     r0,0(r9)
 18007dc:	60 00 00 01 	ori     r0,r0,1
 18007e0:	98 09 00 00 	stb     r0,0(r9)
 18007e4:	89 66 00 00 	lbz     r11,0(r6)
 18007e8:	61 6b 00 10 	ori     r11,r11,16
 18007ec:	99 66 00 00 	stb     r11,0(r6)
 18007f0:	48 00 00 14 	b       1800804 <send_boot+0x790>
 18007f4:	3d 60 01 82 	lis     r11,386
 18007f8:	89 2b a3 f7 	lbz     r9,-23561(r11)
 18007fc:	39 29 00 01 	addi    r9,r9,1
 1800800:	99 2b a3 f7 	stb     r9,-23561(r11)
 1800804:	3d 20 01 82 	lis     r9,386
 1800808:	38 00 00 00 	li      r0,0
 180080c:	98 09 a3 4d 	stb     r0,-23731(r9)
 1800810:	83 61 00 0c 	lwz     r27,12(r1)
 1800814:	83 81 00 10 	lwz     r28,16(r1)
 1800818:	83 a1 00 14 	lwz     r29,20(r1)
 180081c:	83 c1 00 18 	lwz     r30,24(r1)
 1800820:	83 e1 00 1c 	lwz     r31,28(r1)
 1800824:	38 21 00 20 	addi    r1,r1,32
 1800828:	4e 80 00 20 	blr

0180082c <send_attitude>:
 180082c:	94 21 ff e0 	stwu    r1,-32(r1)
 1800830:	93 61 00 0c 	stw     r27,12(r1)
 1800834:	93 81 00 10 	stw     r28,16(r1)
 1800838:	93 a1 00 14 	stw     r29,20(r1)
 180083c:	93 c1 00 18 	stw     r30,24(r1)
 1800840:	93 e1 00 1c 	stw     r31,28(r1)
 1800844:	3d 20 01 82 	lis     r9,386
 1800848:	89 49 a3 4d 	lbz     r10,-23731(r9)
 180084c:	2c 0a 00 00 	cmpwi   r10,0
 1800850:	40 82 04 c8 	bne-    1800d18 <send_attitude+0x4ec>
 1800854:	3d 60 01 82 	lis     r11,386
 1800858:	89 2b a3 e7 	lbz     r9,-23577(r11)
 180085c:	39 29 00 01 	addi    r9,r9,1
 1800860:	55 20 06 3e 	clrlwi  r0,r9,24
 1800864:	2c 00 00 fa 	cmpwi   r0,250
 1800868:	99 2b a3 e7 	stb     r9,-23577(r11)
 180086c:	40 82 00 08 	bne-    1800874 <send_attitude+0x48>
 1800870:	99 4b a3 e7 	stb     r10,-23577(r11)
 1800874:	88 0b a3 e7 	lbz     r0,-23577(r11)
 1800878:	3d 20 cc cc 	lis     r9,-13108
 180087c:	61 29 cc cd 	ori     r9,r9,52429
 1800880:	7d 20 48 16 	mulhwu  r9,r0,r9
 1800884:	55 29 f0 be 	rlwinm  r9,r9,30,2,31
 1800888:	55 2b 10 3a 	rlwinm  r11,r9,2,0,29
 180088c:	7d 6b 4a 14 	add     r11,r11,r9
 1800890:	7c 0b 00 50 	subf    r0,r11,r0
 1800894:	54 00 06 3e 	clrlwi  r0,r0,24
 1800898:	2c 00 00 00 	cmpwi   r0,0
 180089c:	40 82 04 7c 	bne-    1800d18 <send_attitude+0x4ec>
 18008a0:	3d 20 01 82 	lis     r9,386
 18008a4:	3d 60 01 82 	lis     r11,386
 18008a8:	89 29 a3 f9 	lbz     r9,-23559(r9)
 18008ac:	88 0b a3 fa 	lbz     r0,-23558(r11)
 18008b0:	3c c0 01 82 	lis     r6,386
 18008b4:	7c 09 00 40 	cmplw   r9,r0
 18008b8:	3f 60 01 82 	lis     r27,386
 18008bc:	41 80 00 1c 	blt-    18008d8 <send_attitude+0xac>
 18008c0:	88 1b a3 fa 	lbz     r0,-23558(r27)
 18008c4:	7c 00 48 50 	subf    r0,r0,r9
 18008c8:	20 00 00 ff 	subfic  r0,r0,255
 18008cc:	2c 00 00 10 	cmpwi   r0,16
 18008d0:	41 81 00 18 	bgt-    18008e8 <send_attitude+0xbc>
 18008d4:	48 00 04 34 	b       1800d08 <send_attitude+0x4dc>
 18008d8:	88 1b a3 fa 	lbz     r0,-23558(r27)
 18008dc:	7c 09 00 50 	subf    r0,r9,r0
 18008e0:	2c 00 00 10 	cmpwi   r0,16
 18008e4:	40 81 04 24 	ble-    1800d08 <send_attitude+0x4dc>
 18008e8:	3d 60 01 82 	lis     r11,386
 18008ec:	89 2b a3 f9 	lbz     r9,-23559(r11)
 18008f0:	3d 40 01 82 	lis     r10,386
 18008f4:	39 09 00 01 	addi    r8,r9,1
 18008f8:	55 00 06 3e 	clrlwi  r0,r8,24
 18008fc:	28 00 00 fe 	cmplwi  r0,254
 1800900:	38 6a a8 b4 	addi    r3,r10,-22348
 1800904:	55 29 06 3e 	clrlwi  r9,r9,24
 1800908:	38 00 00 05 	li      r0,5
 180090c:	7c 03 49 ae 	stbx    r0,r3,r9
 1800910:	38 8b a3 f9 	addi    r4,r11,-23559
 1800914:	99 0b a3 f9 	stb     r8,-23559(r11)
 1800918:	40 81 00 0c 	ble-    1800924 <send_attitude+0xf8>
 180091c:	38 00 00 00 	li      r0,0
 1800920:	98 06 a3 f9 	stb     r0,-23559(r6)
 1800924:	89 26 a3 f9 	lbz     r9,-23559(r6)
 1800928:	39 40 00 06 	li      r10,6
 180092c:	39 69 00 01 	addi    r11,r9,1
 1800930:	55 60 06 3e 	clrlwi  r0,r11,24
 1800934:	55 29 06 3e 	clrlwi  r9,r9,24
 1800938:	28 00 00 fe 	cmplwi  r0,254
 180093c:	7d 43 49 ae 	stbx    r10,r3,r9
 1800940:	99 66 a3 f9 	stb     r11,-23559(r6)
 1800944:	40 81 00 0c 	ble-    1800950 <send_attitude+0x124>
 1800948:	38 00 00 00 	li      r0,0
 180094c:	98 06 a3 f9 	stb     r0,-23559(r6)
 1800950:	89 46 a3 f9 	lbz     r10,-23559(r6)
 1800954:	3d 20 01 82 	lis     r9,386
 1800958:	39 0a 00 01 	addi    r8,r10,1
 180095c:	89 69 a4 d8 	lbz     r11,-23336(r9)
 1800960:	55 00 06 3e 	clrlwi  r0,r8,24
 1800964:	55 4a 06 3e 	clrlwi  r10,r10,24
 1800968:	28 00 00 fe 	cmplwi  r0,254
 180096c:	7d 63 51 ae 	stbx    r11,r3,r10
 1800970:	3f e0 01 82 	lis     r31,386
 1800974:	3d 80 01 82 	lis     r12,386
 1800978:	38 ab 00 0c 	addi    r5,r11,12
 180097c:	38 eb 00 06 	addi    r7,r11,6
 1800980:	3b c9 a4 d8 	addi    r30,r9,-23336
 1800984:	3b bf a3 fc 	addi    r29,r31,-23556
 1800988:	3b 8c a3 f6 	addi    r28,r12,-23562
 180098c:	98 ff a3 fc 	stb     r7,-23556(r31)
 1800990:	98 ac a3 f6 	stb     r5,-23562(r12)
 1800994:	99 06 a3 f9 	stb     r8,-23559(r6)
 1800998:	40 81 00 0c 	ble-    18009a4 <send_attitude+0x178>
 180099c:	38 00 00 00 	li      r0,0
 18009a0:	98 06 a3 f9 	stb     r0,-23559(r6)
 18009a4:	89 26 a3 f9 	lbz     r9,-23559(r6)
 18009a8:	89 7e 00 01 	lbz     r11,1(r30)
 18009ac:	39 49 00 01 	addi    r10,r9,1
 18009b0:	55 40 06 3e 	clrlwi  r0,r10,24
 18009b4:	7d 07 5a 14 	add     r8,r7,r11
 18009b8:	55 29 06 3e 	clrlwi  r9,r9,24
 18009bc:	28 00 00 fe 	cmplwi  r0,254
 18009c0:	7d 63 49 ae 	stbx    r11,r3,r9
 18009c4:	7c e5 42 14 	add     r7,r5,r8
 18009c8:	99 1f a3 fc 	stb     r8,-23556(r31)
 18009cc:	98 ec a3 f6 	stb     r7,-23562(r12)
 18009d0:	99 46 a3 f9 	stb     r10,-23559(r6)
 18009d4:	40 81 00 0c 	ble-    18009e0 <send_attitude+0x1b4>
 18009d8:	38 00 00 00 	li      r0,0
 18009dc:	98 06 a3 f9 	stb     r0,-23559(r6)
 18009e0:	89 26 a3 f9 	lbz     r9,-23559(r6)
 18009e4:	89 7e 00 02 	lbz     r11,2(r30)
 18009e8:	39 49 00 01 	addi    r10,r9,1
 18009ec:	55 40 06 3e 	clrlwi  r0,r10,24
 18009f0:	7d 08 5a 14 	add     r8,r8,r11
 18009f4:	55 29 06 3e 	clrlwi  r9,r9,24
 18009f8:	28 00 00 fe 	cmplwi  r0,254
 18009fc:	7d 63 49 ae 	stbx    r11,r3,r9
 1800a00:	7c a7 42 14 	add     r5,r7,r8
 1800a04:	99 1f a3 fc 	stb     r8,-23556(r31)
 1800a08:	98 ac a3 f6 	stb     r5,-23562(r12)
 1800a0c:	99 46 a3 f9 	stb     r10,-23559(r6)
 1800a10:	40 81 00 0c 	ble-    1800a1c <send_attitude+0x1f0>
 1800a14:	38 00 00 00 	li      r0,0
 1800a18:	98 06 a3 f9 	stb     r0,-23559(r6)
 1800a1c:	89 26 a3 f9 	lbz     r9,-23559(r6)
 1800a20:	89 7e 00 03 	lbz     r11,3(r30)
 1800a24:	39 49 00 01 	addi    r10,r9,1
 1800a28:	55 40 06 3e 	clrlwi  r0,r10,24
 1800a2c:	7c e8 5a 14 	add     r7,r8,r11
 1800a30:	55 29 06 3e 	clrlwi  r9,r9,24
 1800a34:	28 00 00 fe 	cmplwi  r0,254
 1800a38:	7d 63 49 ae 	stbx    r11,r3,r9
 1800a3c:	7c a5 3a 14 	add     r5,r5,r7
 1800a40:	98 ff a3 fc 	stb     r7,-23556(r31)
 1800a44:	98 ac a3 f6 	stb     r5,-23562(r12)
 1800a48:	99 46 a3 f9 	stb     r10,-23559(r6)
 1800a4c:	40 81 00 0c 	ble-    1800a58 <send_attitude+0x22c>
 1800a50:	38 00 00 00 	li      r0,0
 1800a54:	98 06 a3 f9 	stb     r0,-23559(r6)
 1800a58:	89 66 a3 f9 	lbz     r11,-23559(r6)
 1800a5c:	3d 20 01 82 	lis     r9,386
 1800a60:	39 0b 00 01 	addi    r8,r11,1
 1800a64:	89 49 a4 bc 	lbz     r10,-23364(r9)
 1800a68:	55 00 06 3e 	clrlwi  r0,r8,24
 1800a6c:	7c e7 52 14 	add     r7,r7,r10
 1800a70:	55 6b 06 3e 	clrlwi  r11,r11,24
 1800a74:	28 00 00 fe 	cmplwi  r0,254
 1800a78:	7d 43 59 ae 	stbx    r10,r3,r11
 1800a7c:	7c a5 3a 14 	add     r5,r5,r7
 1800a80:	3b c9 a4 bc 	addi    r30,r9,-23364
 1800a84:	98 ff a3 fc 	stb     r7,-23556(r31)
 1800a88:	98 ac a3 f6 	stb     r5,-23562(r12)
 1800a8c:	99 06 a3 f9 	stb     r8,-23559(r6)
 1800a90:	40 81 00 0c 	ble-    1800a9c <send_attitude+0x270>
 1800a94:	38 00 00 00 	li      r0,0
 1800a98:	98 06 a3 f9 	stb     r0,-23559(r6)
 1800a9c:	89 26 a3 f9 	lbz     r9,-23559(r6)
 1800aa0:	89 7e 00 01 	lbz     r11,1(r30)
 1800aa4:	39 49 00 01 	addi    r10,r9,1
 1800aa8:	55 40 06 3e 	clrlwi  r0,r10,24
 1800aac:	7d 07 5a 14 	add     r8,r7,r11
 1800ab0:	55 29 06 3e 	clrlwi  r9,r9,24
 1800ab4:	28 00 00 fe 	cmplwi  r0,254
 1800ab8:	7d 63 49 ae 	stbx    r11,r3,r9
 1800abc:	7c e5 42 14 	add     r7,r5,r8
 1800ac0:	99 1f a3 fc 	stb     r8,-23556(r31)
 1800ac4:	98 ec a3 f6 	stb     r7,-23562(r12)
 1800ac8:	99 46 a3 f9 	stb     r10,-23559(r6)
 1800acc:	40 81 00 0c 	ble-    1800ad8 <send_attitude+0x2ac>
 1800ad0:	38 00 00 00 	li      r0,0
 1800ad4:	98 06 a3 f9 	stb     r0,-23559(r6)
 1800ad8:	89 26 a3 f9 	lbz     r9,-23559(r6)
 1800adc:	89 7e 00 02 	lbz     r11,2(r30)
 1800ae0:	39 49 00 01 	addi    r10,r9,1
 1800ae4:	55 40 06 3e 	clrlwi  r0,r10,24
 1800ae8:	7d 08 5a 14 	add     r8,r8,r11
 1800aec:	55 29 06 3e 	clrlwi  r9,r9,24
 1800af0:	28 00 00 fe 	cmplwi  r0,254
 1800af4:	7d 63 49 ae 	stbx    r11,r3,r9
 1800af8:	7c a7 42 14 	add     r5,r7,r8
 1800afc:	99 1f a3 fc 	stb     r8,-23556(r31)
 1800b00:	98 ac a3 f6 	stb     r5,-23562(r12)
 1800b04:	99 46 a3 f9 	stb     r10,-23559(r6)
 1800b08:	40 81 00 0c 	ble-    1800b14 <send_attitude+0x2e8>
 1800b0c:	38 00 00 00 	li      r0,0
 1800b10:	98 06 a3 f9 	stb     r0,-23559(r6)
 1800b14:	89 26 a3 f9 	lbz     r9,-23559(r6)
 1800b18:	89 7e 00 03 	lbz     r11,3(r30)
 1800b1c:	39 49 00 01 	addi    r10,r9,1
 1800b20:	55 40 06 3e 	clrlwi  r0,r10,24
 1800b24:	7c e8 5a 14 	add     r7,r8,r11
 1800b28:	55 29 06 3e 	clrlwi  r9,r9,24
 1800b2c:	28 00 00 fe 	cmplwi  r0,254
 1800b30:	7d 63 49 ae 	stbx    r11,r3,r9
 1800b34:	7c a5 3a 14 	add     r5,r5,r7
 1800b38:	98 ff a3 fc 	stb     r7,-23556(r31)
 1800b3c:	98 ac a3 f6 	stb     r5,-23562(r12)
 1800b40:	99 46 a3 f9 	stb     r10,-23559(r6)
 1800b44:	40 81 00 0c 	ble-    1800b50 <send_attitude+0x324>
 1800b48:	38 00 00 00 	li      r0,0
 1800b4c:	98 06 a3 f9 	stb     r0,-23559(r6)
 1800b50:	89 64 00 00 	lbz     r11,0(r4)
 1800b54:	3d 20 01 82 	lis     r9,386
 1800b58:	89 49 a4 cc 	lbz     r10,-23348(r9)
 1800b5c:	39 0b 00 01 	addi    r8,r11,1
 1800b60:	7c c7 52 14 	add     r6,r7,r10
 1800b64:	55 00 06 3e 	clrlwi  r0,r8,24
 1800b68:	55 6b 06 3e 	clrlwi  r11,r11,24
 1800b6c:	7d 43 59 ae 	stbx    r10,r3,r11
 1800b70:	7c a5 32 14 	add     r5,r5,r6
 1800b74:	28 00 00 fe 	cmplwi  r0,254
 1800b78:	98 df a3 fc 	stb     r6,-23556(r31)
 1800b7c:	98 ac a3 f6 	stb     r5,-23562(r12)
 1800b80:	3b c9 a4 cc 	addi    r30,r9,-23348
 1800b84:	99 04 00 00 	stb     r8,0(r4)
 1800b88:	40 81 00 0c 	ble-    1800b94 <send_attitude+0x368>
 1800b8c:	38 00 00 00 	li      r0,0
 1800b90:	98 04 00 00 	stb     r0,0(r4)
 1800b94:	89 1e 00 01 	lbz     r8,1(r30)
 1800b98:	89 24 00 00 	lbz     r9,0(r4)
 1800b9c:	7d 46 42 14 	add     r10,r6,r8
 1800ba0:	38 e9 00 01 	addi    r7,r9,1
 1800ba4:	7d 65 52 14 	add     r11,r5,r10
 1800ba8:	99 6c a3 f6 	stb     r11,-23562(r12)
 1800bac:	54 e0 06 3e 	clrlwi  r0,r7,24
 1800bb0:	55 29 06 3e 	clrlwi  r9,r9,24
 1800bb4:	7d 03 49 ae 	stbx    r8,r3,r9
 1800bb8:	28 00 00 fe 	cmplwi  r0,254
 1800bbc:	99 5f a3 fc 	stb     r10,-23556(r31)
 1800bc0:	98 e4 00 00 	stb     r7,0(r4)
 1800bc4:	40 81 00 0c 	ble-    1800bd0 <send_attitude+0x3a4>
 1800bc8:	38 00 00 00 	li      r0,0
 1800bcc:	98 04 00 00 	stb     r0,0(r4)
 1800bd0:	89 24 00 00 	lbz     r9,0(r4)
 1800bd4:	89 1e 00 02 	lbz     r8,2(r30)
 1800bd8:	88 1d 00 00 	lbz     r0,0(r29)
 1800bdc:	89 7c 00 00 	lbz     r11,0(r28)
 1800be0:	38 e9 00 01 	addi    r7,r9,1
 1800be4:	7c c0 42 14 	add     r6,r0,r8
 1800be8:	54 ea 06 3e 	clrlwi  r10,r7,24
 1800bec:	55 29 06 3e 	clrlwi  r9,r9,24
 1800bf0:	7d 03 49 ae 	stbx    r8,r3,r9
 1800bf4:	7c ab 32 14 	add     r5,r11,r6
 1800bf8:	28 0a 00 fe 	cmplwi  r10,254
 1800bfc:	98 dd 00 00 	stb     r6,0(r29)
 1800c00:	98 bc 00 00 	stb     r5,0(r28)
 1800c04:	98 e4 00 00 	stb     r7,0(r4)
 1800c08:	40 81 00 0c 	ble-    1800c14 <send_attitude+0x3e8>
 1800c0c:	38 00 00 00 	li      r0,0
 1800c10:	98 04 00 00 	stb     r0,0(r4)
 1800c14:	89 24 00 00 	lbz     r9,0(r4)
 1800c18:	89 7e 00 03 	lbz     r11,3(r30)
 1800c1c:	39 49 00 01 	addi    r10,r9,1
 1800c20:	7d 06 5a 14 	add     r8,r6,r11
 1800c24:	55 40 06 3e 	clrlwi  r0,r10,24
 1800c28:	55 29 06 3e 	clrlwi  r9,r9,24
 1800c2c:	7d 63 49 ae 	stbx    r11,r3,r9
 1800c30:	7c e5 42 14 	add     r7,r5,r8
 1800c34:	28 00 00 fe 	cmplwi  r0,254
 1800c38:	99 1d 00 00 	stb     r8,0(r29)
 1800c3c:	98 fc 00 00 	stb     r7,0(r28)
 1800c40:	99 44 00 00 	stb     r10,0(r4)
 1800c44:	40 81 00 0c 	ble-    1800c50 <send_attitude+0x424>
 1800c48:	38 00 00 00 	li      r0,0
 1800c4c:	98 04 00 00 	stb     r0,0(r4)
 1800c50:	89 24 00 00 	lbz     r9,0(r4)
 1800c54:	39 69 00 01 	addi    r11,r9,1
 1800c58:	55 60 06 3e 	clrlwi  r0,r11,24
 1800c5c:	55 29 06 3e 	clrlwi  r9,r9,24
 1800c60:	28 00 00 fe 	cmplwi  r0,254
 1800c64:	7d 03 49 ae 	stbx    r8,r3,r9
 1800c68:	99 64 00 00 	stb     r11,0(r4)
 1800c6c:	40 81 00 0c 	ble-    1800c78 <send_attitude+0x44c>
 1800c70:	38 00 00 00 	li      r0,0
 1800c74:	98 04 00 00 	stb     r0,0(r4)
 1800c78:	89 24 00 00 	lbz     r9,0(r4)
 1800c7c:	39 69 00 01 	addi    r11,r9,1
 1800c80:	55 60 06 3e 	clrlwi  r0,r11,24
 1800c84:	55 29 06 3e 	clrlwi  r9,r9,24
 1800c88:	28 00 00 fe 	cmplwi  r0,254
 1800c8c:	7c e3 49 ae 	stbx    r7,r3,r9
 1800c90:	99 64 00 00 	stb     r11,0(r4)
 1800c94:	40 81 00 0c 	ble-    1800ca0 <send_attitude+0x474>
 1800c98:	38 00 00 00 	li      r0,0
 1800c9c:	98 04 00 00 	stb     r0,0(r4)
 1800ca0:	38 c0 00 59 	li      r6,89
 1800ca4:	88 06 00 00 	lbz     r0,0(r6)
 1800ca8:	70 07 00 10 	andi.   r7,r0,16
 1800cac:	40 82 00 6c 	bne-    1800d18 <send_attitude+0x4ec>
 1800cb0:	3d 60 01 82 	lis     r11,386
 1800cb4:	88 0b a3 fa 	lbz     r0,-23558(r11)
 1800cb8:	89 2b a3 fa 	lbz     r9,-23558(r11)
 1800cbc:	7d 03 00 ae 	lbzx    r8,r3,r0
 1800cc0:	39 29 00 01 	addi    r9,r9,1
 1800cc4:	99 2b a3 fa 	stb     r9,-23558(r11)
 1800cc8:	88 0b a3 fa 	lbz     r0,-23558(r11)
 1800ccc:	3d 40 01 82 	lis     r10,386
 1800cd0:	28 00 00 fe 	cmplwi  r0,254
 1800cd4:	3d 20 01 82 	lis     r9,386
 1800cd8:	99 0a a3 f8 	stb     r8,-23560(r10)
 1800cdc:	98 e9 a3 fb 	stb     r7,-23557(r9)
 1800ce0:	40 81 00 08 	ble-    1800ce8 <send_attitude+0x4bc>
 1800ce4:	98 fb a3 fa 	stb     r7,-23558(r27)
 1800ce8:	39 20 00 58 	li      r9,88
 1800cec:	88 09 00 00 	lbz     r0,0(r9)
 1800cf0:	60 00 00 01 	ori     r0,r0,1
 1800cf4:	98 09 00 00 	stb     r0,0(r9)
 1800cf8:	89 66 00 00 	lbz     r11,0(r6)
 1800cfc:	61 6b 00 10 	ori     r11,r11,16
 1800d00:	99 66 00 00 	stb     r11,0(r6)
 1800d04:	48 00 00 14 	b       1800d18 <send_attitude+0x4ec>
 1800d08:	3d 60 01 82 	lis     r11,386
 1800d0c:	89 2b a3 f7 	lbz     r9,-23561(r11)
 1800d10:	39 29 00 01 	addi    r9,r9,1
 1800d14:	99 2b a3 f7 	stb     r9,-23561(r11)
 1800d18:	83 61 00 0c 	lwz     r27,12(r1)
 1800d1c:	83 81 00 10 	lwz     r28,16(r1)
 1800d20:	83 a1 00 14 	lwz     r29,20(r1)
 1800d24:	83 c1 00 18 	lwz     r30,24(r1)
 1800d28:	83 e1 00 1c 	lwz     r31,28(r1)
 1800d2c:	38 21 00 20 	addi    r1,r1,32
 1800d30:	4e 80 00 20 	blr

01800d34 <send_adc>:
 1800d34:	94 21 ff f0 	stwu    r1,-16(r1)
 1800d38:	93 c1 00 08 	stw     r30,8(r1)
 1800d3c:	93 e1 00 0c 	stw     r31,12(r1)
 1800d40:	3d 20 01 82 	lis     r9,386
 1800d44:	88 09 a3 4d 	lbz     r0,-23731(r9)
 1800d48:	2c 00 00 00 	cmpwi   r0,0
 1800d4c:	40 82 02 b0 	bne-    1800ffc <send_adc+0x2c8>
 1800d50:	3d 20 01 82 	lis     r9,386
 1800d54:	89 69 a3 e7 	lbz     r11,-23577(r9)
 1800d58:	3c 00 cc cc 	lis     r0,-13108
 1800d5c:	60 00 cc cd 	ori     r0,r0,52429
 1800d60:	7c 0b 00 16 	mulhwu  r0,r11,r0
 1800d64:	54 00 f0 be 	rlwinm  r0,r0,30,2,31
 1800d68:	54 09 10 3a 	rlwinm  r9,r0,2,0,29
 1800d6c:	7d 29 02 14 	add     r9,r9,r0
 1800d70:	7d 69 58 50 	subf    r11,r9,r11
 1800d74:	55 6b 06 3e 	clrlwi  r11,r11,24
 1800d78:	2c 0b 00 01 	cmpwi   r11,1
 1800d7c:	40 82 02 80 	bne-    1800ffc <send_adc+0x2c8>
 1800d80:	3d 20 01 82 	lis     r9,386
 1800d84:	3d 60 01 82 	lis     r11,386
 1800d88:	89 29 a3 f9 	lbz     r9,-23559(r9)
 1800d8c:	88 0b a3 fa 	lbz     r0,-23558(r11)
 1800d90:	3c c0 01 82 	lis     r6,386
 1800d94:	7c 09 00 40 	cmplw   r9,r0
 1800d98:	3f c0 01 82 	lis     r30,386
 1800d9c:	41 80 00 1c 	blt-    1800db8 <send_adc+0x84>
 1800da0:	88 1e a3 fa 	lbz     r0,-23558(r30)
 1800da4:	7c 00 48 50 	subf    r0,r0,r9
 1800da8:	20 00 00 ff 	subfic  r0,r0,255
 1800dac:	2c 00 00 08 	cmpwi   r0,8
 1800db0:	41 81 00 18 	bgt-    1800dc8 <send_adc+0x94>
 1800db4:	48 00 02 38 	b       1800fec <send_adc+0x2b8>
 1800db8:	88 1e a3 fa 	lbz     r0,-23558(r30)
 1800dbc:	7c 09 00 50 	subf    r0,r9,r0
 1800dc0:	2c 00 00 08 	cmpwi   r0,8
 1800dc4:	40 81 02 28 	ble-    1800fec <send_adc+0x2b8>
 1800dc8:	3d 00 01 82 	lis     r8,386
 1800dcc:	89 28 a3 f9 	lbz     r9,-23559(r8)
 1800dd0:	3d 60 01 82 	lis     r11,386
 1800dd4:	39 49 00 01 	addi    r10,r9,1
 1800dd8:	55 40 06 3e 	clrlwi  r0,r10,24
 1800ddc:	28 00 00 fe 	cmplwi  r0,254
 1800de0:	38 8b a8 b4 	addi    r4,r11,-22348
 1800de4:	55 29 06 3e 	clrlwi  r9,r9,24
 1800de8:	38 00 00 05 	li      r0,5
 1800dec:	7c 04 49 ae 	stbx    r0,r4,r9
 1800df0:	99 48 a3 f9 	stb     r10,-23559(r8)
 1800df4:	40 81 00 0c 	ble-    1800e00 <send_adc+0xcc>
 1800df8:	38 00 00 00 	li      r0,0
 1800dfc:	98 06 a3 f9 	stb     r0,-23559(r6)
 1800e00:	89 26 a3 f9 	lbz     r9,-23559(r6)
 1800e04:	39 40 00 07 	li      r10,7
 1800e08:	39 69 00 01 	addi    r11,r9,1
 1800e0c:	55 60 06 3e 	clrlwi  r0,r11,24
 1800e10:	55 29 06 3e 	clrlwi  r9,r9,24
 1800e14:	28 00 00 fe 	cmplwi  r0,254
 1800e18:	7d 44 49 ae 	stbx    r10,r4,r9
 1800e1c:	99 66 a3 f9 	stb     r11,-23559(r6)
 1800e20:	40 81 00 0c 	ble-    1800e2c <send_adc+0xf8>
 1800e24:	38 00 00 00 	li      r0,0
 1800e28:	98 06 a3 f9 	stb     r0,-23559(r6)
 1800e2c:	89 46 a3 f9 	lbz     r10,-23559(r6)
 1800e30:	3d 20 01 82 	lis     r9,386
 1800e34:	39 0a 00 01 	addi    r8,r10,1
 1800e38:	89 69 a4 42 	lbz     r11,-23486(r9)
 1800e3c:	55 00 06 3e 	clrlwi  r0,r8,24
 1800e40:	55 4a 06 3e 	clrlwi  r10,r10,24
 1800e44:	28 00 00 fe 	cmplwi  r0,254
 1800e48:	7d 64 51 ae 	stbx    r11,r4,r10
 1800e4c:	38 ab 00 0e 	addi    r5,r11,14
 1800e50:	38 eb 00 07 	addi    r7,r11,7
 1800e54:	3c 60 01 82 	lis     r3,386
 1800e58:	3d 80 01 82 	lis     r12,386
 1800e5c:	3b e9 a4 42 	addi    r31,r9,-23486
 1800e60:	98 e3 a3 fc 	stb     r7,-23556(r3)
 1800e64:	98 ac a3 f6 	stb     r5,-23562(r12)
 1800e68:	99 06 a3 f9 	stb     r8,-23559(r6)
 1800e6c:	40 81 00 0c 	ble-    1800e78 <send_adc+0x144>
 1800e70:	38 00 00 00 	li      r0,0
 1800e74:	98 06 a3 f9 	stb     r0,-23559(r6)
 1800e78:	89 26 a3 f9 	lbz     r9,-23559(r6)
 1800e7c:	89 7f 00 01 	lbz     r11,1(r31)
 1800e80:	39 49 00 01 	addi    r10,r9,1
 1800e84:	55 40 06 3e 	clrlwi  r0,r10,24
 1800e88:	7c e7 5a 14 	add     r7,r7,r11
 1800e8c:	55 29 06 3e 	clrlwi  r9,r9,24
 1800e90:	28 00 00 fe 	cmplwi  r0,254
 1800e94:	7d 64 49 ae 	stbx    r11,r4,r9
 1800e98:	7c a5 3a 14 	add     r5,r5,r7
 1800e9c:	98 e3 a3 fc 	stb     r7,-23556(r3)
 1800ea0:	98 ac a3 f6 	stb     r5,-23562(r12)
 1800ea4:	99 46 a3 f9 	stb     r10,-23559(r6)
 1800ea8:	40 81 00 0c 	ble-    1800eb4 <send_adc+0x180>
 1800eac:	38 00 00 00 	li      r0,0
 1800eb0:	98 06 a3 f9 	stb     r0,-23559(r6)
 1800eb4:	89 66 a3 f9 	lbz     r11,-23559(r6)
 1800eb8:	3d 20 01 82 	lis     r9,386
 1800ebc:	39 0b 00 01 	addi    r8,r11,1
 1800ec0:	89 49 a4 40 	lbz     r10,-23488(r9)
 1800ec4:	55 00 06 3e 	clrlwi  r0,r8,24
 1800ec8:	7c e7 52 14 	add     r7,r7,r10
 1800ecc:	55 6b 06 3e 	clrlwi  r11,r11,24
 1800ed0:	28 00 00 fe 	cmplwi  r0,254
 1800ed4:	7d 44 59 ae 	stbx    r10,r4,r11
 1800ed8:	7c a5 3a 14 	add     r5,r5,r7
 1800edc:	3b e9 a4 40 	addi    r31,r9,-23488
 1800ee0:	98 e3 a3 fc 	stb     r7,-23556(r3)
 1800ee4:	98 ac a3 f6 	stb     r5,-23562(r12)
 1800ee8:	99 06 a3 f9 	stb     r8,-23559(r6)
 1800eec:	40 81 00 0c 	ble-    1800ef8 <send_adc+0x1c4>
 1800ef0:	38 00 00 00 	li      r0,0
 1800ef4:	98 06 a3 f9 	stb     r0,-23559(r6)
 1800ef8:	89 26 a3 f9 	lbz     r9,-23559(r6)
 1800efc:	89 7f 00 01 	lbz     r11,1(r31)
 1800f00:	39 49 00 01 	addi    r10,r9,1
 1800f04:	55 40 06 3e 	clrlwi  r0,r10,24
 1800f08:	7d 07 5a 14 	add     r8,r7,r11
 1800f0c:	55 29 06 3e 	clrlwi  r9,r9,24
 1800f10:	28 00 00 fe 	cmplwi  r0,254
 1800f14:	7d 64 49 ae 	stbx    r11,r4,r9
 1800f18:	7c e5 42 14 	add     r7,r5,r8
 1800f1c:	99 03 a3 fc 	stb     r8,-23556(r3)
 1800f20:	98 ec a3 f6 	stb     r7,-23562(r12)
 1800f24:	99 46 a3 f9 	stb     r10,-23559(r6)
 1800f28:	40 81 00 0c 	ble-    1800f34 <send_adc+0x200>
 1800f2c:	38 00 00 00 	li      r0,0
 1800f30:	98 06 a3 f9 	stb     r0,-23559(r6)
 1800f34:	89 26 a3 f9 	lbz     r9,-23559(r6)
 1800f38:	39 69 00 01 	addi    r11,r9,1
 1800f3c:	55 60 06 3e 	clrlwi  r0,r11,24
 1800f40:	55 29 06 3e 	clrlwi  r9,r9,24
 1800f44:	28 00 00 fe 	cmplwi  r0,254
 1800f48:	7d 04 49 ae 	stbx    r8,r4,r9
 1800f4c:	99 66 a3 f9 	stb     r11,-23559(r6)
 1800f50:	40 81 00 0c 	ble-    1800f5c <send_adc+0x228>
 1800f54:	38 00 00 00 	li      r0,0
 1800f58:	98 06 a3 f9 	stb     r0,-23559(r6)
 1800f5c:	89 26 a3 f9 	lbz     r9,-23559(r6)
 1800f60:	39 69 00 01 	addi    r11,r9,1
 1800f64:	55 60 06 3e 	clrlwi  r0,r11,24
 1800f68:	55 29 06 3e 	clrlwi  r9,r9,24
 1800f6c:	28 00 00 fe 	cmplwi  r0,254
 1800f70:	7c e4 49 ae 	stbx    r7,r4,r9
 1800f74:	99 66 a3 f9 	stb     r11,-23559(r6)
 1800f78:	40 81 00 0c 	ble-    1800f84 <send_adc+0x250>
 1800f7c:	38 00 00 00 	li      r0,0
 1800f80:	98 06 a3 f9 	stb     r0,-23559(r6)
 1800f84:	38 c0 00 59 	li      r6,89
 1800f88:	88 06 00 00 	lbz     r0,0(r6)
 1800f8c:	70 07 00 10 	andi.   r7,r0,16
 1800f90:	40 82 00 6c 	bne-    1800ffc <send_adc+0x2c8>
 1800f94:	3d 60 01 82 	lis     r11,386
 1800f98:	88 0b a3 fa 	lbz     r0,-23558(r11)
 1800f9c:	89 2b a3 fa 	lbz     r9,-23558(r11)
 1800fa0:	7d 04 00 ae 	lbzx    r8,r4,r0
 1800fa4:	39 29 00 01 	addi    r9,r9,1
 1800fa8:	99 2b a3 fa 	stb     r9,-23558(r11)
 1800fac:	88 0b a3 fa 	lbz     r0,-23558(r11)
 1800fb0:	3d 40 01 82 	lis     r10,386
 1800fb4:	28 00 00 fe 	cmplwi  r0,254
 1800fb8:	3d 20 01 82 	lis     r9,386
 1800fbc:	99 0a a3 f8 	stb     r8,-23560(r10)
 1800fc0:	98 e9 a3 fb 	stb     r7,-23557(r9)
 1800fc4:	40 81 00 08 	ble-    1800fcc <send_adc+0x298>
 1800fc8:	98 fe a3 fa 	stb     r7,-23558(r30)
 1800fcc:	39 20 00 58 	li      r9,88
 1800fd0:	88 09 00 00 	lbz     r0,0(r9)
 1800fd4:	60 00 00 01 	ori     r0,r0,1
 1800fd8:	98 09 00 00 	stb     r0,0(r9)
 1800fdc:	89 66 00 00 	lbz     r11,0(r6)
 1800fe0:	61 6b 00 10 	ori     r11,r11,16
 1800fe4:	99 66 00 00 	stb     r11,0(r6)
 1800fe8:	48 00 00 14 	b       1800ffc <send_adc+0x2c8>
 1800fec:	3d 60 01 82 	lis     r11,386
 1800ff0:	89 2b a3 f7 	lbz     r9,-23561(r11)
 1800ff4:	39 29 00 01 	addi    r9,r9,1
 1800ff8:	99 2b a3 f7 	stb     r9,-23561(r11)
 1800ffc:	83 c1 00 08 	lwz     r30,8(r1)
 1801000:	83 e1 00 0c 	lwz     r31,12(r1)
 1801004:	38 21 00 10 	addi    r1,r1,16
 1801008:	4e 80 00 20 	blr

0180100c <send_settings>:
 180100c:	94 21 ff e0 	stwu    r1,-32(r1)
 1801010:	93 81 00 10 	stw     r28,16(r1)
 1801014:	93 a1 00 14 	stw     r29,20(r1)
 1801018:	93 c1 00 18 	stw     r30,24(r1)
 180101c:	93 e1 00 1c 	stw     r31,28(r1)
 1801020:	3d 20 01 82 	lis     r9,386
 1801024:	88 09 a3 4d 	lbz     r0,-23731(r9)
 1801028:	2c 00 00 00 	cmpwi   r0,0
 180102c:	40 82 03 fc 	bne-    1801428 <send_settings+0x41c>
 1801030:	3d 20 01 82 	lis     r9,386
 1801034:	89 69 a3 e7 	lbz     r11,-23577(r9)
 1801038:	3c 00 cc cc 	lis     r0,-13108
 180103c:	60 00 cc cd 	ori     r0,r0,52429
 1801040:	7c 0b 00 16 	mulhwu  r0,r11,r0
 1801044:	54 00 f0 be 	rlwinm  r0,r0,30,2,31
 1801048:	54 09 10 3a 	rlwinm  r9,r0,2,0,29
 180104c:	7d 29 02 14 	add     r9,r9,r0
 1801050:	7d 69 58 50 	subf    r11,r9,r11
 1801054:	55 6b 06 3e 	clrlwi  r11,r11,24
 1801058:	2c 0b 00 02 	cmpwi   r11,2
 180105c:	40 82 03 cc 	bne-    1801428 <send_settings+0x41c>
 1801060:	3d 20 01 82 	lis     r9,386
 1801064:	88 09 a3 e1 	lbz     r0,-23583(r9)
 1801068:	2c 00 00 00 	cmpwi   r0,0
 180106c:	41 82 03 bc 	beq-    1801428 <send_settings+0x41c>
 1801070:	3d 20 01 82 	lis     r9,386
 1801074:	3d 60 01 82 	lis     r11,386
 1801078:	89 29 a3 f9 	lbz     r9,-23559(r9)
 180107c:	88 0b a3 fa 	lbz     r0,-23558(r11)
 1801080:	3c c0 01 82 	lis     r6,386
 1801084:	7c 09 00 40 	cmplw   r9,r0
 1801088:	3f a0 01 82 	lis     r29,386
 180108c:	41 80 00 1c 	blt-    18010a8 <send_settings+0x9c>
 1801090:	88 1d a3 fa 	lbz     r0,-23558(r29)
 1801094:	7c 00 48 50 	subf    r0,r0,r9
 1801098:	20 00 00 ff 	subfic  r0,r0,255
 180109c:	2c 00 00 0d 	cmpwi   r0,13
 18010a0:	41 81 00 18 	bgt-    18010b8 <send_settings+0xac>
 18010a4:	48 00 03 74 	b       1801418 <send_settings+0x40c>
 18010a8:	88 1d a3 fa 	lbz     r0,-23558(r29)
 18010ac:	7c 09 00 50 	subf    r0,r9,r0
 18010b0:	2c 00 00 0d 	cmpwi   r0,13
 18010b4:	40 81 03 64 	ble-    1801418 <send_settings+0x40c>
 18010b8:	3d 60 01 82 	lis     r11,386
 18010bc:	89 2b a3 f9 	lbz     r9,-23559(r11)
 18010c0:	3d 40 01 82 	lis     r10,386
 18010c4:	39 09 00 01 	addi    r8,r9,1
 18010c8:	55 00 06 3e 	clrlwi  r0,r8,24
 18010cc:	28 00 00 fe 	cmplwi  r0,254
 18010d0:	38 6a a8 b4 	addi    r3,r10,-22348
 18010d4:	55 29 06 3e 	clrlwi  r9,r9,24
 18010d8:	38 00 00 05 	li      r0,5
 18010dc:	7c 03 49 ae 	stbx    r0,r3,r9
 18010e0:	3b cb a3 f9 	addi    r30,r11,-23559
 18010e4:	99 0b a3 f9 	stb     r8,-23559(r11)
 18010e8:	40 81 00 0c 	ble-    18010f4 <send_settings+0xe8>
 18010ec:	38 00 00 00 	li      r0,0
 18010f0:	98 06 a3 f9 	stb     r0,-23559(r6)
 18010f4:	89 26 a3 f9 	lbz     r9,-23559(r6)
 18010f8:	39 40 00 11 	li      r10,17
 18010fc:	39 69 00 01 	addi    r11,r9,1
 1801100:	55 60 06 3e 	clrlwi  r0,r11,24
 1801104:	55 29 06 3e 	clrlwi  r9,r9,24
 1801108:	28 00 00 fe 	cmplwi  r0,254
 180110c:	7d 43 49 ae 	stbx    r10,r3,r9
 1801110:	99 66 a3 f9 	stb     r11,-23559(r6)
 1801114:	40 81 00 0c 	ble-    1801120 <send_settings+0x114>
 1801118:	38 00 00 00 	li      r0,0
 180111c:	98 06 a3 f9 	stb     r0,-23559(r6)
 1801120:	89 46 a3 f9 	lbz     r10,-23559(r6)
 1801124:	3d 20 01 82 	lis     r9,386
 1801128:	39 0a 00 01 	addi    r8,r10,1
 180112c:	89 69 a3 e1 	lbz     r11,-23583(r9)
 1801130:	55 00 06 3e 	clrlwi  r0,r8,24
 1801134:	55 4a 06 3e 	clrlwi  r10,r10,24
 1801138:	28 00 00 fe 	cmplwi  r0,254
 180113c:	7d 63 51 ae 	stbx    r11,r3,r10
 1801140:	3c 80 01 82 	lis     r4,386
 1801144:	38 ab 00 22 	addi    r5,r11,34
 1801148:	38 eb 00 11 	addi    r7,r11,17
 180114c:	3d 80 01 82 	lis     r12,386
 1801150:	3b 84 a3 f6 	addi    r28,r4,-23562
 1801154:	98 ec a3 fc 	stb     r7,-23556(r12)
 1801158:	98 a4 a3 f6 	stb     r5,-23562(r4)
 180115c:	99 06 a3 f9 	stb     r8,-23559(r6)
 1801160:	40 81 00 0c 	ble-    180116c <send_settings+0x160>
 1801164:	38 00 00 00 	li      r0,0
 1801168:	98 06 a3 f9 	stb     r0,-23559(r6)
 180116c:	89 66 a3 f9 	lbz     r11,-23559(r6)
 1801170:	3d 20 01 82 	lis     r9,386
 1801174:	39 0b 00 01 	addi    r8,r11,1
 1801178:	89 49 a3 f0 	lbz     r10,-23568(r9)
 180117c:	55 00 06 3e 	clrlwi  r0,r8,24
 1801180:	7c e7 52 14 	add     r7,r7,r10
 1801184:	55 6b 06 3e 	clrlwi  r11,r11,24
 1801188:	28 00 00 fe 	cmplwi  r0,254
 180118c:	7d 43 59 ae 	stbx    r10,r3,r11
 1801190:	7c a5 3a 14 	add     r5,r5,r7
 1801194:	3b e9 a3 f0 	addi    r31,r9,-23568
 1801198:	98 ec a3 fc 	stb     r7,-23556(r12)
 180119c:	98 a4 a3 f6 	stb     r5,-23562(r4)
 18011a0:	99 06 a3 f9 	stb     r8,-23559(r6)
 18011a4:	40 81 00 0c 	ble-    18011b0 <send_settings+0x1a4>
 18011a8:	38 00 00 00 	li      r0,0
 18011ac:	98 06 a3 f9 	stb     r0,-23559(r6)
 18011b0:	89 26 a3 f9 	lbz     r9,-23559(r6)
 18011b4:	89 7f 00 01 	lbz     r11,1(r31)
 18011b8:	39 49 00 01 	addi    r10,r9,1
 18011bc:	55 40 06 3e 	clrlwi  r0,r10,24
 18011c0:	7d 07 5a 14 	add     r8,r7,r11
 18011c4:	55 29 06 3e 	clrlwi  r9,r9,24
 18011c8:	28 00 00 fe 	cmplwi  r0,254
 18011cc:	7d 63 49 ae 	stbx    r11,r3,r9
 18011d0:	7c e5 42 14 	add     r7,r5,r8
 18011d4:	99 0c a3 fc 	stb     r8,-23556(r12)
 18011d8:	98 e4 a3 f6 	stb     r7,-23562(r4)
 18011dc:	99 46 a3 f9 	stb     r10,-23559(r6)
 18011e0:	40 81 00 0c 	ble-    18011ec <send_settings+0x1e0>
 18011e4:	38 00 00 00 	li      r0,0
 18011e8:	98 06 a3 f9 	stb     r0,-23559(r6)
 18011ec:	89 26 a3 f9 	lbz     r9,-23559(r6)
 18011f0:	89 7f 00 02 	lbz     r11,2(r31)
 18011f4:	39 49 00 01 	addi    r10,r9,1
 18011f8:	55 40 06 3e 	clrlwi  r0,r10,24
 18011fc:	7d 08 5a 14 	add     r8,r8,r11
 1801200:	55 29 06 3e 	clrlwi  r9,r9,24
 1801204:	28 00 00 fe 	cmplwi  r0,254
 1801208:	7d 63 49 ae 	stbx    r11,r3,r9
 180120c:	7c a7 42 14 	add     r5,r7,r8
 1801210:	99 0c a3 fc 	stb     r8,-23556(r12)
 1801214:	98 a4 a3 f6 	stb     r5,-23562(r4)
 1801218:	99 46 a3 f9 	stb     r10,-23559(r6)
 180121c:	40 81 00 0c 	ble-    1801228 <send_settings+0x21c>
 1801220:	38 00 00 00 	li      r0,0
 1801224:	98 06 a3 f9 	stb     r0,-23559(r6)
 1801228:	89 26 a3 f9 	lbz     r9,-23559(r6)
 180122c:	89 7f 00 03 	lbz     r11,3(r31)
 1801230:	39 49 00 01 	addi    r10,r9,1
 1801234:	55 40 06 3e 	clrlwi  r0,r10,24
 1801238:	7c e8 5a 14 	add     r7,r8,r11
 180123c:	55 29 06 3e 	clrlwi  r9,r9,24
 1801240:	28 00 00 fe 	cmplwi  r0,254
 1801244:	7d 63 49 ae 	stbx    r11,r3,r9
 1801248:	7c a5 3a 14 	add     r5,r5,r7
 180124c:	98 ec a3 fc 	stb     r7,-23556(r12)
 1801250:	98 a4 a3 f6 	stb     r5,-23562(r4)
 1801254:	99 46 a3 f9 	stb     r10,-23559(r6)
 1801258:	40 81 00 0c 	ble-    1801264 <send_settings+0x258>
 180125c:	38 00 00 00 	li      r0,0
 1801260:	98 06 a3 f9 	stb     r0,-23559(r6)
 1801264:	89 66 a3 f9 	lbz     r11,-23559(r6)
 1801268:	3d 20 01 82 	lis     r9,386
 180126c:	39 0b 00 01 	addi    r8,r11,1
 1801270:	89 49 a3 ec 	lbz     r10,-23572(r9)
 1801274:	55 00 06 3e 	clrlwi  r0,r8,24
 1801278:	7c e7 52 14 	add     r7,r7,r10
 180127c:	55 6b 06 3e 	clrlwi  r11,r11,24
 1801280:	28 00 00 fe 	cmplwi  r0,254
 1801284:	7d 43 59 ae 	stbx    r10,r3,r11
 1801288:	7c a5 3a 14 	add     r5,r5,r7
 180128c:	3b e9 a3 ec 	addi    r31,r9,-23572
 1801290:	98 ec a3 fc 	stb     r7,-23556(r12)
 1801294:	98 a4 a3 f6 	stb     r5,-23562(r4)
 1801298:	99 06 a3 f9 	stb     r8,-23559(r6)
 180129c:	40 81 00 0c 	ble-    18012a8 <send_settings+0x29c>
 18012a0:	38 00 00 00 	li      r0,0
 18012a4:	98 06 a3 f9 	stb     r0,-23559(r6)
 18012a8:	89 26 a3 f9 	lbz     r9,-23559(r6)
 18012ac:	89 7f 00 01 	lbz     r11,1(r31)
 18012b0:	39 49 00 01 	addi    r10,r9,1
 18012b4:	55 40 06 3e 	clrlwi  r0,r10,24
 18012b8:	7d 07 5a 14 	add     r8,r7,r11
 18012bc:	55 29 06 3e 	clrlwi  r9,r9,24
 18012c0:	28 00 00 fe 	cmplwi  r0,254
 18012c4:	7d 63 49 ae 	stbx    r11,r3,r9
 18012c8:	7c a5 42 14 	add     r5,r5,r8
 18012cc:	99 0c a3 fc 	stb     r8,-23556(r12)
 18012d0:	98 a4 a3 f6 	stb     r5,-23562(r4)
 18012d4:	99 46 a3 f9 	stb     r10,-23559(r6)
 18012d8:	40 81 00 0c 	ble-    18012e4 <send_settings+0x2d8>
 18012dc:	38 00 00 00 	li      r0,0
 18012e0:	98 06 a3 f9 	stb     r0,-23559(r6)
 18012e4:	89 26 a3 f9 	lbz     r9,-23559(r6)
 18012e8:	89 7f 00 02 	lbz     r11,2(r31)
 18012ec:	39 49 00 01 	addi    r10,r9,1
 18012f0:	55 40 06 3e 	clrlwi  r0,r10,24
 18012f4:	7c e8 5a 14 	add     r7,r8,r11
 18012f8:	55 29 06 3e 	clrlwi  r9,r9,24
 18012fc:	28 00 00 fe 	cmplwi  r0,254
 1801300:	7d 63 49 ae 	stbx    r11,r3,r9
 1801304:	7c a5 3a 14 	add     r5,r5,r7
 1801308:	98 ec a3 fc 	stb     r7,-23556(r12)
 180130c:	98 a4 a3 f6 	stb     r5,-23562(r4)
 1801310:	99 46 a3 f9 	stb     r10,-23559(r6)
 1801314:	40 81 00 0c 	ble-    1801320 <send_settings+0x314>
 1801318:	38 00 00 00 	li      r0,0
 180131c:	98 06 a3 f9 	stb     r0,-23559(r6)
 1801320:	89 5f 00 03 	lbz     r10,3(r31)
 1801324:	89 3e 00 00 	lbz     r9,0(r30)
 1801328:	7c e7 52 14 	add     r7,r7,r10
 180132c:	39 09 00 01 	addi    r8,r9,1
 1801330:	55 00 06 3e 	clrlwi  r0,r8,24
 1801334:	7d 65 3a 14 	add     r11,r5,r7
 1801338:	55 29 06 3e 	clrlwi  r9,r9,24
 180133c:	99 64 a3 f6 	stb     r11,-23562(r4)
 1801340:	28 00 00 fe 	cmplwi  r0,254
 1801344:	7d 43 49 ae 	stbx    r10,r3,r9
 1801348:	98 ec a3 fc 	stb     r7,-23556(r12)
 180134c:	99 1e 00 00 	stb     r8,0(r30)
 1801350:	40 81 00 0c 	ble-    180135c <send_settings+0x350>
 1801354:	38 00 00 00 	li      r0,0
 1801358:	98 1e 00 00 	stb     r0,0(r30)
 180135c:	89 3e 00 00 	lbz     r9,0(r30)
 1801360:	39 69 00 01 	addi    r11,r9,1
 1801364:	55 60 06 3e 	clrlwi  r0,r11,24
 1801368:	55 29 06 3e 	clrlwi  r9,r9,24
 180136c:	28 00 00 fe 	cmplwi  r0,254
 1801370:	7c e3 49 ae 	stbx    r7,r3,r9
 1801374:	99 7e 00 00 	stb     r11,0(r30)
 1801378:	40 81 00 0c 	ble-    1801384 <send_settings+0x378>
 180137c:	38 00 00 00 	li      r0,0
 1801380:	98 1e 00 00 	stb     r0,0(r30)
 1801384:	89 3e 00 00 	lbz     r9,0(r30)
 1801388:	89 5c 00 00 	lbz     r10,0(r28)
 180138c:	39 69 00 01 	addi    r11,r9,1
 1801390:	55 60 06 3e 	clrlwi  r0,r11,24
 1801394:	55 29 06 3e 	clrlwi  r9,r9,24
 1801398:	28 00 00 fe 	cmplwi  r0,254
 180139c:	7d 43 49 ae 	stbx    r10,r3,r9
 18013a0:	99 7e 00 00 	stb     r11,0(r30)
 18013a4:	40 81 00 0c 	ble-    18013b0 <send_settings+0x3a4>
 18013a8:	38 00 00 00 	li      r0,0
 18013ac:	98 1e 00 00 	stb     r0,0(r30)
 18013b0:	38 c0 00 59 	li      r6,89
 18013b4:	88 06 00 00 	lbz     r0,0(r6)
 18013b8:	70 07 00 10 	andi.   r7,r0,16
 18013bc:	40 82 00 6c 	bne-    1801428 <send_settings+0x41c>
 18013c0:	3d 60 01 82 	lis     r11,386
 18013c4:	88 0b a3 fa 	lbz     r0,-23558(r11)
 18013c8:	89 2b a3 fa 	lbz     r9,-23558(r11)
 18013cc:	7d 03 00 ae 	lbzx    r8,r3,r0
 18013d0:	39 29 00 01 	addi    r9,r9,1
 18013d4:	99 2b a3 fa 	stb     r9,-23558(r11)
 18013d8:	88 0b a3 fa 	lbz     r0,-23558(r11)
 18013dc:	3d 40 01 82 	lis     r10,386
 18013e0:	28 00 00 fe 	cmplwi  r0,254
 18013e4:	3d 20 01 82 	lis     r9,386
 18013e8:	99 0a a3 f8 	stb     r8,-23560(r10)
 18013ec:	98 e9 a3 fb 	stb     r7,-23557(r9)
 18013f0:	40 81 00 08 	ble-    18013f8 <send_settings+0x3ec>
 18013f4:	98 fd a3 fa 	stb     r7,-23558(r29)
 18013f8:	39 20 00 58 	li      r9,88
 18013fc:	88 09 00 00 	lbz     r0,0(r9)
 1801400:	60 00 00 01 	ori     r0,r0,1
 1801404:	98 09 00 00 	stb     r0,0(r9)
 1801408:	89 66 00 00 	lbz     r11,0(r6)
 180140c:	61 6b 00 10 	ori     r11,r11,16
 1801410:	99 66 00 00 	stb     r11,0(r6)
 1801414:	48 00 00 14 	b       1801428 <send_settings+0x41c>
 1801418:	3d 60 01 82 	lis     r11,386
 180141c:	89 2b a3 f7 	lbz     r9,-23561(r11)
 1801420:	39 29 00 01 	addi    r9,r9,1
 1801424:	99 2b a3 f7 	stb     r9,-23561(r11)
 1801428:	83 81 00 10 	lwz     r28,16(r1)
 180142c:	83 a1 00 14 	lwz     r29,20(r1)
 1801430:	83 c1 00 18 	lwz     r30,24(r1)
 1801434:	83 e1 00 1c 	lwz     r31,28(r1)
 1801438:	38 21 00 20 	addi    r1,r1,32
 180143c:	4e 80 00 20 	blr

01801440 <send_desired>:
 1801440:	94 21 ff e0 	stwu    r1,-32(r1)
 1801444:	93 61 00 0c 	stw     r27,12(r1)
 1801448:	93 81 00 10 	stw     r28,16(r1)
 180144c:	93 a1 00 14 	stw     r29,20(r1)
 1801450:	93 c1 00 18 	stw     r30,24(r1)
 1801454:	93 e1 00 1c 	stw     r31,28(r1)
 1801458:	3d 20 01 82 	lis     r9,386
 180145c:	88 09 a3 4d 	lbz     r0,-23731(r9)
 1801460:	2c 00 00 00 	cmpwi   r0,0
 1801464:	40 82 06 a0 	bne-    1801b04 <send_desired+0x6c4>
 1801468:	3d 20 01 82 	lis     r9,386
 180146c:	89 69 a3 e7 	lbz     r11,-23577(r9)
 1801470:	3c 00 cc cc 	lis     r0,-13108
 1801474:	60 00 cc cd 	ori     r0,r0,52429
 1801478:	7c 0b 00 16 	mulhwu  r0,r11,r0
 180147c:	54 00 e8 fe 	rlwinm  r0,r0,29,3,31
 1801480:	54 09 18 38 	rlwinm  r9,r0,3,0,28
 1801484:	7d 29 02 14 	add     r9,r9,r0
 1801488:	7d 29 02 14 	add     r9,r9,r0
 180148c:	7d 69 58 50 	subf    r11,r9,r11
 1801490:	55 6b 06 3e 	clrlwi  r11,r11,24
 1801494:	2c 0b 00 03 	cmpwi   r11,3
 1801498:	40 82 06 6c 	bne-    1801b04 <send_desired+0x6c4>
 180149c:	3d 20 01 82 	lis     r9,386
 18014a0:	3d 60 01 82 	lis     r11,386
 18014a4:	89 29 a3 f9 	lbz     r9,-23559(r9)
 18014a8:	88 0b a3 fa 	lbz     r0,-23558(r11)
 18014ac:	3c c0 01 82 	lis     r6,386
 18014b0:	7c 09 00 40 	cmplw   r9,r0
 18014b4:	3f 60 01 82 	lis     r27,386
 18014b8:	41 80 00 1c 	blt-    18014d4 <send_desired+0x94>
 18014bc:	88 1b a3 fa 	lbz     r0,-23558(r27)
 18014c0:	7c 00 48 50 	subf    r0,r0,r9
 18014c4:	20 00 00 ff 	subfic  r0,r0,255
 18014c8:	2c 00 00 18 	cmpwi   r0,24
 18014cc:	41 81 00 18 	bgt-    18014e4 <send_desired+0xa4>
 18014d0:	48 00 06 24 	b       1801af4 <send_desired+0x6b4>
 18014d4:	88 1b a3 fa 	lbz     r0,-23558(r27)
 18014d8:	7c 09 00 50 	subf    r0,r9,r0
 18014dc:	2c 00 00 18 	cmpwi   r0,24
 18014e0:	40 81 06 14 	ble-    1801af4 <send_desired+0x6b4>
 18014e4:	3d 60 01 82 	lis     r11,386
 18014e8:	89 2b a3 f9 	lbz     r9,-23559(r11)
 18014ec:	3d 40 01 82 	lis     r10,386
 18014f0:	39 09 00 01 	addi    r8,r9,1
 18014f4:	55 00 06 3e 	clrlwi  r0,r8,24
 18014f8:	28 00 00 fe 	cmplwi  r0,254
 18014fc:	38 6a a8 b4 	addi    r3,r10,-22348
 1801500:	55 29 06 3e 	clrlwi  r9,r9,24
 1801504:	38 00 00 05 	li      r0,5
 1801508:	7c 03 49 ae 	stbx    r0,r3,r9
 180150c:	38 ab a3 f9 	addi    r5,r11,-23559
 1801510:	99 0b a3 f9 	stb     r8,-23559(r11)
 1801514:	40 81 00 0c 	ble-    1801520 <send_desired+0xe0>
 1801518:	38 00 00 00 	li      r0,0
 180151c:	98 06 a3 f9 	stb     r0,-23559(r6)
 1801520:	89 26 a3 f9 	lbz     r9,-23559(r6)
 1801524:	39 40 00 12 	li      r10,18
 1801528:	39 69 00 01 	addi    r11,r9,1
 180152c:	55 60 06 3e 	clrlwi  r0,r11,24
 1801530:	55 29 06 3e 	clrlwi  r9,r9,24
 1801534:	28 00 00 fe 	cmplwi  r0,254
 1801538:	7d 43 49 ae 	stbx    r10,r3,r9
 180153c:	99 66 a3 f9 	stb     r11,-23559(r6)
 1801540:	40 81 00 0c 	ble-    180154c <send_desired+0x10c>
 1801544:	38 00 00 00 	li      r0,0
 1801548:	98 06 a3 f9 	stb     r0,-23559(r6)
 180154c:	89 46 a3 f9 	lbz     r10,-23559(r6)
 1801550:	3d 20 01 82 	lis     r9,386
 1801554:	39 0a 00 01 	addi    r8,r10,1
 1801558:	89 69 a3 74 	lbz     r11,-23692(r9)
 180155c:	55 00 06 3e 	clrlwi  r0,r8,24
 1801560:	55 4a 06 3e 	clrlwi  r10,r10,24
 1801564:	28 00 00 fe 	cmplwi  r0,254
 1801568:	7d 63 51 ae 	stbx    r11,r3,r10
 180156c:	3f e0 01 82 	lis     r31,386
 1801570:	3d 80 01 82 	lis     r12,386
 1801574:	38 8b 00 24 	addi    r4,r11,36
 1801578:	38 eb 00 12 	addi    r7,r11,18
 180157c:	3b c9 a3 74 	addi    r30,r9,-23692
 1801580:	3b bf a3 fc 	addi    r29,r31,-23556
 1801584:	3b 8c a3 f6 	addi    r28,r12,-23562
 1801588:	98 ff a3 fc 	stb     r7,-23556(r31)
 180158c:	98 8c a3 f6 	stb     r4,-23562(r12)
 1801590:	99 06 a3 f9 	stb     r8,-23559(r6)
 1801594:	40 81 00 0c 	ble-    18015a0 <send_desired+0x160>
 1801598:	38 00 00 00 	li      r0,0
 180159c:	98 06 a3 f9 	stb     r0,-23559(r6)
 18015a0:	89 26 a3 f9 	lbz     r9,-23559(r6)
 18015a4:	89 7e 00 01 	lbz     r11,1(r30)
 18015a8:	39 49 00 01 	addi    r10,r9,1
 18015ac:	55 40 06 3e 	clrlwi  r0,r10,24
 18015b0:	7d 07 5a 14 	add     r8,r7,r11
 18015b4:	55 29 06 3e 	clrlwi  r9,r9,24
 18015b8:	28 00 00 fe 	cmplwi  r0,254
 18015bc:	7d 63 49 ae 	stbx    r11,r3,r9
 18015c0:	7c e4 42 14 	add     r7,r4,r8
 18015c4:	99 1f a3 fc 	stb     r8,-23556(r31)
 18015c8:	98 ec a3 f6 	stb     r7,-23562(r12)
 18015cc:	99 46 a3 f9 	stb     r10,-23559(r6)
 18015d0:	40 81 00 0c 	ble-    18015dc <send_desired+0x19c>
 18015d4:	38 00 00 00 	li      r0,0
 18015d8:	98 06 a3 f9 	stb     r0,-23559(r6)
 18015dc:	89 26 a3 f9 	lbz     r9,-23559(r6)
 18015e0:	89 7e 00 02 	lbz     r11,2(r30)
 18015e4:	39 49 00 01 	addi    r10,r9,1
 18015e8:	55 40 06 3e 	clrlwi  r0,r10,24
 18015ec:	7d 08 5a 14 	add     r8,r8,r11
 18015f0:	55 29 06 3e 	clrlwi  r9,r9,24
 18015f4:	28 00 00 fe 	cmplwi  r0,254
 18015f8:	7d 63 49 ae 	stbx    r11,r3,r9
 18015fc:	7c 87 42 14 	add     r4,r7,r8
 1801600:	99 1f a3 fc 	stb     r8,-23556(r31)
 1801604:	98 8c a3 f6 	stb     r4,-23562(r12)
 1801608:	99 46 a3 f9 	stb     r10,-23559(r6)
 180160c:	40 81 00 0c 	ble-    1801618 <send_desired+0x1d8>
 1801610:	38 00 00 00 	li      r0,0
 1801614:	98 06 a3 f9 	stb     r0,-23559(r6)
 1801618:	89 26 a3 f9 	lbz     r9,-23559(r6)
 180161c:	89 7e 00 03 	lbz     r11,3(r30)
 1801620:	39 49 00 01 	addi    r10,r9,1
 1801624:	55 40 06 3e 	clrlwi  r0,r10,24
 1801628:	7c e8 5a 14 	add     r7,r8,r11
 180162c:	55 29 06 3e 	clrlwi  r9,r9,24
 1801630:	28 00 00 fe 	cmplwi  r0,254
 1801634:	7d 63 49 ae 	stbx    r11,r3,r9
 1801638:	7c 84 3a 14 	add     r4,r4,r7
 180163c:	98 ff a3 fc 	stb     r7,-23556(r31)
 1801640:	98 8c a3 f6 	stb     r4,-23562(r12)
 1801644:	99 46 a3 f9 	stb     r10,-23559(r6)
 1801648:	40 81 00 0c 	ble-    1801654 <send_desired+0x214>
 180164c:	38 00 00 00 	li      r0,0
 1801650:	98 06 a3 f9 	stb     r0,-23559(r6)
 1801654:	89 66 a3 f9 	lbz     r11,-23559(r6)
 1801658:	3d 20 01 82 	lis     r9,386
 180165c:	39 0b 00 01 	addi    r8,r11,1
 1801660:	89 49 a3 78 	lbz     r10,-23688(r9)
 1801664:	55 00 06 3e 	clrlwi  r0,r8,24
 1801668:	7c e7 52 14 	add     r7,r7,r10
 180166c:	55 6b 06 3e 	clrlwi  r11,r11,24
 1801670:	28 00 00 fe 	cmplwi  r0,254
 1801674:	7d 43 59 ae 	stbx    r10,r3,r11
 1801678:	7c 84 3a 14 	add     r4,r4,r7
 180167c:	3b c9 a3 78 	addi    r30,r9,-23688
 1801680:	98 ff a3 fc 	stb     r7,-23556(r31)
 1801684:	98 8c a3 f6 	stb     r4,-23562(r12)
 1801688:	99 06 a3 f9 	stb     r8,-23559(r6)
 180168c:	40 81 00 0c 	ble-    1801698 <send_desired+0x258>
 1801690:	38 00 00 00 	li      r0,0
 1801694:	98 06 a3 f9 	stb     r0,-23559(r6)
 1801698:	89 26 a3 f9 	lbz     r9,-23559(r6)
 180169c:	89 7e 00 01 	lbz     r11,1(r30)
 18016a0:	39 49 00 01 	addi    r10,r9,1
 18016a4:	55 40 06 3e 	clrlwi  r0,r10,24
 18016a8:	7d 07 5a 14 	add     r8,r7,r11
 18016ac:	55 29 06 3e 	clrlwi  r9,r9,24
 18016b0:	28 00 00 fe 	cmplwi  r0,254
 18016b4:	7d 63 49 ae 	stbx    r11,r3,r9
 18016b8:	7c e4 42 14 	add     r7,r4,r8
 18016bc:	99 1f a3 fc 	stb     r8,-23556(r31)
 18016c0:	98 ec a3 f6 	stb     r7,-23562(r12)
 18016c4:	99 46 a3 f9 	stb     r10,-23559(r6)
 18016c8:	40 81 00 0c 	ble-    18016d4 <send_desired+0x294>
 18016cc:	38 00 00 00 	li      r0,0
 18016d0:	98 06 a3 f9 	stb     r0,-23559(r6)
 18016d4:	89 26 a3 f9 	lbz     r9,-23559(r6)
 18016d8:	89 7e 00 02 	lbz     r11,2(r30)
 18016dc:	39 49 00 01 	addi    r10,r9,1
 18016e0:	55 40 06 3e 	clrlwi  r0,r10,24
 18016e4:	7d 08 5a 14 	add     r8,r8,r11
 18016e8:	55 29 06 3e 	clrlwi  r9,r9,24
 18016ec:	28 00 00 fe 	cmplwi  r0,254
 18016f0:	7d 63 49 ae 	stbx    r11,r3,r9
 18016f4:	7c 87 42 14 	add     r4,r7,r8
 18016f8:	99 1f a3 fc 	stb     r8,-23556(r31)
 18016fc:	98 8c a3 f6 	stb     r4,-23562(r12)
 1801700:	99 46 a3 f9 	stb     r10,-23559(r6)
 1801704:	40 81 00 0c 	ble-    1801710 <send_desired+0x2d0>
 1801708:	38 00 00 00 	li      r0,0
 180170c:	98 06 a3 f9 	stb     r0,-23559(r6)
 1801710:	89 26 a3 f9 	lbz     r9,-23559(r6)
 1801714:	89 7e 00 03 	lbz     r11,3(r30)
 1801718:	39 49 00 01 	addi    r10,r9,1
 180171c:	55 40 06 3e 	clrlwi  r0,r10,24
 1801720:	7c e8 5a 14 	add     r7,r8,r11
 1801724:	55 29 06 3e 	clrlwi  r9,r9,24
 1801728:	28 00 00 fe 	cmplwi  r0,254
 180172c:	7d 63 49 ae 	stbx    r11,r3,r9
 1801730:	7c 84 3a 14 	add     r4,r4,r7
 1801734:	98 ff a3 fc 	stb     r7,-23556(r31)
 1801738:	98 8c a3 f6 	stb     r4,-23562(r12)
 180173c:	99 46 a3 f9 	stb     r10,-23559(r6)
 1801740:	40 81 00 0c 	ble-    180174c <send_desired+0x30c>
 1801744:	38 00 00 00 	li      r0,0
 1801748:	98 06 a3 f9 	stb     r0,-23559(r6)
 180174c:	89 65 00 00 	lbz     r11,0(r5)
 1801750:	3d 20 01 82 	lis     r9,386
 1801754:	89 49 a4 74 	lbz     r10,-23436(r9)
 1801758:	39 0b 00 01 	addi    r8,r11,1
 180175c:	7c c7 52 14 	add     r6,r7,r10
 1801760:	55 00 06 3e 	clrlwi  r0,r8,24
 1801764:	55 6b 06 3e 	clrlwi  r11,r11,24
 1801768:	7d 43 59 ae 	stbx    r10,r3,r11
 180176c:	7c 84 32 14 	add     r4,r4,r6
 1801770:	28 00 00 fe 	cmplwi  r0,254
 1801774:	98 df a3 fc 	stb     r6,-23556(r31)
 1801778:	98 8c a3 f6 	stb     r4,-23562(r12)
 180177c:	3b c9 a4 74 	addi    r30,r9,-23436
 1801780:	99 05 00 00 	stb     r8,0(r5)
 1801784:	40 81 00 0c 	ble-    1801790 <send_desired+0x350>
 1801788:	38 00 00 00 	li      r0,0
 180178c:	98 05 00 00 	stb     r0,0(r5)
 1801790:	89 1e 00 01 	lbz     r8,1(r30)
 1801794:	89 25 00 00 	lbz     r9,0(r5)
 1801798:	7d 46 42 14 	add     r10,r6,r8
 180179c:	38 e9 00 01 	addi    r7,r9,1
 18017a0:	7d 64 52 14 	add     r11,r4,r10
 18017a4:	99 6c a3 f6 	stb     r11,-23562(r12)
 18017a8:	54 e0 06 3e 	clrlwi  r0,r7,24
 18017ac:	55 29 06 3e 	clrlwi  r9,r9,24
 18017b0:	7d 03 49 ae 	stbx    r8,r3,r9
 18017b4:	28 00 00 fe 	cmplwi  r0,254
 18017b8:	99 5f a3 fc 	stb     r10,-23556(r31)
 18017bc:	98 e5 00 00 	stb     r7,0(r5)
 18017c0:	40 81 00 0c 	ble-    18017cc <send_desired+0x38c>
 18017c4:	38 00 00 00 	li      r0,0
 18017c8:	98 05 00 00 	stb     r0,0(r5)
 18017cc:	89 25 00 00 	lbz     r9,0(r5)
 18017d0:	89 1e 00 02 	lbz     r8,2(r30)
 18017d4:	88 1d 00 00 	lbz     r0,0(r29)
 18017d8:	89 7c 00 00 	lbz     r11,0(r28)
 18017dc:	38 e9 00 01 	addi    r7,r9,1
 18017e0:	7c c0 42 14 	add     r6,r0,r8
 18017e4:	54 ea 06 3e 	clrlwi  r10,r7,24
 18017e8:	55 29 06 3e 	clrlwi  r9,r9,24
 18017ec:	7d 03 49 ae 	stbx    r8,r3,r9
 18017f0:	7c 8b 32 14 	add     r4,r11,r6
 18017f4:	28 0a 00 fe 	cmplwi  r10,254
 18017f8:	98 dd 00 00 	stb     r6,0(r29)
 18017fc:	98 9c 00 00 	stb     r4,0(r28)
 1801800:	98 e5 00 00 	stb     r7,0(r5)
 1801804:	40 81 00 0c 	ble-    1801810 <send_desired+0x3d0>
 1801808:	38 00 00 00 	li      r0,0
 180180c:	98 05 00 00 	stb     r0,0(r5)
 1801810:	89 25 00 00 	lbz     r9,0(r5)
 1801814:	89 7e 00 03 	lbz     r11,3(r30)
 1801818:	39 49 00 01 	addi    r10,r9,1
 180181c:	7c e6 5a 14 	add     r7,r6,r11
 1801820:	55 40 06 3e 	clrlwi  r0,r10,24
 1801824:	55 29 06 3e 	clrlwi  r9,r9,24
 1801828:	7d 63 49 ae 	stbx    r11,r3,r9
 180182c:	7c c4 3a 14 	add     r6,r4,r7
 1801830:	28 00 00 fe 	cmplwi  r0,254
 1801834:	98 fd 00 00 	stb     r7,0(r29)
 1801838:	98 dc 00 00 	stb     r6,0(r28)
 180183c:	99 45 00 00 	stb     r10,0(r5)
 1801840:	40 81 00 0c 	ble-    180184c <send_desired+0x40c>
 1801844:	38 00 00 00 	li      r0,0
 1801848:	98 05 00 00 	stb     r0,0(r5)
 180184c:	89 65 00 00 	lbz     r11,0(r5)
 1801850:	3d 20 01 82 	lis     r9,386
 1801854:	89 49 a4 7c 	lbz     r10,-23428(r9)
 1801858:	39 0b 00 01 	addi    r8,r11,1
 180185c:	7c e7 52 14 	add     r7,r7,r10
 1801860:	55 00 06 3e 	clrlwi  r0,r8,24
 1801864:	55 6b 06 3e 	clrlwi  r11,r11,24
 1801868:	7d 43 59 ae 	stbx    r10,r3,r11
 180186c:	7c c6 3a 14 	add     r6,r6,r7
 1801870:	28 00 00 fe 	cmplwi  r0,254
 1801874:	98 fd 00 00 	stb     r7,0(r29)
 1801878:	98 dc 00 00 	stb     r6,0(r28)
 180187c:	38 89 a4 7c 	addi    r4,r9,-23428
 1801880:	99 05 00 00 	stb     r8,0(r5)
 1801884:	40 81 00 0c 	ble-    1801890 <send_desired+0x450>
 1801888:	38 00 00 00 	li      r0,0
 180188c:	98 05 00 00 	stb     r0,0(r5)
 1801890:	89 25 00 00 	lbz     r9,0(r5)
 1801894:	89 64 00 01 	lbz     r11,1(r4)
 1801898:	39 49 00 01 	addi    r10,r9,1
 180189c:	7d 07 5a 14 	add     r8,r7,r11
 18018a0:	55 40 06 3e 	clrlwi  r0,r10,24
 18018a4:	55 29 06 3e 	clrlwi  r9,r9,24
 18018a8:	7d 63 49 ae 	stbx    r11,r3,r9
 18018ac:	7c e6 42 14 	add     r7,r6,r8
 18018b0:	28 00 00 fe 	cmplwi  r0,254
 18018b4:	99 1d 00 00 	stb     r8,0(r29)
 18018b8:	98 fc 00 00 	stb     r7,0(r28)
 18018bc:	99 45 00 00 	stb     r10,0(r5)
 18018c0:	40 81 00 0c 	ble-    18018cc <send_desired+0x48c>
 18018c4:	38 00 00 00 	li      r0,0
 18018c8:	98 05 00 00 	stb     r0,0(r5)
 18018cc:	89 25 00 00 	lbz     r9,0(r5)
 18018d0:	89 64 00 02 	lbz     r11,2(r4)
 18018d4:	39 49 00 01 	addi    r10,r9,1
 18018d8:	7d 08 5a 14 	add     r8,r8,r11
 18018dc:	55 40 06 3e 	clrlwi  r0,r10,24
 18018e0:	55 29 06 3e 	clrlwi  r9,r9,24
 18018e4:	7d 63 49 ae 	stbx    r11,r3,r9
 18018e8:	7c c7 42 14 	add     r6,r7,r8
 18018ec:	28 00 00 fe 	cmplwi  r0,254
 18018f0:	99 1d 00 00 	stb     r8,0(r29)
 18018f4:	98 dc 00 00 	stb     r6,0(r28)
 18018f8:	99 45 00 00 	stb     r10,0(r5)
 18018fc:	40 81 00 0c 	ble-    1801908 <send_desired+0x4c8>
 1801900:	38 00 00 00 	li      r0,0
 1801904:	98 05 00 00 	stb     r0,0(r5)
 1801908:	89 25 00 00 	lbz     r9,0(r5)
 180190c:	89 64 00 03 	lbz     r11,3(r4)
 1801910:	39 49 00 01 	addi    r10,r9,1
 1801914:	7c e8 5a 14 	add     r7,r8,r11
 1801918:	55 40 06 3e 	clrlwi  r0,r10,24
 180191c:	55 29 06 3e 	clrlwi  r9,r9,24
 1801920:	7d 63 49 ae 	stbx    r11,r3,r9
 1801924:	7c c6 3a 14 	add     r6,r6,r7
 1801928:	28 00 00 fe 	cmplwi  r0,254
 180192c:	98 fd 00 00 	stb     r7,0(r29)
 1801930:	98 dc 00 00 	stb     r6,0(r28)
 1801934:	99 45 00 00 	stb     r10,0(r5)
 1801938:	40 81 00 0c 	ble-    1801944 <send_desired+0x504>
 180193c:	38 00 00 00 	li      r0,0
 1801940:	98 05 00 00 	stb     r0,0(r5)
 1801944:	89 65 00 00 	lbz     r11,0(r5)
 1801948:	3d 20 01 82 	lis     r9,386
 180194c:	89 49 a3 d4 	lbz     r10,-23596(r9)
 1801950:	39 0b 00 01 	addi    r8,r11,1
 1801954:	7c e7 52 14 	add     r7,r7,r10
 1801958:	55 00 06 3e 	clrlwi  r0,r8,24
 180195c:	55 6b 06 3e 	clrlwi  r11,r11,24
 1801960:	7d 43 59 ae 	stbx    r10,r3,r11
 1801964:	7c c6 3a 14 	add     r6,r6,r7
 1801968:	28 00 00 fe 	cmplwi  r0,254
 180196c:	98 fd 00 00 	stb     r7,0(r29)
 1801970:	98 dc 00 00 	stb     r6,0(r28)
 1801974:	38 89 a3 d4 	addi    r4,r9,-23596
 1801978:	99 05 00 00 	stb     r8,0(r5)
 180197c:	40 81 00 0c 	ble-    1801988 <send_desired+0x548>
 1801980:	38 00 00 00 	li      r0,0
 1801984:	98 05 00 00 	stb     r0,0(r5)
 1801988:	89 25 00 00 	lbz     r9,0(r5)
 180198c:	89 64 00 01 	lbz     r11,1(r4)
 1801990:	39 49 00 01 	addi    r10,r9,1
 1801994:	7d 07 5a 14 	add     r8,r7,r11
 1801998:	55 40 06 3e 	clrlwi  r0,r10,24
 180199c:	55 29 06 3e 	clrlwi  r9,r9,24
 18019a0:	7d 63 49 ae 	stbx    r11,r3,r9
 18019a4:	7c e6 42 14 	add     r7,r6,r8
 18019a8:	28 00 00 fe 	cmplwi  r0,254
 18019ac:	99 1d 00 00 	stb     r8,0(r29)
 18019b0:	98 fc 00 00 	stb     r7,0(r28)
 18019b4:	99 45 00 00 	stb     r10,0(r5)
 18019b8:	40 81 00 0c 	ble-    18019c4 <send_desired+0x584>
 18019bc:	38 00 00 00 	li      r0,0
 18019c0:	98 05 00 00 	stb     r0,0(r5)
 18019c4:	89 25 00 00 	lbz     r9,0(r5)
 18019c8:	89 64 00 02 	lbz     r11,2(r4)
 18019cc:	39 49 00 01 	addi    r10,r9,1
 18019d0:	7d 08 5a 14 	add     r8,r8,r11
 18019d4:	55 40 06 3e 	clrlwi  r0,r10,24
 18019d8:	55 29 06 3e 	clrlwi  r9,r9,24
 18019dc:	7d 63 49 ae 	stbx    r11,r3,r9
 18019e0:	7c e7 42 14 	add     r7,r7,r8
 18019e4:	28 00 00 fe 	cmplwi  r0,254
 18019e8:	99 1d 00 00 	stb     r8,0(r29)
 18019ec:	98 fc 00 00 	stb     r7,0(r28)
 18019f0:	99 45 00 00 	stb     r10,0(r5)
 18019f4:	40 81 00 0c 	ble-    1801a00 <send_desired+0x5c0>
 18019f8:	38 00 00 00 	li      r0,0
 18019fc:	98 05 00 00 	stb     r0,0(r5)
 1801a00:	89 25 00 00 	lbz     r9,0(r5)
 1801a04:	89 64 00 03 	lbz     r11,3(r4)
 1801a08:	39 49 00 01 	addi    r10,r9,1
 1801a0c:	7d 08 5a 14 	add     r8,r8,r11
 1801a10:	55 40 06 3e 	clrlwi  r0,r10,24
 1801a14:	55 29 06 3e 	clrlwi  r9,r9,24
 1801a18:	7d 63 49 ae 	stbx    r11,r3,r9
 1801a1c:	7c e7 42 14 	add     r7,r7,r8
 1801a20:	28 00 00 fe 	cmplwi  r0,254
 1801a24:	99 1d 00 00 	stb     r8,0(r29)
 1801a28:	98 fc 00 00 	stb     r7,0(r28)
 1801a2c:	99 45 00 00 	stb     r10,0(r5)
 1801a30:	40 81 00 0c 	ble-    1801a3c <send_desired+0x5fc>
 1801a34:	38 00 00 00 	li      r0,0
 1801a38:	98 05 00 00 	stb     r0,0(r5)
 1801a3c:	89 25 00 00 	lbz     r9,0(r5)
 1801a40:	39 69 00 01 	addi    r11,r9,1
 1801a44:	55 60 06 3e 	clrlwi  r0,r11,24
 1801a48:	55 29 06 3e 	clrlwi  r9,r9,24
 1801a4c:	28 00 00 fe 	cmplwi  r0,254
 1801a50:	7d 03 49 ae 	stbx    r8,r3,r9
 1801a54:	99 65 00 00 	stb     r11,0(r5)
 1801a58:	40 81 00 0c 	ble-    1801a64 <send_desired+0x624>
 1801a5c:	38 00 00 00 	li      r0,0
 1801a60:	98 05 00 00 	stb     r0,0(r5)
 1801a64:	89 25 00 00 	lbz     r9,0(r5)
 1801a68:	39 69 00 01 	addi    r11,r9,1
 1801a6c:	55 60 06 3e 	clrlwi  r0,r11,24
 1801a70:	55 29 06 3e 	clrlwi  r9,r9,24
 1801a74:	28 00 00 fe 	cmplwi  r0,254
 1801a78:	7c e3 49 ae 	stbx    r7,r3,r9
 1801a7c:	99 65 00 00 	stb     r11,0(r5)
 1801a80:	40 81 00 0c 	ble-    1801a8c <send_desired+0x64c>
 1801a84:	38 00 00 00 	li      r0,0
 1801a88:	98 05 00 00 	stb     r0,0(r5)
 1801a8c:	38 c0 00 59 	li      r6,89
 1801a90:	88 06 00 00 	lbz     r0,0(r6)
 1801a94:	70 07 00 10 	andi.   r7,r0,16
 1801a98:	40 82 00 6c 	bne-    1801b04 <send_desired+0x6c4>
 1801a9c:	3d 60 01 82 	lis     r11,386
 1801aa0:	88 0b a3 fa 	lbz     r0,-23558(r11)
 1801aa4:	89 2b a3 fa 	lbz     r9,-23558(r11)
 1801aa8:	7d 03 00 ae 	lbzx    r8,r3,r0
 1801aac:	39 29 00 01 	addi    r9,r9,1
 1801ab0:	99 2b a3 fa 	stb     r9,-23558(r11)
 1801ab4:	88 0b a3 fa 	lbz     r0,-23558(r11)
 1801ab8:	3d 40 01 82 	lis     r10,386
 1801abc:	28 00 00 fe 	cmplwi  r0,254
 1801ac0:	3d 20 01 82 	lis     r9,386
 1801ac4:	99 0a a3 f8 	stb     r8,-23560(r10)
 1801ac8:	98 e9 a3 fb 	stb     r7,-23557(r9)
 1801acc:	40 81 00 08 	ble-    1801ad4 <send_desired+0x694>
 1801ad0:	98 fb a3 fa 	stb     r7,-23558(r27)
 1801ad4:	39 20 00 58 	li      r9,88
 1801ad8:	88 09 00 00 	lbz     r0,0(r9)
 1801adc:	60 00 00 01 	ori     r0,r0,1
 1801ae0:	98 09 00 00 	stb     r0,0(r9)
 1801ae4:	89 66 00 00 	lbz     r11,0(r6)
 1801ae8:	61 6b 00 10 	ori     r11,r11,16
 1801aec:	99 66 00 00 	stb     r11,0(r6)
 1801af0:	48 00 00 14 	b       1801b04 <send_desired+0x6c4>
 1801af4:	3d 60 01 82 	lis     r11,386
 1801af8:	89 2b a3 f7 	lbz     r9,-23561(r11)
 1801afc:	39 29 00 01 	addi    r9,r9,1
 1801b00:	99 2b a3 f7 	stb     r9,-23561(r11)
 1801b04:	83 61 00 0c 	lwz     r27,12(r1)
 1801b08:	83 81 00 10 	lwz     r28,16(r1)
 1801b0c:	83 a1 00 14 	lwz     r29,20(r1)
 1801b10:	83 c1 00 18 	lwz     r30,24(r1)
 1801b14:	83 e1 00 1c 	lwz     r31,28(r1)
 1801b18:	38 21 00 20 	addi    r1,r1,32
 1801b1c:	4e 80 00 20 	blr

01801b20 <send_bat>:
 1801b20:	94 21 ff e0 	stwu    r1,-32(r1)
 1801b24:	93 a1 00 14 	stw     r29,20(r1)
 1801b28:	93 c1 00 18 	stw     r30,24(r1)
 1801b2c:	93 e1 00 1c 	stw     r31,28(r1)
 1801b30:	3d 20 01 82 	lis     r9,386
 1801b34:	88 09 a3 4d 	lbz     r0,-23731(r9)
 1801b38:	2c 00 00 00 	cmpwi   r0,0
 1801b3c:	40 82 03 b8 	bne-    1801ef4 <send_bat+0x3d4>
 1801b40:	3d 20 01 82 	lis     r9,386
 1801b44:	89 69 a3 e7 	lbz     r11,-23577(r9)
 1801b48:	3c 00 cc cc 	lis     r0,-13108
 1801b4c:	60 00 cc cd 	ori     r0,r0,52429
 1801b50:	7c 0b 00 16 	mulhwu  r0,r11,r0
 1801b54:	54 00 e1 3e 	rlwinm  r0,r0,28,4,31
 1801b58:	54 09 10 3a 	rlwinm  r9,r0,2,0,29
 1801b5c:	7d 29 02 14 	add     r9,r9,r0
 1801b60:	55 29 10 3a 	rlwinm  r9,r9,2,0,29
 1801b64:	7d 69 58 50 	subf    r11,r9,r11
 1801b68:	55 6b 06 3e 	clrlwi  r11,r11,24
 1801b6c:	2c 0b 00 08 	cmpwi   r11,8
 1801b70:	40 82 03 84 	bne-    1801ef4 <send_bat+0x3d4>
 1801b74:	3d 20 01 82 	lis     r9,386
 1801b78:	3d 60 01 82 	lis     r11,386
 1801b7c:	89 29 a3 f9 	lbz     r9,-23559(r9)
 1801b80:	88 0b a3 fa 	lbz     r0,-23558(r11)
 1801b84:	3c c0 01 82 	lis     r6,386
 1801b88:	7c 09 00 40 	cmplw   r9,r0
 1801b8c:	3f a0 01 82 	lis     r29,386
 1801b90:	41 80 00 1c 	blt-    1801bac <send_bat+0x8c>
 1801b94:	88 1d a3 fa 	lbz     r0,-23558(r29)
 1801b98:	7c 00 48 50 	subf    r0,r0,r9
 1801b9c:	20 00 00 ff 	subfic  r0,r0,255
 1801ba0:	2c 00 00 0c 	cmpwi   r0,12
 1801ba4:	41 81 00 18 	bgt-    1801bbc <send_bat+0x9c>
 1801ba8:	48 00 03 3c 	b       1801ee4 <send_bat+0x3c4>
 1801bac:	88 1d a3 fa 	lbz     r0,-23558(r29)
 1801bb0:	7c 09 00 50 	subf    r0,r9,r0
 1801bb4:	2c 00 00 0c 	cmpwi   r0,12
 1801bb8:	40 81 03 2c 	ble-    1801ee4 <send_bat+0x3c4>
 1801bbc:	3d 60 01 82 	lis     r11,386
 1801bc0:	89 2b a3 f9 	lbz     r9,-23559(r11)
 1801bc4:	3d 40 01 82 	lis     r10,386
 1801bc8:	39 09 00 01 	addi    r8,r9,1
 1801bcc:	55 00 06 3e 	clrlwi  r0,r8,24
 1801bd0:	28 00 00 fe 	cmplwi  r0,254
 1801bd4:	38 8a a8 b4 	addi    r4,r10,-22348
 1801bd8:	55 29 06 3e 	clrlwi  r9,r9,24
 1801bdc:	38 00 00 05 	li      r0,5
 1801be0:	7c 04 49 ae 	stbx    r0,r4,r9
 1801be4:	3b cb a3 f9 	addi    r30,r11,-23559
 1801be8:	99 0b a3 f9 	stb     r8,-23559(r11)
 1801bec:	40 81 00 0c 	ble-    1801bf8 <send_bat+0xd8>
 1801bf0:	38 00 00 00 	li      r0,0
 1801bf4:	98 06 a3 f9 	stb     r0,-23559(r6)
 1801bf8:	89 26 a3 f9 	lbz     r9,-23559(r6)
 1801bfc:	39 40 00 0c 	li      r10,12
 1801c00:	39 69 00 01 	addi    r11,r9,1
 1801c04:	55 60 06 3e 	clrlwi  r0,r11,24
 1801c08:	55 29 06 3e 	clrlwi  r9,r9,24
 1801c0c:	28 00 00 fe 	cmplwi  r0,254
 1801c10:	7d 44 49 ae 	stbx    r10,r4,r9
 1801c14:	99 66 a3 f9 	stb     r11,-23559(r6)
 1801c18:	40 81 00 0c 	ble-    1801c24 <send_bat+0x104>
 1801c1c:	38 00 00 00 	li      r0,0
 1801c20:	98 06 a3 f9 	stb     r0,-23559(r6)
 1801c24:	89 46 a3 f9 	lbz     r10,-23559(r6)
 1801c28:	3d 20 01 82 	lis     r9,386
 1801c2c:	39 0a 00 01 	addi    r8,r10,1
 1801c30:	89 69 a3 f5 	lbz     r11,-23563(r9)
 1801c34:	55 00 06 3e 	clrlwi  r0,r8,24
 1801c38:	55 4a 06 3e 	clrlwi  r10,r10,24
 1801c3c:	28 00 00 fe 	cmplwi  r0,254
 1801c40:	7d 64 51 ae 	stbx    r11,r4,r10
 1801c44:	38 ab 00 18 	addi    r5,r11,24
 1801c48:	38 eb 00 0c 	addi    r7,r11,12
 1801c4c:	3c 60 01 82 	lis     r3,386
 1801c50:	3d 80 01 82 	lis     r12,386
 1801c54:	98 e3 a3 fc 	stb     r7,-23556(r3)
 1801c58:	98 ac a3 f6 	stb     r5,-23562(r12)
 1801c5c:	99 06 a3 f9 	stb     r8,-23559(r6)
 1801c60:	40 81 00 0c 	ble-    1801c6c <send_bat+0x14c>
 1801c64:	38 00 00 00 	li      r0,0
 1801c68:	98 06 a3 f9 	stb     r0,-23559(r6)
 1801c6c:	89 66 a3 f9 	lbz     r11,-23559(r6)
 1801c70:	3d 20 01 82 	lis     r9,386
 1801c74:	39 0b 00 01 	addi    r8,r11,1
 1801c78:	89 49 a4 b4 	lbz     r10,-23372(r9)
 1801c7c:	55 00 06 3e 	clrlwi  r0,r8,24
 1801c80:	7c e7 52 14 	add     r7,r7,r10
 1801c84:	55 6b 06 3e 	clrlwi  r11,r11,24
 1801c88:	28 00 00 fe 	cmplwi  r0,254
 1801c8c:	7d 44 59 ae 	stbx    r10,r4,r11
 1801c90:	7c a5 3a 14 	add     r5,r5,r7
 1801c94:	3b e9 a4 b4 	addi    r31,r9,-23372
 1801c98:	98 e3 a3 fc 	stb     r7,-23556(r3)
 1801c9c:	98 ac a3 f6 	stb     r5,-23562(r12)
 1801ca0:	99 06 a3 f9 	stb     r8,-23559(r6)
 1801ca4:	40 81 00 0c 	ble-    1801cb0 <send_bat+0x190>
 1801ca8:	38 00 00 00 	li      r0,0
 1801cac:	98 06 a3 f9 	stb     r0,-23559(r6)
 1801cb0:	89 26 a3 f9 	lbz     r9,-23559(r6)
 1801cb4:	89 7f 00 01 	lbz     r11,1(r31)
 1801cb8:	39 49 00 01 	addi    r10,r9,1
 1801cbc:	55 40 06 3e 	clrlwi  r0,r10,24
 1801cc0:	7c e7 5a 14 	add     r7,r7,r11
 1801cc4:	55 29 06 3e 	clrlwi  r9,r9,24
 1801cc8:	28 00 00 fe 	cmplwi  r0,254
 1801ccc:	7d 64 49 ae 	stbx    r11,r4,r9
 1801cd0:	7c a5 3a 14 	add     r5,r5,r7
 1801cd4:	98 e3 a3 fc 	stb     r7,-23556(r3)
 1801cd8:	98 ac a3 f6 	stb     r5,-23562(r12)
 1801cdc:	99 46 a3 f9 	stb     r10,-23559(r6)
 1801ce0:	40 81 00 0c 	ble-    1801cec <send_bat+0x1cc>
 1801ce4:	38 00 00 00 	li      r0,0
 1801ce8:	98 06 a3 f9 	stb     r0,-23559(r6)
 1801cec:	89 66 a3 f9 	lbz     r11,-23559(r6)
 1801cf0:	3d 20 01 82 	lis     r9,386
 1801cf4:	39 0b 00 01 	addi    r8,r11,1
 1801cf8:	89 49 a3 4b 	lbz     r10,-23733(r9)
 1801cfc:	55 00 06 3e 	clrlwi  r0,r8,24
 1801d00:	7c e7 52 14 	add     r7,r7,r10
 1801d04:	55 6b 06 3e 	clrlwi  r11,r11,24
 1801d08:	28 00 00 fe 	cmplwi  r0,254
 1801d0c:	7d 44 59 ae 	stbx    r10,r4,r11
 1801d10:	7c a5 3a 14 	add     r5,r5,r7
 1801d14:	98 e3 a3 fc 	stb     r7,-23556(r3)
 1801d18:	98 ac a3 f6 	stb     r5,-23562(r12)
 1801d1c:	99 06 a3 f9 	stb     r8,-23559(r6)
 1801d20:	40 81 00 0c 	ble-    1801d2c <send_bat+0x20c>
 1801d24:	38 00 00 00 	li      r0,0
 1801d28:	98 06 a3 f9 	stb     r0,-23559(r6)
 1801d2c:	89 66 a3 f9 	lbz     r11,-23559(r6)
 1801d30:	3d 20 01 82 	lis     r9,386
 1801d34:	39 0b 00 01 	addi    r8,r11,1
 1801d38:	89 49 a4 98 	lbz     r10,-23400(r9)
 1801d3c:	55 00 06 3e 	clrlwi  r0,r8,24
 1801d40:	7c e7 52 14 	add     r7,r7,r10
 1801d44:	55 6b 06 3e 	clrlwi  r11,r11,24
 1801d48:	28 00 00 fe 	cmplwi  r0,254
 1801d4c:	7d 44 59 ae 	stbx    r10,r4,r11
 1801d50:	7c a5 3a 14 	add     r5,r5,r7
 1801d54:	3b e9 a4 98 	addi    r31,r9,-23400
 1801d58:	98 e3 a3 fc 	stb     r7,-23556(r3)
 1801d5c:	98 ac a3 f6 	stb     r5,-23562(r12)
 1801d60:	99 06 a3 f9 	stb     r8,-23559(r6)
 1801d64:	40 81 00 0c 	ble-    1801d70 <send_bat+0x250>
 1801d68:	38 00 00 00 	li      r0,0
 1801d6c:	98 06 a3 f9 	stb     r0,-23559(r6)
 1801d70:	89 26 a3 f9 	lbz     r9,-23559(r6)
 1801d74:	89 7f 00 01 	lbz     r11,1(r31)
 1801d78:	39 49 00 01 	addi    r10,r9,1
 1801d7c:	55 40 06 3e 	clrlwi  r0,r10,24
 1801d80:	7c e7 5a 14 	add     r7,r7,r11
 1801d84:	55 29 06 3e 	clrlwi  r9,r9,24
 1801d88:	28 00 00 fe 	cmplwi  r0,254
 1801d8c:	7d 64 49 ae 	stbx    r11,r4,r9
 1801d90:	7c a5 3a 14 	add     r5,r5,r7
 1801d94:	98 e3 a3 fc 	stb     r7,-23556(r3)
 1801d98:	98 ac a3 f6 	stb     r5,-23562(r12)
 1801d9c:	99 46 a3 f9 	stb     r10,-23559(r6)
 1801da0:	40 81 00 0c 	ble-    1801dac <send_bat+0x28c>
 1801da4:	38 00 00 00 	li      r0,0
 1801da8:	98 06 a3 f9 	stb     r0,-23559(r6)
 1801dac:	89 66 a3 f9 	lbz     r11,-23559(r6)
 1801db0:	3d 20 01 82 	lis     r9,386
 1801db4:	39 0b 00 01 	addi    r8,r11,1
 1801db8:	89 49 a4 96 	lbz     r10,-23402(r9)
 1801dbc:	55 00 06 3e 	clrlwi  r0,r8,24
 1801dc0:	7c e7 52 14 	add     r7,r7,r10
 1801dc4:	55 6b 06 3e 	clrlwi  r11,r11,24
 1801dc8:	28 00 00 fe 	cmplwi  r0,254
 1801dcc:	7d 44 59 ae 	stbx    r10,r4,r11
 1801dd0:	7c a5 3a 14 	add     r5,r5,r7
 1801dd4:	3b e9 a4 96 	addi    r31,r9,-23402
 1801dd8:	98 e3 a3 fc 	stb     r7,-23556(r3)
 1801ddc:	98 ac a3 f6 	stb     r5,-23562(r12)
 1801de0:	99 06 a3 f9 	stb     r8,-23559(r6)
 1801de4:	40 81 00 0c 	ble-    1801df0 <send_bat+0x2d0>
 1801de8:	38 00 00 00 	li      r0,0
 1801dec:	98 06 a3 f9 	stb     r0,-23559(r6)
 1801df0:	89 26 a3 f9 	lbz     r9,-23559(r6)
 1801df4:	89 7f 00 01 	lbz     r11,1(r31)
 1801df8:	39 49 00 01 	addi    r10,r9,1
 1801dfc:	55 40 06 3e 	clrlwi  r0,r10,24
 1801e00:	7d 07 5a 14 	add     r8,r7,r11
 1801e04:	55 29 06 3e 	clrlwi  r9,r9,24
 1801e08:	28 00 00 fe 	cmplwi  r0,254
 1801e0c:	7d 64 49 ae 	stbx    r11,r4,r9
 1801e10:	7c e5 42 14 	add     r7,r5,r8
 1801e14:	99 03 a3 fc 	stb     r8,-23556(r3)
 1801e18:	98 ec a3 f6 	stb     r7,-23562(r12)
 1801e1c:	99 46 a3 f9 	stb     r10,-23559(r6)
 1801e20:	40 81 00 0c 	ble-    1801e2c <send_bat+0x30c>
 1801e24:	38 00 00 00 	li      r0,0
 1801e28:	98 06 a3 f9 	stb     r0,-23559(r6)
 1801e2c:	89 3e 00 00 	lbz     r9,0(r30)
 1801e30:	39 69 00 01 	addi    r11,r9,1
 1801e34:	55 60 06 3e 	clrlwi  r0,r11,24
 1801e38:	55 29 06 3e 	clrlwi  r9,r9,24
 1801e3c:	28 00 00 fe 	cmplwi  r0,254
 1801e40:	7d 04 49 ae 	stbx    r8,r4,r9
 1801e44:	99 7e 00 00 	stb     r11,0(r30)
 1801e48:	40 81 00 0c 	ble-    1801e54 <send_bat+0x334>
 1801e4c:	38 00 00 00 	li      r0,0
 1801e50:	98 1e 00 00 	stb     r0,0(r30)
 1801e54:	89 3e 00 00 	lbz     r9,0(r30)
 1801e58:	39 69 00 01 	addi    r11,r9,1
 1801e5c:	55 60 06 3e 	clrlwi  r0,r11,24
 1801e60:	55 29 06 3e 	clrlwi  r9,r9,24
 1801e64:	28 00 00 fe 	cmplwi  r0,254
 1801e68:	7c e4 49 ae 	stbx    r7,r4,r9
 1801e6c:	99 7e 00 00 	stb     r11,0(r30)
 1801e70:	40 81 00 0c 	ble-    1801e7c <send_bat+0x35c>
 1801e74:	38 00 00 00 	li      r0,0
 1801e78:	98 1e 00 00 	stb     r0,0(r30)
 1801e7c:	38 c0 00 59 	li      r6,89
 1801e80:	88 06 00 00 	lbz     r0,0(r6)
 1801e84:	70 07 00 10 	andi.   r7,r0,16
 1801e88:	40 82 00 6c 	bne-    1801ef4 <send_bat+0x3d4>
 1801e8c:	3d 60 01 82 	lis     r11,386
 1801e90:	88 0b a3 fa 	lbz     r0,-23558(r11)
 1801e94:	89 2b a3 fa 	lbz     r9,-23558(r11)
 1801e98:	7d 04 00 ae 	lbzx    r8,r4,r0
 1801e9c:	39 29 00 01 	addi    r9,r9,1
 1801ea0:	99 2b a3 fa 	stb     r9,-23558(r11)
 1801ea4:	88 0b a3 fa 	lbz     r0,-23558(r11)
 1801ea8:	3d 40 01 82 	lis     r10,386
 1801eac:	28 00 00 fe 	cmplwi  r0,254
 1801eb0:	3d 20 01 82 	lis     r9,386
 1801eb4:	99 0a a3 f8 	stb     r8,-23560(r10)
 1801eb8:	98 e9 a3 fb 	stb     r7,-23557(r9)
 1801ebc:	40 81 00 08 	ble-    1801ec4 <send_bat+0x3a4>
 1801ec0:	98 fd a3 fa 	stb     r7,-23558(r29)
 1801ec4:	39 20 00 58 	li      r9,88
 1801ec8:	88 09 00 00 	lbz     r0,0(r9)
 1801ecc:	60 00 00 01 	ori     r0,r0,1
 1801ed0:	98 09 00 00 	stb     r0,0(r9)
 1801ed4:	89 66 00 00 	lbz     r11,0(r6)
 1801ed8:	61 6b 00 10 	ori     r11,r11,16
 1801edc:	99 66 00 00 	stb     r11,0(r6)
 1801ee0:	48 00 00 14 	b       1801ef4 <send_bat+0x3d4>
 1801ee4:	3d 60 01 82 	lis     r11,386
 1801ee8:	89 2b a3 f7 	lbz     r9,-23561(r11)
 1801eec:	39 29 00 01 	addi    r9,r9,1
 1801ef0:	99 2b a3 f7 	stb     r9,-23561(r11)
 1801ef4:	83 a1 00 14 	lwz     r29,20(r1)
 1801ef8:	83 c1 00 18 	lwz     r30,24(r1)
 1801efc:	83 e1 00 1c 	lwz     r31,28(r1)
 1801f00:	38 21 00 20 	addi    r1,r1,32
 1801f04:	4e 80 00 20 	blr

01801f08 <send_climb>:
 1801f08:	94 21 ff e0 	stwu    r1,-32(r1)
 1801f0c:	93 61 00 0c 	stw     r27,12(r1)
 1801f10:	93 81 00 10 	stw     r28,16(r1)
 1801f14:	93 a1 00 14 	stw     r29,20(r1)
 1801f18:	93 c1 00 18 	stw     r30,24(r1)
 1801f1c:	93 e1 00 1c 	stw     r31,28(r1)
 1801f20:	3d 20 01 82 	lis     r9,386
 1801f24:	88 09 a3 4d 	lbz     r0,-23731(r9)
 1801f28:	2c 00 00 00 	cmpwi   r0,0
 1801f2c:	40 82 05 30 	bne-    180245c <send_climb+0x554>
 1801f30:	3d 20 01 82 	lis     r9,386
 1801f34:	89 69 a3 e7 	lbz     r11,-23577(r9)
 1801f38:	3c 00 cc cc 	lis     r0,-13108
 1801f3c:	60 00 cc cd 	ori     r0,r0,52429
 1801f40:	7c 0b 00 16 	mulhwu  r0,r11,r0
 1801f44:	54 00 e1 3e 	rlwinm  r0,r0,28,4,31
 1801f48:	54 09 10 3a 	rlwinm  r9,r0,2,0,29
 1801f4c:	7d 29 02 14 	add     r9,r9,r0
 1801f50:	55 29 10 3a 	rlwinm  r9,r9,2,0,29
 1801f54:	7d 69 58 50 	subf    r11,r9,r11
 1801f58:	55 6b 06 3e 	clrlwi  r11,r11,24
 1801f5c:	2c 0b 00 12 	cmpwi   r11,18
 1801f60:	40 82 04 fc 	bne-    180245c <send_climb+0x554>
 1801f64:	3d 20 01 82 	lis     r9,386
 1801f68:	3d 60 01 82 	lis     r11,386
 1801f6c:	89 29 a3 f9 	lbz     r9,-23559(r9)
 1801f70:	88 0b a3 fa 	lbz     r0,-23558(r11)
 1801f74:	3c c0 01 82 	lis     r6,386
 1801f78:	7c 09 00 40 	cmplw   r9,r0
 1801f7c:	3f 60 01 82 	lis     r27,386
 1801f80:	41 80 00 1c 	blt-    1801f9c <send_climb+0x94>
 1801f84:	88 1b a3 fa 	lbz     r0,-23558(r27)
 1801f88:	7c 00 48 50 	subf    r0,r0,r9
 1801f8c:	20 00 00 ff 	subfic  r0,r0,255
 1801f90:	2c 00 00 12 	cmpwi   r0,18
 1801f94:	41 81 00 18 	bgt-    1801fac <send_climb+0xa4>
 1801f98:	48 00 04 b4 	b       180244c <send_climb+0x544>
 1801f9c:	88 1b a3 fa 	lbz     r0,-23558(r27)
 1801fa0:	7c 09 00 50 	subf    r0,r9,r0
 1801fa4:	2c 00 00 12 	cmpwi   r0,18
 1801fa8:	40 81 04 a4 	ble-    180244c <send_climb+0x544>
 1801fac:	3d 60 01 82 	lis     r11,386
 1801fb0:	89 2b a3 f9 	lbz     r9,-23559(r11)
 1801fb4:	3d 40 01 82 	lis     r10,386
 1801fb8:	39 09 00 01 	addi    r8,r9,1
 1801fbc:	55 00 06 3e 	clrlwi  r0,r8,24
 1801fc0:	28 00 00 fe 	cmplwi  r0,254
 1801fc4:	38 6a a8 b4 	addi    r3,r10,-22348
 1801fc8:	55 29 06 3e 	clrlwi  r9,r9,24
 1801fcc:	38 00 00 05 	li      r0,5
 1801fd0:	7c 03 49 ae 	stbx    r0,r3,r9
 1801fd4:	38 8b a3 f9 	addi    r4,r11,-23559
 1801fd8:	99 0b a3 f9 	stb     r8,-23559(r11)
 1801fdc:	40 81 00 0c 	ble-    1801fe8 <send_climb+0xe0>
 1801fe0:	38 00 00 00 	li      r0,0
 1801fe4:	98 06 a3 f9 	stb     r0,-23559(r6)
 1801fe8:	89 26 a3 f9 	lbz     r9,-23559(r6)
 1801fec:	39 40 00 0e 	li      r10,14
 1801ff0:	39 69 00 01 	addi    r11,r9,1
 1801ff4:	55 60 06 3e 	clrlwi  r0,r11,24
 1801ff8:	55 29 06 3e 	clrlwi  r9,r9,24
 1801ffc:	28 00 00 fe 	cmplwi  r0,254
 1802000:	7d 43 49 ae 	stbx    r10,r3,r9
 1802004:	99 66 a3 f9 	stb     r11,-23559(r6)
 1802008:	40 81 00 0c 	ble-    1802014 <send_climb+0x10c>
 180200c:	38 00 00 00 	li      r0,0
 1802010:	98 06 a3 f9 	stb     r0,-23559(r6)
 1802014:	89 46 a3 f9 	lbz     r10,-23559(r6)
 1802018:	3d 20 01 82 	lis     r9,386
 180201c:	39 0a 00 01 	addi    r8,r10,1
 1802020:	89 69 a4 44 	lbz     r11,-23484(r9)
 1802024:	55 00 06 3e 	clrlwi  r0,r8,24
 1802028:	55 4a 06 3e 	clrlwi  r10,r10,24
 180202c:	28 00 00 fe 	cmplwi  r0,254
 1802030:	7d 63 51 ae 	stbx    r11,r3,r10
 1802034:	3f e0 01 82 	lis     r31,386
 1802038:	3d 80 01 82 	lis     r12,386
 180203c:	38 ab 00 1c 	addi    r5,r11,28
 1802040:	38 eb 00 0e 	addi    r7,r11,14
 1802044:	3b c9 a4 44 	addi    r30,r9,-23484
 1802048:	3b bf a3 fc 	addi    r29,r31,-23556
 180204c:	3b 8c a3 f6 	addi    r28,r12,-23562
 1802050:	98 ff a3 fc 	stb     r7,-23556(r31)
 1802054:	98 ac a3 f6 	stb     r5,-23562(r12)
 1802058:	99 06 a3 f9 	stb     r8,-23559(r6)
 180205c:	40 81 00 0c 	ble-    1802068 <send_climb+0x160>
 1802060:	38 00 00 00 	li      r0,0
 1802064:	98 06 a3 f9 	stb     r0,-23559(r6)
 1802068:	89 26 a3 f9 	lbz     r9,-23559(r6)
 180206c:	89 7e 00 01 	lbz     r11,1(r30)
 1802070:	39 49 00 01 	addi    r10,r9,1
 1802074:	55 40 06 3e 	clrlwi  r0,r10,24
 1802078:	7c e7 5a 14 	add     r7,r7,r11
 180207c:	55 29 06 3e 	clrlwi  r9,r9,24
 1802080:	28 00 00 fe 	cmplwi  r0,254
 1802084:	7d 63 49 ae 	stbx    r11,r3,r9
 1802088:	7c a5 3a 14 	add     r5,r5,r7
 180208c:	98 ff a3 fc 	stb     r7,-23556(r31)
 1802090:	98 ac a3 f6 	stb     r5,-23562(r12)
 1802094:	99 46 a3 f9 	stb     r10,-23559(r6)
 1802098:	40 81 00 0c 	ble-    18020a4 <send_climb+0x19c>
 180209c:	38 00 00 00 	li      r0,0
 18020a0:	98 06 a3 f9 	stb     r0,-23559(r6)
 18020a4:	89 66 a3 f9 	lbz     r11,-23559(r6)
 18020a8:	3d 20 01 82 	lis     r9,386
 18020ac:	39 0b 00 01 	addi    r8,r11,1
 18020b0:	89 49 a3 a4 	lbz     r10,-23644(r9)
 18020b4:	55 00 06 3e 	clrlwi  r0,r8,24
 18020b8:	7c e7 52 14 	add     r7,r7,r10
 18020bc:	55 6b 06 3e 	clrlwi  r11,r11,24
 18020c0:	28 00 00 fe 	cmplwi  r0,254
 18020c4:	7d 43 59 ae 	stbx    r10,r3,r11
 18020c8:	7c a5 3a 14 	add     r5,r5,r7
 18020cc:	3b c9 a3 a4 	addi    r30,r9,-23644
 18020d0:	98 ff a3 fc 	stb     r7,-23556(r31)
 18020d4:	98 ac a3 f6 	stb     r5,-23562(r12)
 18020d8:	99 06 a3 f9 	stb     r8,-23559(r6)
 18020dc:	40 81 00 0c 	ble-    18020e8 <send_climb+0x1e0>
 18020e0:	38 00 00 00 	li      r0,0
 18020e4:	98 06 a3 f9 	stb     r0,-23559(r6)
 18020e8:	89 26 a3 f9 	lbz     r9,-23559(r6)
 18020ec:	89 7e 00 01 	lbz     r11,1(r30)
 18020f0:	39 49 00 01 	addi    r10,r9,1
 18020f4:	55 40 06 3e 	clrlwi  r0,r10,24
 18020f8:	7d 07 5a 14 	add     r8,r7,r11
 18020fc:	55 29 06 3e 	clrlwi  r9,r9,24
 1802100:	28 00 00 fe 	cmplwi  r0,254
 1802104:	7d 63 49 ae 	stbx    r11,r3,r9
 1802108:	7c e5 42 14 	add     r7,r5,r8
 180210c:	99 1f a3 fc 	stb     r8,-23556(r31)
 1802110:	98 ec a3 f6 	stb     r7,-23562(r12)
 1802114:	99 46 a3 f9 	stb     r10,-23559(r6)
 1802118:	40 81 00 0c 	ble-    1802124 <send_climb+0x21c>
 180211c:	38 00 00 00 	li      r0,0
 1802120:	98 06 a3 f9 	stb     r0,-23559(r6)
 1802124:	89 26 a3 f9 	lbz     r9,-23559(r6)
 1802128:	89 7e 00 02 	lbz     r11,2(r30)
 180212c:	39 49 00 01 	addi    r10,r9,1
 1802130:	55 40 06 3e 	clrlwi  r0,r10,24
 1802134:	7d 08 5a 14 	add     r8,r8,r11
 1802138:	55 29 06 3e 	clrlwi  r9,r9,24
 180213c:	28 00 00 fe 	cmplwi  r0,254
 1802140:	7d 63 49 ae 	stbx    r11,r3,r9
 1802144:	7c a7 42 14 	add     r5,r7,r8
 1802148:	99 1f a3 fc 	stb     r8,-23556(r31)
 180214c:	98 ac a3 f6 	stb     r5,-23562(r12)
 1802150:	99 46 a3 f9 	stb     r10,-23559(r6)
 1802154:	40 81 00 0c 	ble-    1802160 <send_climb+0x258>
 1802158:	38 00 00 00 	li      r0,0
 180215c:	98 06 a3 f9 	stb     r0,-23559(r6)
 1802160:	89 26 a3 f9 	lbz     r9,-23559(r6)
 1802164:	89 7e 00 03 	lbz     r11,3(r30)
 1802168:	39 49 00 01 	addi    r10,r9,1
 180216c:	55 40 06 3e 	clrlwi  r0,r10,24
 1802170:	7c e8 5a 14 	add     r7,r8,r11
 1802174:	55 29 06 3e 	clrlwi  r9,r9,24
 1802178:	28 00 00 fe 	cmplwi  r0,254
 180217c:	7d 63 49 ae 	stbx    r11,r3,r9
 1802180:	7c a5 3a 14 	add     r5,r5,r7
 1802184:	98 ff a3 fc 	stb     r7,-23556(r31)
 1802188:	98 ac a3 f6 	stb     r5,-23562(r12)
 180218c:	99 46 a3 f9 	stb     r10,-23559(r6)
 1802190:	40 81 00 0c 	ble-    180219c <send_climb+0x294>
 1802194:	38 00 00 00 	li      r0,0
 1802198:	98 06 a3 f9 	stb     r0,-23559(r6)
 180219c:	89 66 a3 f9 	lbz     r11,-23559(r6)
 18021a0:	3d 20 01 82 	lis     r9,386
 18021a4:	39 0b 00 01 	addi    r8,r11,1
 18021a8:	89 49 a3 b0 	lbz     r10,-23632(r9)
 18021ac:	55 00 06 3e 	clrlwi  r0,r8,24
 18021b0:	7c e7 52 14 	add     r7,r7,r10
 18021b4:	55 6b 06 3e 	clrlwi  r11,r11,24
 18021b8:	28 00 00 fe 	cmplwi  r0,254
 18021bc:	7d 43 59 ae 	stbx    r10,r3,r11
 18021c0:	7c a5 3a 14 	add     r5,r5,r7
 18021c4:	3b c9 a3 b0 	addi    r30,r9,-23632
 18021c8:	98 ff a3 fc 	stb     r7,-23556(r31)
 18021cc:	98 ac a3 f6 	stb     r5,-23562(r12)
 18021d0:	99 06 a3 f9 	stb     r8,-23559(r6)
 18021d4:	40 81 00 0c 	ble-    18021e0 <send_climb+0x2d8>
 18021d8:	38 00 00 00 	li      r0,0
 18021dc:	98 06 a3 f9 	stb     r0,-23559(r6)
 18021e0:	89 26 a3 f9 	lbz     r9,-23559(r6)
 18021e4:	89 7e 00 01 	lbz     r11,1(r30)
 18021e8:	39 49 00 01 	addi    r10,r9,1
 18021ec:	55 40 06 3e 	clrlwi  r0,r10,24
 18021f0:	7d 07 5a 14 	add     r8,r7,r11
 18021f4:	55 29 06 3e 	clrlwi  r9,r9,24
 18021f8:	28 00 00 fe 	cmplwi  r0,254
 18021fc:	7d 63 49 ae 	stbx    r11,r3,r9
 1802200:	7c e5 42 14 	add     r7,r5,r8
 1802204:	99 1f a3 fc 	stb     r8,-23556(r31)
 1802208:	98 ec a3 f6 	stb     r7,-23562(r12)
 180220c:	99 46 a3 f9 	stb     r10,-23559(r6)
 1802210:	40 81 00 0c 	ble-    180221c <send_climb+0x314>
 1802214:	38 00 00 00 	li      r0,0
 1802218:	98 06 a3 f9 	stb     r0,-23559(r6)
 180221c:	89 24 00 00 	lbz     r9,0(r4)
 1802220:	89 7e 00 02 	lbz     r11,2(r30)
 1802224:	39 49 00 01 	addi    r10,r9,1
 1802228:	7c c8 5a 14 	add     r6,r8,r11
 180222c:	55 40 06 3e 	clrlwi  r0,r10,24
 1802230:	55 29 06 3e 	clrlwi  r9,r9,24
 1802234:	7d 63 49 ae 	stbx    r11,r3,r9
 1802238:	7c a7 32 14 	add     r5,r7,r6
 180223c:	28 00 00 fe 	cmplwi  r0,254
 1802240:	98 df a3 fc 	stb     r6,-23556(r31)
 1802244:	98 ac a3 f6 	stb     r5,-23562(r12)
 1802248:	99 44 00 00 	stb     r10,0(r4)
 180224c:	40 81 00 0c 	ble-    1802258 <send_climb+0x350>
 1802250:	38 00 00 00 	li      r0,0
 1802254:	98 04 00 00 	stb     r0,0(r4)
 1802258:	89 1e 00 03 	lbz     r8,3(r30)
 180225c:	89 24 00 00 	lbz     r9,0(r4)
 1802260:	7d 46 42 14 	add     r10,r6,r8
 1802264:	38 e9 00 01 	addi    r7,r9,1
 1802268:	7d 65 52 14 	add     r11,r5,r10
 180226c:	99 6c a3 f6 	stb     r11,-23562(r12)
 1802270:	54 e0 06 3e 	clrlwi  r0,r7,24
 1802274:	55 29 06 3e 	clrlwi  r9,r9,24
 1802278:	7d 03 49 ae 	stbx    r8,r3,r9
 180227c:	28 00 00 fe 	cmplwi  r0,254
 1802280:	99 5f a3 fc 	stb     r10,-23556(r31)
 1802284:	98 e4 00 00 	stb     r7,0(r4)
 1802288:	40 81 00 0c 	ble-    1802294 <send_climb+0x38c>
 180228c:	38 00 00 00 	li      r0,0
 1802290:	98 04 00 00 	stb     r0,0(r4)
 1802294:	89 64 00 00 	lbz     r11,0(r4)
 1802298:	3d 20 01 82 	lis     r9,386
 180229c:	89 09 a3 9c 	lbz     r8,-23652(r9)
 18022a0:	88 1d 00 00 	lbz     r0,0(r29)
 18022a4:	3b e9 a3 9c 	addi    r31,r9,-23652
 18022a8:	89 3c 00 00 	lbz     r9,0(r28)
 18022ac:	38 eb 00 01 	addi    r7,r11,1
 18022b0:	7c c0 42 14 	add     r6,r0,r8
 18022b4:	54 ea 06 3e 	clrlwi  r10,r7,24
 18022b8:	55 6b 06 3e 	clrlwi  r11,r11,24
 18022bc:	7d 03 59 ae 	stbx    r8,r3,r11
 18022c0:	7c a9 32 14 	add     r5,r9,r6
 18022c4:	28 0a 00 fe 	cmplwi  r10,254
 18022c8:	98 dd 00 00 	stb     r6,0(r29)
 18022cc:	98 bc 00 00 	stb     r5,0(r28)
 18022d0:	98 e4 00 00 	stb     r7,0(r4)
 18022d4:	40 81 00 0c 	ble-    18022e0 <send_climb+0x3d8>
 18022d8:	38 00 00 00 	li      r0,0
 18022dc:	98 04 00 00 	stb     r0,0(r4)
 18022e0:	89 24 00 00 	lbz     r9,0(r4)
 18022e4:	89 7f 00 01 	lbz     r11,1(r31)
 18022e8:	39 49 00 01 	addi    r10,r9,1
 18022ec:	7d 06 5a 14 	add     r8,r6,r11
 18022f0:	55 40 06 3e 	clrlwi  r0,r10,24
 18022f4:	55 29 06 3e 	clrlwi  r9,r9,24
 18022f8:	7d 63 49 ae 	stbx    r11,r3,r9
 18022fc:	7c e5 42 14 	add     r7,r5,r8
 1802300:	28 00 00 fe 	cmplwi  r0,254
 1802304:	99 1d 00 00 	stb     r8,0(r29)
 1802308:	98 fc 00 00 	stb     r7,0(r28)
 180230c:	99 44 00 00 	stb     r10,0(r4)
 1802310:	40 81 00 0c 	ble-    180231c <send_climb+0x414>
 1802314:	38 00 00 00 	li      r0,0
 1802318:	98 04 00 00 	stb     r0,0(r4)
 180231c:	89 24 00 00 	lbz     r9,0(r4)
 1802320:	89 7f 00 02 	lbz     r11,2(r31)
 1802324:	39 49 00 01 	addi    r10,r9,1
 1802328:	7d 08 5a 14 	add     r8,r8,r11
 180232c:	55 40 06 3e 	clrlwi  r0,r10,24
 1802330:	55 29 06 3e 	clrlwi  r9,r9,24
 1802334:	7d 63 49 ae 	stbx    r11,r3,r9
 1802338:	7c e7 42 14 	add     r7,r7,r8
 180233c:	28 00 00 fe 	cmplwi  r0,254
 1802340:	99 1d 00 00 	stb     r8,0(r29)
 1802344:	98 fc 00 00 	stb     r7,0(r28)
 1802348:	99 44 00 00 	stb     r10,0(r4)
 180234c:	40 81 00 0c 	ble-    1802358 <send_climb+0x450>
 1802350:	38 00 00 00 	li      r0,0
 1802354:	98 04 00 00 	stb     r0,0(r4)
 1802358:	89 24 00 00 	lbz     r9,0(r4)
 180235c:	89 7f 00 03 	lbz     r11,3(r31)
 1802360:	39 49 00 01 	addi    r10,r9,1
 1802364:	7d 08 5a 14 	add     r8,r8,r11
 1802368:	55 40 06 3e 	clrlwi  r0,r10,24
 180236c:	55 29 06 3e 	clrlwi  r9,r9,24
 1802370:	7d 63 49 ae 	stbx    r11,r3,r9
 1802374:	7c e7 42 14 	add     r7,r7,r8
 1802378:	28 00 00 fe 	cmplwi  r0,254
 180237c:	99 1d 00 00 	stb     r8,0(r29)
 1802380:	98 fc 00 00 	stb     r7,0(r28)
 1802384:	99 44 00 00 	stb     r10,0(r4)
 1802388:	40 81 00 0c 	ble-    1802394 <send_climb+0x48c>
 180238c:	38 00 00 00 	li      r0,0
 1802390:	98 04 00 00 	stb     r0,0(r4)
 1802394:	89 24 00 00 	lbz     r9,0(r4)
 1802398:	39 69 00 01 	addi    r11,r9,1
 180239c:	55 60 06 3e 	clrlwi  r0,r11,24
 18023a0:	55 29 06 3e 	clrlwi  r9,r9,24
 18023a4:	28 00 00 fe 	cmplwi  r0,254
 18023a8:	7d 03 49 ae 	stbx    r8,r3,r9
 18023ac:	99 64 00 00 	stb     r11,0(r4)
 18023b0:	40 81 00 0c 	ble-    18023bc <send_climb+0x4b4>
 18023b4:	38 00 00 00 	li      r0,0
 18023b8:	98 04 00 00 	stb     r0,0(r4)
 18023bc:	89 24 00 00 	lbz     r9,0(r4)
 18023c0:	39 69 00 01 	addi    r11,r9,1
 18023c4:	55 60 06 3e 	clrlwi  r0,r11,24
 18023c8:	55 29 06 3e 	clrlwi  r9,r9,24
 18023cc:	28 00 00 fe 	cmplwi  r0,254
 18023d0:	7c e3 49 ae 	stbx    r7,r3,r9
 18023d4:	99 64 00 00 	stb     r11,0(r4)
 18023d8:	40 81 00 0c 	ble-    18023e4 <send_climb+0x4dc>
 18023dc:	38 00 00 00 	li      r0,0
 18023e0:	98 04 00 00 	stb     r0,0(r4)
 18023e4:	38 c0 00 59 	li      r6,89
 18023e8:	88 06 00 00 	lbz     r0,0(r6)
 18023ec:	70 07 00 10 	andi.   r7,r0,16
 18023f0:	40 82 00 6c 	bne-    180245c <send_climb+0x554>
 18023f4:	3d 60 01 82 	lis     r11,386
 18023f8:	88 0b a3 fa 	lbz     r0,-23558(r11)
 18023fc:	89 2b a3 fa 	lbz     r9,-23558(r11)
 1802400:	7d 03 00 ae 	lbzx    r8,r3,r0
 1802404:	39 29 00 01 	addi    r9,r9,1
 1802408:	99 2b a3 fa 	stb     r9,-23558(r11)
 180240c:	88 0b a3 fa 	lbz     r0,-23558(r11)
 1802410:	3d 40 01 82 	lis     r10,386
 1802414:	28 00 00 fe 	cmplwi  r0,254
 1802418:	3d 20 01 82 	lis     r9,386
 180241c:	99 0a a3 f8 	stb     r8,-23560(r10)
 1802420:	98 e9 a3 fb 	stb     r7,-23557(r9)
 1802424:	40 81 00 08 	ble-    180242c <send_climb+0x524>
 1802428:	98 fb a3 fa 	stb     r7,-23558(r27)
 180242c:	39 20 00 58 	li      r9,88
 1802430:	88 09 00 00 	lbz     r0,0(r9)
 1802434:	60 00 00 01 	ori     r0,r0,1
 1802438:	98 09 00 00 	stb     r0,0(r9)
 180243c:	89 66 00 00 	lbz     r11,0(r6)
 1802440:	61 6b 00 10 	ori     r11,r11,16
 1802444:	99 66 00 00 	stb     r11,0(r6)
 1802448:	48 00 00 14 	b       180245c <send_climb+0x554>
 180244c:	3d 60 01 82 	lis     r11,386
 1802450:	89 2b a3 f7 	lbz     r9,-23561(r11)
 1802454:	39 29 00 01 	addi    r9,r9,1
 1802458:	99 2b a3 f7 	stb     r9,-23561(r11)
 180245c:	83 61 00 0c 	lwz     r27,12(r1)
 1802460:	83 81 00 10 	lwz     r28,16(r1)
 1802464:	83 a1 00 14 	lwz     r29,20(r1)
 1802468:	83 c1 00 18 	lwz     r30,24(r1)
 180246c:	83 e1 00 1c 	lwz     r31,28(r1)
 1802470:	38 21 00 20 	addi    r1,r1,32
 1802474:	4e 80 00 20 	blr

01802478 <send_mode>:
 1802478:	94 21 ff f0 	stwu    r1,-16(r1)
 180247c:	93 e1 00 0c 	stw     r31,12(r1)
 1802480:	3d 20 01 82 	lis     r9,386
 1802484:	88 09 a3 4d 	lbz     r0,-23731(r9)
 1802488:	2c 00 00 00 	cmpwi   r0,0
 180248c:	40 82 02 fc 	bne-    1802788 <send_mode+0x310>
 1802490:	3d 60 01 82 	lis     r11,386
 1802494:	89 4b a3 e7 	lbz     r10,-23577(r11)
 1802498:	3d 20 51 eb 	lis     r9,20971
 180249c:	61 29 85 1f 	ori     r9,r9,34079
 18024a0:	7d 2a 48 16 	mulhwu  r9,r10,r9
 18024a4:	55 29 e1 3e 	rlwinm  r9,r9,28,4,31
 18024a8:	55 20 08 3c 	rlwinm  r0,r9,1,0,30
 18024ac:	7c 00 4a 14 	add     r0,r0,r9
 18024b0:	54 00 20 36 	rlwinm  r0,r0,4,0,27
 18024b4:	7c 00 4a 14 	add     r0,r0,r9
 18024b8:	7c 00 4a 14 	add     r0,r0,r9
 18024bc:	7d 40 50 50 	subf    r10,r0,r10
 18024c0:	55 4a 06 3e 	clrlwi  r10,r10,24
 18024c4:	2c 0a 00 09 	cmpwi   r10,9
 18024c8:	40 82 02 c0 	bne-    1802788 <send_mode+0x310>
 18024cc:	3d 20 01 82 	lis     r9,386
 18024d0:	3d 60 01 82 	lis     r11,386
 18024d4:	89 29 a3 f9 	lbz     r9,-23559(r9)
 18024d8:	88 0b a3 fa 	lbz     r0,-23558(r11)
 18024dc:	3c c0 01 82 	lis     r6,386
 18024e0:	7c 09 00 40 	cmplw   r9,r0
 18024e4:	3f e0 01 82 	lis     r31,386
 18024e8:	41 80 00 1c 	blt-    1802504 <send_mode+0x8c>
 18024ec:	88 1f a3 fa 	lbz     r0,-23558(r31)
 18024f0:	7c 00 48 50 	subf    r0,r0,r9
 18024f4:	20 00 00 ff 	subfic  r0,r0,255
 18024f8:	2c 00 00 09 	cmpwi   r0,9
 18024fc:	41 81 00 18 	bgt-    1802514 <send_mode+0x9c>
 1802500:	48 00 02 78 	b       1802778 <send_mode+0x300>
 1802504:	88 1f a3 fa 	lbz     r0,-23558(r31)
 1802508:	7c 09 00 50 	subf    r0,r9,r0
 180250c:	2c 00 00 09 	cmpwi   r0,9
 1802510:	40 81 02 68 	ble-    1802778 <send_mode+0x300>
 1802514:	3d 00 01 82 	lis     r8,386
 1802518:	89 28 a3 f9 	lbz     r9,-23559(r8)
 180251c:	3d 60 01 82 	lis     r11,386
 1802520:	39 49 00 01 	addi    r10,r9,1
 1802524:	55 40 06 3e 	clrlwi  r0,r10,24
 1802528:	28 00 00 fe 	cmplwi  r0,254
 180252c:	38 8b a8 b4 	addi    r4,r11,-22348
 1802530:	55 29 06 3e 	clrlwi  r9,r9,24
 1802534:	38 00 00 05 	li      r0,5
 1802538:	7c 04 49 ae 	stbx    r0,r4,r9
 180253c:	99 48 a3 f9 	stb     r10,-23559(r8)
 1802540:	40 81 00 0c 	ble-    180254c <send_mode+0xd4>
 1802544:	38 00 00 00 	li      r0,0
 1802548:	98 06 a3 f9 	stb     r0,-23559(r6)
 180254c:	89 26 a3 f9 	lbz     r9,-23559(r6)
 1802550:	39 40 00 0b 	li      r10,11
 1802554:	39 69 00 01 	addi    r11,r9,1
 1802558:	55 60 06 3e 	clrlwi  r0,r11,24
 180255c:	55 29 06 3e 	clrlwi  r9,r9,24
 1802560:	28 00 00 fe 	cmplwi  r0,254
 1802564:	7d 44 49 ae 	stbx    r10,r4,r9
 1802568:	99 66 a3 f9 	stb     r11,-23559(r6)
 180256c:	40 81 00 0c 	ble-    1802578 <send_mode+0x100>
 1802570:	38 00 00 00 	li      r0,0
 1802574:	98 06 a3 f9 	stb     r0,-23559(r6)
 1802578:	89 46 a3 f9 	lbz     r10,-23559(r6)
 180257c:	3d 20 01 82 	lis     r9,386
 1802580:	39 0a 00 01 	addi    r8,r10,1
 1802584:	89 69 a3 46 	lbz     r11,-23738(r9)
 1802588:	55 00 06 3e 	clrlwi  r0,r8,24
 180258c:	55 4a 06 3e 	clrlwi  r10,r10,24
 1802590:	28 00 00 fe 	cmplwi  r0,254
 1802594:	7d 64 51 ae 	stbx    r11,r4,r10
 1802598:	38 ab 00 16 	addi    r5,r11,22
 180259c:	38 eb 00 0b 	addi    r7,r11,11
 18025a0:	3c 60 01 82 	lis     r3,386
 18025a4:	3d 80 01 82 	lis     r12,386
 18025a8:	98 e3 a3 fc 	stb     r7,-23556(r3)
 18025ac:	98 ac a3 f6 	stb     r5,-23562(r12)
 18025b0:	99 06 a3 f9 	stb     r8,-23559(r6)
 18025b4:	40 81 00 0c 	ble-    18025c0 <send_mode+0x148>
 18025b8:	38 00 00 00 	li      r0,0
 18025bc:	98 06 a3 f9 	stb     r0,-23559(r6)
 18025c0:	89 66 a3 f9 	lbz     r11,-23559(r6)
 18025c4:	3d 20 01 82 	lis     r9,386
 18025c8:	39 0b 00 01 	addi    r8,r11,1
 18025cc:	89 49 a3 47 	lbz     r10,-23737(r9)
 18025d0:	55 00 06 3e 	clrlwi  r0,r8,24
 18025d4:	7c e7 52 14 	add     r7,r7,r10
 18025d8:	55 6b 06 3e 	clrlwi  r11,r11,24
 18025dc:	28 00 00 fe 	cmplwi  r0,254
 18025e0:	7d 44 59 ae 	stbx    r10,r4,r11
 18025e4:	7c a5 3a 14 	add     r5,r5,r7
 18025e8:	98 e3 a3 fc 	stb     r7,-23556(r3)
 18025ec:	98 ac a3 f6 	stb     r5,-23562(r12)
 18025f0:	99 06 a3 f9 	stb     r8,-23559(r6)
 18025f4:	40 81 00 0c 	ble-    1802600 <send_mode+0x188>
 18025f8:	38 00 00 00 	li      r0,0
 18025fc:	98 06 a3 f9 	stb     r0,-23559(r6)
 1802600:	89 66 a3 f9 	lbz     r11,-23559(r6)
 1802604:	3d 20 01 82 	lis     r9,386
 1802608:	39 0b 00 01 	addi    r8,r11,1
 180260c:	89 49 a3 e1 	lbz     r10,-23583(r9)
 1802610:	55 00 06 3e 	clrlwi  r0,r8,24
 1802614:	7c e7 52 14 	add     r7,r7,r10
 1802618:	55 6b 06 3e 	clrlwi  r11,r11,24
 180261c:	28 00 00 fe 	cmplwi  r0,254
 1802620:	7d 44 59 ae 	stbx    r10,r4,r11
 1802624:	7c a5 3a 14 	add     r5,r5,r7
 1802628:	98 e3 a3 fc 	stb     r7,-23556(r3)
 180262c:	98 ac a3 f6 	stb     r5,-23562(r12)
 1802630:	99 06 a3 f9 	stb     r8,-23559(r6)
 1802634:	40 81 00 0c 	ble-    1802640 <send_mode+0x1c8>
 1802638:	38 00 00 00 	li      r0,0
 180263c:	98 06 a3 f9 	stb     r0,-23559(r6)
 1802640:	89 66 a3 f9 	lbz     r11,-23559(r6)
 1802644:	3d 20 01 82 	lis     r9,386
 1802648:	39 0b 00 01 	addi    r8,r11,1
 180264c:	89 49 a3 e5 	lbz     r10,-23579(r9)
 1802650:	55 00 06 3e 	clrlwi  r0,r8,24
 1802654:	7c e7 52 14 	add     r7,r7,r10
 1802658:	55 6b 06 3e 	clrlwi  r11,r11,24
 180265c:	28 00 00 fe 	cmplwi  r0,254
 1802660:	7d 44 59 ae 	stbx    r10,r4,r11
 1802664:	7c a5 3a 14 	add     r5,r5,r7
 1802668:	98 e3 a3 fc 	stb     r7,-23556(r3)
 180266c:	98 ac a3 f6 	stb     r5,-23562(r12)
 1802670:	99 06 a3 f9 	stb     r8,-23559(r6)
 1802674:	40 81 00 0c 	ble-    1802680 <send_mode+0x208>
 1802678:	38 00 00 00 	li      r0,0
 180267c:	98 06 a3 f9 	stb     r0,-23559(r6)
 1802680:	89 66 a3 f9 	lbz     r11,-23559(r6)
 1802684:	3d 20 01 82 	lis     r9,386
 1802688:	39 0b 00 01 	addi    r8,r11,1
 180268c:	89 49 a3 49 	lbz     r10,-23735(r9)
 1802690:	55 00 06 3e 	clrlwi  r0,r8,24
 1802694:	7c e7 52 14 	add     r7,r7,r10
 1802698:	55 6b 06 3e 	clrlwi  r11,r11,24
 180269c:	28 00 00 fe 	cmplwi  r0,254
 18026a0:	7d 44 59 ae 	stbx    r10,r4,r11
 18026a4:	7c a5 3a 14 	add     r5,r5,r7
 18026a8:	98 e3 a3 fc 	stb     r7,-23556(r3)
 18026ac:	98 ac a3 f6 	stb     r5,-23562(r12)
 18026b0:	99 06 a3 f9 	stb     r8,-23559(r6)
 18026b4:	40 81 00 0c 	ble-    18026c0 <send_mode+0x248>
 18026b8:	38 00 00 00 	li      r0,0
 18026bc:	98 06 a3 f9 	stb     r0,-23559(r6)
 18026c0:	89 26 a3 f9 	lbz     r9,-23559(r6)
 18026c4:	39 69 00 01 	addi    r11,r9,1
 18026c8:	55 60 06 3e 	clrlwi  r0,r11,24
 18026cc:	55 29 06 3e 	clrlwi  r9,r9,24
 18026d0:	28 00 00 fe 	cmplwi  r0,254
 18026d4:	7c e4 49 ae 	stbx    r7,r4,r9
 18026d8:	99 66 a3 f9 	stb     r11,-23559(r6)
 18026dc:	40 81 00 0c 	ble-    18026e8 <send_mode+0x270>
 18026e0:	38 00 00 00 	li      r0,0
 18026e4:	98 06 a3 f9 	stb     r0,-23559(r6)
 18026e8:	89 26 a3 f9 	lbz     r9,-23559(r6)
 18026ec:	39 69 00 01 	addi    r11,r9,1
 18026f0:	55 60 06 3e 	clrlwi  r0,r11,24
 18026f4:	55 29 06 3e 	clrlwi  r9,r9,24
 18026f8:	28 00 00 fe 	cmplwi  r0,254
 18026fc:	7c a4 49 ae 	stbx    r5,r4,r9
 1802700:	99 66 a3 f9 	stb     r11,-23559(r6)
 1802704:	40 81 00 0c 	ble-    1802710 <send_mode+0x298>
 1802708:	38 00 00 00 	li      r0,0
 180270c:	98 06 a3 f9 	stb     r0,-23559(r6)
 1802710:	38 c0 00 59 	li      r6,89
 1802714:	88 06 00 00 	lbz     r0,0(r6)
 1802718:	70 07 00 10 	andi.   r7,r0,16
 180271c:	40 82 00 6c 	bne-    1802788 <send_mode+0x310>
 1802720:	3d 60 01 82 	lis     r11,386
 1802724:	88 0b a3 fa 	lbz     r0,-23558(r11)
 1802728:	89 2b a3 fa 	lbz     r9,-23558(r11)
 180272c:	7d 04 00 ae 	lbzx    r8,r4,r0
 1802730:	39 29 00 01 	addi    r9,r9,1
 1802734:	99 2b a3 fa 	stb     r9,-23558(r11)
 1802738:	88 0b a3 fa 	lbz     r0,-23558(r11)
 180273c:	3d 40 01 82 	lis     r10,386
 1802740:	28 00 00 fe 	cmplwi  r0,254
 1802744:	3d 20 01 82 	lis     r9,386
 1802748:	99 0a a3 f8 	stb     r8,-23560(r10)
 180274c:	98 e9 a3 fb 	stb     r7,-23557(r9)
 1802750:	40 81 00 08 	ble-    1802758 <send_mode+0x2e0>
 1802754:	98 ff a3 fa 	stb     r7,-23558(r31)
 1802758:	39 20 00 58 	li      r9,88
 180275c:	88 09 00 00 	lbz     r0,0(r9)
 1802760:	60 00 00 01 	ori     r0,r0,1
 1802764:	98 09 00 00 	stb     r0,0(r9)
 1802768:	89 66 00 00 	lbz     r11,0(r6)
 180276c:	61 6b 00 10 	ori     r11,r11,16
 1802770:	99 66 00 00 	stb     r11,0(r6)
 1802774:	48 00 00 14 	b       1802788 <send_mode+0x310>
 1802778:	3d 60 01 82 	lis     r11,386
 180277c:	89 2b a3 f7 	lbz     r9,-23561(r11)
 1802780:	39 29 00 01 	addi    r9,r9,1
 1802784:	99 2b a3 f7 	stb     r9,-23561(r11)
 1802788:	83 e1 00 0c 	lwz     r31,12(r1)
 180278c:	38 21 00 10 	addi    r1,r1,16
 1802790:	4e 80 00 20 	blr

01802794 <send_debug>:
 1802794:	94 21 ff f0 	stwu    r1,-16(r1)
 1802798:	93 e1 00 0c 	stw     r31,12(r1)
 180279c:	3d 20 01 82 	lis     r9,386
 18027a0:	88 09 a3 4d 	lbz     r0,-23731(r9)
 18027a4:	2c 00 00 00 	cmpwi   r0,0
 18027a8:	40 82 02 fc 	bne-    1802aa4 <send_debug+0x310>
 18027ac:	3d 60 01 82 	lis     r11,386
 18027b0:	89 4b a3 e7 	lbz     r10,-23577(r11)
 18027b4:	3d 20 51 eb 	lis     r9,20971
 18027b8:	61 29 85 1f 	ori     r9,r9,34079
 18027bc:	7d 2a 48 16 	mulhwu  r9,r10,r9
 18027c0:	55 29 e1 3e 	rlwinm  r9,r9,28,4,31
 18027c4:	55 20 08 3c 	rlwinm  r0,r9,1,0,30
 18027c8:	7c 00 4a 14 	add     r0,r0,r9
 18027cc:	54 00 20 36 	rlwinm  r0,r0,4,0,27
 18027d0:	7c 00 4a 14 	add     r0,r0,r9
 18027d4:	7c 00 4a 14 	add     r0,r0,r9
 18027d8:	7d 40 50 50 	subf    r10,r0,r10
 18027dc:	55 4a 06 3e 	clrlwi  r10,r10,24
 18027e0:	2c 0a 00 1d 	cmpwi   r10,29
 18027e4:	40 82 02 c0 	bne-    1802aa4 <send_debug+0x310>
 18027e8:	3d 20 01 82 	lis     r9,386
 18027ec:	3d 60 01 82 	lis     r11,386
 18027f0:	89 29 a3 f9 	lbz     r9,-23559(r9)
 18027f4:	88 0b a3 fa 	lbz     r0,-23558(r11)
 18027f8:	3c c0 01 82 	lis     r6,386
 18027fc:	7c 09 00 40 	cmplw   r9,r0
 1802800:	3f e0 01 82 	lis     r31,386
 1802804:	41 80 00 1c 	blt-    1802820 <send_debug+0x8c>
 1802808:	88 1f a3 fa 	lbz     r0,-23558(r31)
 180280c:	7c 00 48 50 	subf    r0,r0,r9
 1802810:	20 00 00 ff 	subfic  r0,r0,255
 1802814:	2c 00 00 09 	cmpwi   r0,9
 1802818:	41 81 00 18 	bgt-    1802830 <send_debug+0x9c>
 180281c:	48 00 02 78 	b       1802a94 <send_debug+0x300>
 1802820:	88 1f a3 fa 	lbz     r0,-23558(r31)
 1802824:	7c 09 00 50 	subf    r0,r9,r0
 1802828:	2c 00 00 09 	cmpwi   r0,9
 180282c:	40 81 02 68 	ble-    1802a94 <send_debug+0x300>
 1802830:	3d 00 01 82 	lis     r8,386
 1802834:	89 28 a3 f9 	lbz     r9,-23559(r8)
 1802838:	3d 60 01 82 	lis     r11,386
 180283c:	39 49 00 01 	addi    r10,r9,1
 1802840:	55 40 06 3e 	clrlwi  r0,r10,24
 1802844:	28 00 00 fe 	cmplwi  r0,254
 1802848:	38 8b a8 b4 	addi    r4,r11,-22348
 180284c:	55 29 06 3e 	clrlwi  r9,r9,24
 1802850:	38 00 00 05 	li      r0,5
 1802854:	7c 04 49 ae 	stbx    r0,r4,r9
 1802858:	99 48 a3 f9 	stb     r10,-23559(r8)
 180285c:	40 81 00 0c 	ble-    1802868 <send_debug+0xd4>
 1802860:	38 00 00 00 	li      r0,0
 1802864:	98 06 a3 f9 	stb     r0,-23559(r6)
 1802868:	89 26 a3 f9 	lbz     r9,-23559(r6)
 180286c:	39 40 00 0d 	li      r10,13
 1802870:	39 69 00 01 	addi    r11,r9,1
 1802874:	55 60 06 3e 	clrlwi  r0,r11,24
 1802878:	55 29 06 3e 	clrlwi  r9,r9,24
 180287c:	28 00 00 fe 	cmplwi  r0,254
 1802880:	7d 44 49 ae 	stbx    r10,r4,r9
 1802884:	99 66 a3 f9 	stb     r11,-23559(r6)
 1802888:	40 81 00 0c 	ble-    1802894 <send_debug+0x100>
 180288c:	38 00 00 00 	li      r0,0
 1802890:	98 06 a3 f9 	stb     r0,-23559(r6)
 1802894:	89 46 a3 f9 	lbz     r10,-23559(r6)
 1802898:	3d 20 01 82 	lis     r9,386
 180289c:	39 0a 00 01 	addi    r8,r10,1
 18028a0:	89 69 a4 01 	lbz     r11,-23551(r9)
 18028a4:	55 00 06 3e 	clrlwi  r0,r8,24
 18028a8:	55 4a 06 3e 	clrlwi  r10,r10,24
 18028ac:	28 00 00 fe 	cmplwi  r0,254
 18028b0:	7d 64 51 ae 	stbx    r11,r4,r10
 18028b4:	38 ab 00 1a 	addi    r5,r11,26
 18028b8:	38 eb 00 0d 	addi    r7,r11,13
 18028bc:	3c 60 01 82 	lis     r3,386
 18028c0:	3d 80 01 82 	lis     r12,386
 18028c4:	98 e3 a3 fc 	stb     r7,-23556(r3)
 18028c8:	98 ac a3 f6 	stb     r5,-23562(r12)
 18028cc:	99 06 a3 f9 	stb     r8,-23559(r6)
 18028d0:	40 81 00 0c 	ble-    18028dc <send_debug+0x148>
 18028d4:	38 00 00 00 	li      r0,0
 18028d8:	98 06 a3 f9 	stb     r0,-23559(r6)
 18028dc:	89 66 a3 f9 	lbz     r11,-23559(r6)
 18028e0:	3d 20 01 82 	lis     r9,386
 18028e4:	39 0b 00 01 	addi    r8,r11,1
 18028e8:	89 49 a4 00 	lbz     r10,-23552(r9)
 18028ec:	55 00 06 3e 	clrlwi  r0,r8,24
 18028f0:	7c e7 52 14 	add     r7,r7,r10
 18028f4:	55 6b 06 3e 	clrlwi  r11,r11,24
 18028f8:	28 00 00 fe 	cmplwi  r0,254
 18028fc:	7d 44 59 ae 	stbx    r10,r4,r11
 1802900:	7c a5 3a 14 	add     r5,r5,r7
 1802904:	98 e3 a3 fc 	stb     r7,-23556(r3)
 1802908:	98 ac a3 f6 	stb     r5,-23562(r12)
 180290c:	99 06 a3 f9 	stb     r8,-23559(r6)
 1802910:	40 81 00 0c 	ble-    180291c <send_debug+0x188>
 1802914:	38 00 00 00 	li      r0,0
 1802918:	98 06 a3 f9 	stb     r0,-23559(r6)
 180291c:	89 66 a3 f9 	lbz     r11,-23559(r6)
 1802920:	3d 20 01 82 	lis     r9,386
 1802924:	39 0b 00 01 	addi    r8,r11,1
 1802928:	89 49 a3 f7 	lbz     r10,-23561(r9)
 180292c:	55 00 06 3e 	clrlwi  r0,r8,24
 1802930:	7c e7 52 14 	add     r7,r7,r10
 1802934:	55 6b 06 3e 	clrlwi  r11,r11,24
 1802938:	28 00 00 fe 	cmplwi  r0,254
 180293c:	7d 44 59 ae 	stbx    r10,r4,r11
 1802940:	7c a5 3a 14 	add     r5,r5,r7
 1802944:	98 e3 a3 fc 	stb     r7,-23556(r3)
 1802948:	98 ac a3 f6 	stb     r5,-23562(r12)
 180294c:	99 06 a3 f9 	stb     r8,-23559(r6)
 1802950:	40 81 00 0c 	ble-    180295c <send_debug+0x1c8>
 1802954:	38 00 00 00 	li      r0,0
 1802958:	98 06 a3 f9 	stb     r0,-23559(r6)
 180295c:	89 66 a3 f9 	lbz     r11,-23559(r6)
 1802960:	3d 20 01 82 	lis     r9,386
 1802964:	39 0b 00 01 	addi    r8,r11,1
 1802968:	89 49 a4 30 	lbz     r10,-23504(r9)
 180296c:	55 00 06 3e 	clrlwi  r0,r8,24
 1802970:	7c e7 52 14 	add     r7,r7,r10
 1802974:	55 6b 06 3e 	clrlwi  r11,r11,24
 1802978:	28 00 00 fe 	cmplwi  r0,254
 180297c:	7d 44 59 ae 	stbx    r10,r4,r11
 1802980:	7c a5 3a 14 	add     r5,r5,r7
 1802984:	98 e3 a3 fc 	stb     r7,-23556(r3)
 1802988:	98 ac a3 f6 	stb     r5,-23562(r12)
 180298c:	99 06 a3 f9 	stb     r8,-23559(r6)
 1802990:	40 81 00 0c 	ble-    180299c <send_debug+0x208>
 1802994:	38 00 00 00 	li      r0,0
 1802998:	98 06 a3 f9 	stb     r0,-23559(r6)
 180299c:	89 66 a3 f9 	lbz     r11,-23559(r6)
 18029a0:	3d 20 01 82 	lis     r9,386
 18029a4:	39 0b 00 01 	addi    r8,r11,1
 18029a8:	89 49 a3 e6 	lbz     r10,-23578(r9)
 18029ac:	55 00 06 3e 	clrlwi  r0,r8,24
 18029b0:	7c e7 52 14 	add     r7,r7,r10
 18029b4:	55 6b 06 3e 	clrlwi  r11,r11,24
 18029b8:	28 00 00 fe 	cmplwi  r0,254
 18029bc:	7d 44 59 ae 	stbx    r10,r4,r11
 18029c0:	7c a5 3a 14 	add     r5,r5,r7
 18029c4:	98 e3 a3 fc 	stb     r7,-23556(r3)
 18029c8:	98 ac a3 f6 	stb     r5,-23562(r12)
 18029cc:	99 06 a3 f9 	stb     r8,-23559(r6)
 18029d0:	40 81 00 0c 	ble-    18029dc <send_debug+0x248>
 18029d4:	38 00 00 00 	li      r0,0
 18029d8:	98 06 a3 f9 	stb     r0,-23559(r6)
 18029dc:	89 26 a3 f9 	lbz     r9,-23559(r6)
 18029e0:	39 69 00 01 	addi    r11,r9,1
 18029e4:	55 60 06 3e 	clrlwi  r0,r11,24
 18029e8:	55 29 06 3e 	clrlwi  r9,r9,24
 18029ec:	28 00 00 fe 	cmplwi  r0,254
 18029f0:	7c e4 49 ae 	stbx    r7,r4,r9
 18029f4:	99 66 a3 f9 	stb     r11,-23559(r6)
 18029f8:	40 81 00 0c 	ble-    1802a04 <send_debug+0x270>
 18029fc:	38 00 00 00 	li      r0,0
 1802a00:	98 06 a3 f9 	stb     r0,-23559(r6)
 1802a04:	89 26 a3 f9 	lbz     r9,-23559(r6)
 1802a08:	39 69 00 01 	addi    r11,r9,1
 1802a0c:	55 60 06 3e 	clrlwi  r0,r11,24
 1802a10:	55 29 06 3e 	clrlwi  r9,r9,24
 1802a14:	28 00 00 fe 	cmplwi  r0,254
 1802a18:	7c a4 49 ae 	stbx    r5,r4,r9
 1802a1c:	99 66 a3 f9 	stb     r11,-23559(r6)
 1802a20:	40 81 00 0c 	ble-    1802a2c <send_debug+0x298>
 1802a24:	38 00 00 00 	li      r0,0
 1802a28:	98 06 a3 f9 	stb     r0,-23559(r6)
 1802a2c:	38 c0 00 59 	li      r6,89
 1802a30:	88 06 00 00 	lbz     r0,0(r6)
 1802a34:	70 07 00 10 	andi.   r7,r0,16
 1802a38:	40 82 00 6c 	bne-    1802aa4 <send_debug+0x310>
 1802a3c:	3d 60 01 82 	lis     r11,386
 1802a40:	88 0b a3 fa 	lbz     r0,-23558(r11)
 1802a44:	89 2b a3 fa 	lbz     r9,-23558(r11)
 1802a48:	7d 04 00 ae 	lbzx    r8,r4,r0
 1802a4c:	39 29 00 01 	addi    r9,r9,1
 1802a50:	99 2b a3 fa 	stb     r9,-23558(r11)
 1802a54:	88 0b a3 fa 	lbz     r0,-23558(r11)
 1802a58:	3d 40 01 82 	lis     r10,386
 1802a5c:	28 00 00 fe 	cmplwi  r0,254
 1802a60:	3d 20 01 82 	lis     r9,386
 1802a64:	99 0a a3 f8 	stb     r8,-23560(r10)
 1802a68:	98 e9 a3 fb 	stb     r7,-23557(r9)
 1802a6c:	40 81 00 08 	ble-    1802a74 <send_debug+0x2e0>
 1802a70:	98 ff a3 fa 	stb     r7,-23558(r31)
 1802a74:	39 20 00 58 	li      r9,88
 1802a78:	88 09 00 00 	lbz     r0,0(r9)
 1802a7c:	60 00 00 01 	ori     r0,r0,1
 1802a80:	98 09 00 00 	stb     r0,0(r9)
 1802a84:	89 66 00 00 	lbz     r11,0(r6)
 1802a88:	61 6b 00 10 	ori     r11,r11,16
 1802a8c:	99 66 00 00 	stb     r11,0(r6)
 1802a90:	48 00 00 14 	b       1802aa4 <send_debug+0x310>
 1802a94:	3d 60 01 82 	lis     r11,386
 1802a98:	89 2b a3 f7 	lbz     r9,-23561(r11)
 1802a9c:	39 29 00 01 	addi    r9,r9,1
 1802aa0:	99 2b a3 f7 	stb     r9,-23561(r11)
 1802aa4:	83 e1 00 0c 	lwz     r31,12(r1)
 1802aa8:	38 21 00 10 	addi    r1,r1,16
 1802aac:	4e 80 00 20 	blr

01802ab0 <send_nav_ref>:
 1802ab0:	94 21 ff e0 	stwu    r1,-32(r1)
 1802ab4:	93 a1 00 14 	stw     r29,20(r1)
 1802ab8:	93 c1 00 18 	stw     r30,24(r1)
 1802abc:	93 e1 00 1c 	stw     r31,28(r1)
 1802ac0:	3d 20 01 82 	lis     r9,386
 1802ac4:	88 09 a3 4d 	lbz     r0,-23731(r9)
 1802ac8:	2c 00 00 00 	cmpwi   r0,0
 1802acc:	40 82 03 b0 	bne-    1802e7c <send_nav_ref+0x3cc>
 1802ad0:	3d 60 01 82 	lis     r11,386
 1802ad4:	89 4b a3 e7 	lbz     r10,-23577(r11)
 1802ad8:	3d 20 51 eb 	lis     r9,20971
 1802adc:	61 29 85 1f 	ori     r9,r9,34079
 1802ae0:	7d 2a 48 16 	mulhwu  r9,r10,r9
 1802ae4:	55 29 d9 7e 	rlwinm  r9,r9,27,5,31
 1802ae8:	55 20 08 3c 	rlwinm  r0,r9,1,0,30
 1802aec:	7c 00 4a 14 	add     r0,r0,r9
 1802af0:	54 0b 28 34 	rlwinm  r11,r0,5,0,26
 1802af4:	7c 00 5a 14 	add     r0,r0,r11
 1802af8:	7c 00 4a 14 	add     r0,r0,r9
 1802afc:	7d 40 50 50 	subf    r10,r0,r10
 1802b00:	55 4a 06 3e 	clrlwi  r10,r10,24
 1802b04:	2c 0a 00 31 	cmpwi   r10,49
 1802b08:	40 82 03 74 	bne-    1802e7c <send_nav_ref+0x3cc>
 1802b0c:	3d 20 01 82 	lis     r9,386
 1802b10:	3d 60 01 82 	lis     r11,386
 1802b14:	89 29 a3 f9 	lbz     r9,-23559(r9)
 1802b18:	88 0b a3 fa 	lbz     r0,-23558(r11)
 1802b1c:	3c c0 01 82 	lis     r6,386
 1802b20:	7c 09 00 40 	cmplw   r9,r0
 1802b24:	3f a0 01 82 	lis     r29,386
 1802b28:	41 80 00 1c 	blt-    1802b44 <send_nav_ref+0x94>
 1802b2c:	88 1d a3 fa 	lbz     r0,-23558(r29)
 1802b30:	7c 00 48 50 	subf    r0,r0,r9
 1802b34:	20 00 00 ff 	subfic  r0,r0,255
 1802b38:	2c 00 00 0c 	cmpwi   r0,12
 1802b3c:	41 81 00 18 	bgt-    1802b54 <send_nav_ref+0xa4>
 1802b40:	48 00 03 2c 	b       1802e6c <send_nav_ref+0x3bc>
 1802b44:	88 1d a3 fa 	lbz     r0,-23558(r29)
 1802b48:	7c 09 00 50 	subf    r0,r9,r0
 1802b4c:	2c 00 00 0c 	cmpwi   r0,12
 1802b50:	40 81 03 1c 	ble-    1802e6c <send_nav_ref+0x3bc>
 1802b54:	3d 60 01 82 	lis     r11,386
 1802b58:	89 2b a3 f9 	lbz     r9,-23559(r11)
 1802b5c:	3d 40 01 82 	lis     r10,386
 1802b60:	39 09 00 01 	addi    r8,r9,1
 1802b64:	55 00 06 3e 	clrlwi  r0,r8,24
 1802b68:	28 00 00 fe 	cmplwi  r0,254
 1802b6c:	38 8a a8 b4 	addi    r4,r10,-22348
 1802b70:	55 29 06 3e 	clrlwi  r9,r9,24
 1802b74:	38 00 00 05 	li      r0,5
 1802b78:	7c 04 49 ae 	stbx    r0,r4,r9
 1802b7c:	3b cb a3 f9 	addi    r30,r11,-23559
 1802b80:	99 0b a3 f9 	stb     r8,-23559(r11)
 1802b84:	40 81 00 0c 	ble-    1802b90 <send_nav_ref+0xe0>
 1802b88:	38 00 00 00 	li      r0,0
 1802b8c:	98 06 a3 f9 	stb     r0,-23559(r6)
 1802b90:	89 26 a3 f9 	lbz     r9,-23559(r6)
 1802b94:	39 40 00 09 	li      r10,9
 1802b98:	39 69 00 01 	addi    r11,r9,1
 1802b9c:	55 60 06 3e 	clrlwi  r0,r11,24
 1802ba0:	55 29 06 3e 	clrlwi  r9,r9,24
 1802ba4:	28 00 00 fe 	cmplwi  r0,254
 1802ba8:	7d 44 49 ae 	stbx    r10,r4,r9
 1802bac:	99 66 a3 f9 	stb     r11,-23559(r6)
 1802bb0:	40 81 00 0c 	ble-    1802bbc <send_nav_ref+0x10c>
 1802bb4:	38 00 00 00 	li      r0,0
 1802bb8:	98 06 a3 f9 	stb     r0,-23559(r6)
 1802bbc:	89 46 a3 f9 	lbz     r10,-23559(r6)
 1802bc0:	3d 20 01 82 	lis     r9,386
 1802bc4:	39 0a 00 01 	addi    r8,r10,1
 1802bc8:	89 69 a3 60 	lbz     r11,-23712(r9)
 1802bcc:	55 00 06 3e 	clrlwi  r0,r8,24
 1802bd0:	55 4a 06 3e 	clrlwi  r10,r10,24
 1802bd4:	28 00 00 fe 	cmplwi  r0,254
 1802bd8:	7d 64 51 ae 	stbx    r11,r4,r10
 1802bdc:	38 ab 00 12 	addi    r5,r11,18
 1802be0:	38 eb 00 09 	addi    r7,r11,9
 1802be4:	3c 60 01 82 	lis     r3,386
 1802be8:	3d 80 01 82 	lis     r12,386
 1802bec:	3b e9 a3 60 	addi    r31,r9,-23712
 1802bf0:	98 e3 a3 fc 	stb     r7,-23556(r3)
 1802bf4:	98 ac a3 f6 	stb     r5,-23562(r12)
 1802bf8:	99 06 a3 f9 	stb     r8,-23559(r6)
 1802bfc:	40 81 00 0c 	ble-    1802c08 <send_nav_ref+0x158>
 1802c00:	38 00 00 00 	li      r0,0
 1802c04:	98 06 a3 f9 	stb     r0,-23559(r6)
 1802c08:	89 26 a3 f9 	lbz     r9,-23559(r6)
 1802c0c:	89 7f 00 01 	lbz     r11,1(r31)
 1802c10:	39 49 00 01 	addi    r10,r9,1
 1802c14:	55 40 06 3e 	clrlwi  r0,r10,24
 1802c18:	7d 07 5a 14 	add     r8,r7,r11
 1802c1c:	55 29 06 3e 	clrlwi  r9,r9,24
 1802c20:	28 00 00 fe 	cmplwi  r0,254
 1802c24:	7d 64 49 ae 	stbx    r11,r4,r9
 1802c28:	7c e5 42 14 	add     r7,r5,r8
 1802c2c:	99 03 a3 fc 	stb     r8,-23556(r3)
 1802c30:	98 ec a3 f6 	stb     r7,-23562(r12)
 1802c34:	99 46 a3 f9 	stb     r10,-23559(r6)
 1802c38:	40 81 00 0c 	ble-    1802c44 <send_nav_ref+0x194>
 1802c3c:	38 00 00 00 	li      r0,0
 1802c40:	98 06 a3 f9 	stb     r0,-23559(r6)
 1802c44:	89 26 a3 f9 	lbz     r9,-23559(r6)
 1802c48:	89 7f 00 02 	lbz     r11,2(r31)
 1802c4c:	39 49 00 01 	addi    r10,r9,1
 1802c50:	55 40 06 3e 	clrlwi  r0,r10,24
 1802c54:	7d 08 5a 14 	add     r8,r8,r11
 1802c58:	55 29 06 3e 	clrlwi  r9,r9,24
 1802c5c:	28 00 00 fe 	cmplwi  r0,254
 1802c60:	7d 64 49 ae 	stbx    r11,r4,r9
 1802c64:	7c a7 42 14 	add     r5,r7,r8
 1802c68:	99 03 a3 fc 	stb     r8,-23556(r3)
 1802c6c:	98 ac a3 f6 	stb     r5,-23562(r12)
 1802c70:	99 46 a3 f9 	stb     r10,-23559(r6)
 1802c74:	40 81 00 0c 	ble-    1802c80 <send_nav_ref+0x1d0>
 1802c78:	38 00 00 00 	li      r0,0
 1802c7c:	98 06 a3 f9 	stb     r0,-23559(r6)
 1802c80:	89 26 a3 f9 	lbz     r9,-23559(r6)
 1802c84:	89 7f 00 03 	lbz     r11,3(r31)
 1802c88:	39 49 00 01 	addi    r10,r9,1
 1802c8c:	55 40 06 3e 	clrlwi  r0,r10,24
 1802c90:	7c e8 5a 14 	add     r7,r8,r11
 1802c94:	55 29 06 3e 	clrlwi  r9,r9,24
 1802c98:	28 00 00 fe 	cmplwi  r0,254
 1802c9c:	7d 64 49 ae 	stbx    r11,r4,r9
 1802ca0:	7c a5 3a 14 	add     r5,r5,r7
 1802ca4:	98 e3 a3 fc 	stb     r7,-23556(r3)
 1802ca8:	98 ac a3 f6 	stb     r5,-23562(r12)
 1802cac:	99 46 a3 f9 	stb     r10,-23559(r6)
 1802cb0:	40 81 00 0c 	ble-    1802cbc <send_nav_ref+0x20c>
 1802cb4:	38 00 00 00 	li      r0,0
 1802cb8:	98 06 a3 f9 	stb     r0,-23559(r6)
 1802cbc:	89 66 a3 f9 	lbz     r11,-23559(r6)
 1802cc0:	3d 20 01 82 	lis     r9,386
 1802cc4:	39 0b 00 01 	addi    r8,r11,1
 1802cc8:	89 49 a3 64 	lbz     r10,-23708(r9)
 1802ccc:	55 00 06 3e 	clrlwi  r0,r8,24
 1802cd0:	7c e7 52 14 	add     r7,r7,r10
 1802cd4:	55 6b 06 3e 	clrlwi  r11,r11,24
 1802cd8:	28 00 00 fe 	cmplwi  r0,254
 1802cdc:	7d 44 59 ae 	stbx    r10,r4,r11
 1802ce0:	7c a5 3a 14 	add     r5,r5,r7
 1802ce4:	3b e9 a3 64 	addi    r31,r9,-23708
 1802ce8:	98 e3 a3 fc 	stb     r7,-23556(r3)
 1802cec:	98 ac a3 f6 	stb     r5,-23562(r12)
 1802cf0:	99 06 a3 f9 	stb     r8,-23559(r6)
 1802cf4:	40 81 00 0c 	ble-    1802d00 <send_nav_ref+0x250>
 1802cf8:	38 00 00 00 	li      r0,0
 1802cfc:	98 06 a3 f9 	stb     r0,-23559(r6)
 1802d00:	89 26 a3 f9 	lbz     r9,-23559(r6)
 1802d04:	89 7f 00 01 	lbz     r11,1(r31)
 1802d08:	39 49 00 01 	addi    r10,r9,1
 1802d0c:	55 40 06 3e 	clrlwi  r0,r10,24
 1802d10:	7d 07 5a 14 	add     r8,r7,r11
 1802d14:	55 29 06 3e 	clrlwi  r9,r9,24
 1802d18:	28 00 00 fe 	cmplwi  r0,254
 1802d1c:	7d 64 49 ae 	stbx    r11,r4,r9
 1802d20:	7c e5 42 14 	add     r7,r5,r8
 1802d24:	99 03 a3 fc 	stb     r8,-23556(r3)
 1802d28:	98 ec a3 f6 	stb     r7,-23562(r12)
 1802d2c:	99 46 a3 f9 	stb     r10,-23559(r6)
 1802d30:	40 81 00 0c 	ble-    1802d3c <send_nav_ref+0x28c>
 1802d34:	38 00 00 00 	li      r0,0
 1802d38:	98 06 a3 f9 	stb     r0,-23559(r6)
 1802d3c:	89 26 a3 f9 	lbz     r9,-23559(r6)
 1802d40:	89 7f 00 02 	lbz     r11,2(r31)
 1802d44:	39 49 00 01 	addi    r10,r9,1
 1802d48:	55 40 06 3e 	clrlwi  r0,r10,24
 1802d4c:	7d 08 5a 14 	add     r8,r8,r11
 1802d50:	55 29 06 3e 	clrlwi  r9,r9,24
 1802d54:	28 00 00 fe 	cmplwi  r0,254
 1802d58:	7d 64 49 ae 	stbx    r11,r4,r9
 1802d5c:	7c e7 42 14 	add     r7,r7,r8
 1802d60:	99 03 a3 fc 	stb     r8,-23556(r3)
 1802d64:	98 ec a3 f6 	stb     r7,-23562(r12)
 1802d68:	99 46 a3 f9 	stb     r10,-23559(r6)
 1802d6c:	40 81 00 0c 	ble-    1802d78 <send_nav_ref+0x2c8>
 1802d70:	38 00 00 00 	li      r0,0
 1802d74:	98 06 a3 f9 	stb     r0,-23559(r6)
 1802d78:	89 26 a3 f9 	lbz     r9,-23559(r6)
 1802d7c:	89 7f 00 03 	lbz     r11,3(r31)
 1802d80:	39 49 00 01 	addi    r10,r9,1
 1802d84:	55 40 06 3e 	clrlwi  r0,r10,24
 1802d88:	7d 08 5a 14 	add     r8,r8,r11
 1802d8c:	55 29 06 3e 	clrlwi  r9,r9,24
 1802d90:	28 00 00 fe 	cmplwi  r0,254
 1802d94:	7d 64 49 ae 	stbx    r11,r4,r9
 1802d98:	7c e7 42 14 	add     r7,r7,r8
 1802d9c:	99 03 a3 fc 	stb     r8,-23556(r3)
 1802da0:	98 ec a3 f6 	stb     r7,-23562(r12)
 1802da4:	99 46 a3 f9 	stb     r10,-23559(r6)
 1802da8:	40 81 00 0c 	ble-    1802db4 <send_nav_ref+0x304>
 1802dac:	38 00 00 00 	li      r0,0
 1802db0:	98 06 a3 f9 	stb     r0,-23559(r6)
 1802db4:	89 3e 00 00 	lbz     r9,0(r30)
 1802db8:	39 69 00 01 	addi    r11,r9,1
 1802dbc:	55 60 06 3e 	clrlwi  r0,r11,24
 1802dc0:	55 29 06 3e 	clrlwi  r9,r9,24
 1802dc4:	28 00 00 fe 	cmplwi  r0,254
 1802dc8:	7d 04 49 ae 	stbx    r8,r4,r9
 1802dcc:	99 7e 00 00 	stb     r11,0(r30)
 1802dd0:	40 81 00 0c 	ble-    1802ddc <send_nav_ref+0x32c>
 1802dd4:	38 00 00 00 	li      r0,0
 1802dd8:	98 1e 00 00 	stb     r0,0(r30)
 1802ddc:	89 3e 00 00 	lbz     r9,0(r30)
 1802de0:	39 69 00 01 	addi    r11,r9,1
 1802de4:	55 60 06 3e 	clrlwi  r0,r11,24
 1802de8:	55 29 06 3e 	clrlwi  r9,r9,24
 1802dec:	28 00 00 fe 	cmplwi  r0,254
 1802df0:	7c e4 49 ae 	stbx    r7,r4,r9
 1802df4:	99 7e 00 00 	stb     r11,0(r30)
 1802df8:	40 81 00 0c 	ble-    1802e04 <send_nav_ref+0x354>
 1802dfc:	38 00 00 00 	li      r0,0
 1802e00:	98 1e 00 00 	stb     r0,0(r30)
 1802e04:	38 c0 00 59 	li      r6,89
 1802e08:	88 06 00 00 	lbz     r0,0(r6)
 1802e0c:	70 07 00 10 	andi.   r7,r0,16
 1802e10:	40 82 00 6c 	bne-    1802e7c <send_nav_ref+0x3cc>
 1802e14:	3d 60 01 82 	lis     r11,386
 1802e18:	88 0b a3 fa 	lbz     r0,-23558(r11)
 1802e1c:	89 2b a3 fa 	lbz     r9,-23558(r11)
 1802e20:	7d 04 00 ae 	lbzx    r8,r4,r0
 1802e24:	39 29 00 01 	addi    r9,r9,1
 1802e28:	99 2b a3 fa 	stb     r9,-23558(r11)
 1802e2c:	88 0b a3 fa 	lbz     r0,-23558(r11)
 1802e30:	3d 40 01 82 	lis     r10,386
 1802e34:	28 00 00 fe 	cmplwi  r0,254
 1802e38:	3d 20 01 82 	lis     r9,386
 1802e3c:	99 0a a3 f8 	stb     r8,-23560(r10)
 1802e40:	98 e9 a3 fb 	stb     r7,-23557(r9)
 1802e44:	40 81 00 08 	ble-    1802e4c <send_nav_ref+0x39c>
 1802e48:	98 fd a3 fa 	stb     r7,-23558(r29)
 1802e4c:	39 20 00 58 	li      r9,88
 1802e50:	88 09 00 00 	lbz     r0,0(r9)
 1802e54:	60 00 00 01 	ori     r0,r0,1
 1802e58:	98 09 00 00 	stb     r0,0(r9)
 1802e5c:	89 66 00 00 	lbz     r11,0(r6)
 1802e60:	61 6b 00 10 	ori     r11,r11,16
 1802e64:	99 66 00 00 	stb     r11,0(r6)
 1802e68:	48 00 00 14 	b       1802e7c <send_nav_ref+0x3cc>
 1802e6c:	3d 60 01 82 	lis     r11,386
 1802e70:	89 2b a3 f7 	lbz     r9,-23561(r11)
 1802e74:	39 29 00 01 	addi    r9,r9,1
 1802e78:	99 2b a3 f7 	stb     r9,-23561(r11)
 1802e7c:	83 a1 00 14 	lwz     r29,20(r1)
 1802e80:	83 c1 00 18 	lwz     r30,24(r1)
 1802e84:	83 e1 00 1c 	lwz     r31,28(r1)
 1802e88:	38 21 00 20 	addi    r1,r1,32
 1802e8c:	4e 80 00 20 	blr

01802e90 <radio_control_task>:
 1802e90:	94 21 ff d0 	stwu    r1,-48(r1)
 1802e94:	7c 08 02 a6 	mflr    r0
 1802e98:	93 41 00 18 	stw     r26,24(r1)
 1802e9c:	93 61 00 1c 	stw     r27,28(r1)
 1802ea0:	93 81 00 20 	stw     r28,32(r1)
 1802ea4:	93 a1 00 24 	stw     r29,36(r1)
 1802ea8:	93 c1 00 28 	stw     r30,40(r1)
 1802eac:	93 e1 00 2c 	stw     r31,44(r1)
 1802eb0:	90 01 00 34 	stw     r0,52(r1)
 1802eb4:	3d 20 01 82 	lis     r9,386
 1802eb8:	88 09 a3 5d 	lbz     r0,-23715(r9)
 1802ebc:	2c 00 00 00 	cmpwi   r0,0
 1802ec0:	41 82 0f 38 	beq-    1803df8 <radio_control_task+0xf68>
 1802ec4:	3d 60 01 82 	lis     r11,386
 1802ec8:	39 6b a9 ca 	addi    r11,r11,-22070
 1802ecc:	39 2b 00 13 	addi    r9,r11,19
 1802ed0:	55 29 04 3e 	clrlwi  r9,r9,16
 1802ed4:	88 09 00 00 	lbz     r0,0(r9)
 1802ed8:	a1 2b 00 06 	lhz     r9,6(r11)
 1802edc:	3d 40 01 82 	lis     r10,386
 1802ee0:	70 0b 00 02 	andi.   r11,r0,2
 1802ee4:	39 4a a9 b4 	addi    r10,r10,-22092
 1802ee8:	3b e0 00 00 	li      r31,0
 1802eec:	b1 2a 00 06 	sth     r9,6(r10)
 1802ef0:	9b ea 00 13 	stb     r31,19(r10)
 1802ef4:	3f c0 01 82 	lis     r30,386
 1802ef8:	41 82 00 10 	beq-    1802f08 <radio_control_task+0x78>
 1802efc:	88 1e a3 46 	lbz     r0,-23738(r30)
 1802f00:	28 00 00 01 	cmplwi  r0,1
 1802f04:	40 81 00 14 	ble-    1802f18 <radio_control_task+0x88>
 1802f08:	3d 20 01 82 	lis     r9,386
 1802f0c:	88 09 a4 89 	lbz     r0,-23415(r9)
 1802f10:	2c 00 00 00 	cmpwi   r0,0
 1802f14:	41 82 00 14 	beq-    1802f28 <radio_control_task+0x98>
 1802f18:	3d 20 01 82 	lis     r9,386
 1802f1c:	38 00 00 03 	li      r0,3
 1802f20:	98 09 a3 46 	stb     r0,-23738(r9)
 1802f24:	3b e0 00 01 	li      r31,1
 1802f28:	3d 20 01 82 	lis     r9,386
 1802f2c:	39 49 a9 dd 	addi    r10,r9,-22051
 1802f30:	55 4b 04 3e 	clrlwi  r11,r10,16
 1802f34:	88 0b 00 00 	lbz     r0,0(r11)
 1802f38:	70 09 00 04 	andi.   r9,r0,4
 1802f3c:	41 82 01 00 	beq-    180303c <radio_control_task+0x1ac>
 1802f40:	3d 20 01 82 	lis     r9,386
 1802f44:	88 09 a3 46 	lbz     r0,-23738(r9)
 1802f48:	2c 00 00 03 	cmpwi   r0,3
 1802f4c:	40 82 00 1c 	bne-    1802f68 <radio_control_task+0xd8>
 1802f50:	3d 20 01 82 	lis     r9,386
 1802f54:	88 09 a3 e8 	lbz     r0,-23576(r9)
 1802f58:	2c 00 00 00 	cmpwi   r0,0
 1802f5c:	41 82 00 48 	beq-    1802fa4 <radio_control_task+0x114>
 1802f60:	38 00 00 00 	li      r0,0
 1802f64:	98 09 a3 e8 	stb     r0,-23576(r9)
 1802f68:	a9 2a ff f5 	lha     r9,-11(r10)
 1802f6c:	2c 09 0c 80 	cmpwi   r9,3200
 1802f70:	41 81 00 14 	bgt-    1802f84 <radio_control_task+0xf4>
 1802f74:	2f 89 ed 40 	cmpwi   cr7,r9,-4800
 1802f78:	7d 60 00 26 	mfcr    r11
 1802f7c:	55 6b f7 fe 	rlwinm  r11,r11,30,31,31
 1802f80:	48 00 00 08 	b       1802f88 <radio_control_task+0xf8>
 1802f84:	39 60 00 02 	li      r11,2
 1802f88:	3d 20 01 82 	lis     r9,386
 1802f8c:	88 09 a3 46 	lbz     r0,-23738(r9)
 1802f90:	7c 00 58 00 	cmpw    r0,r11
 1802f94:	41 82 00 10 	beq-    1802fa4 <radio_control_task+0x114>
 1802f98:	99 7e a3 46 	stb     r11,-23738(r30)
 1802f9c:	39 60 00 01 	li      r11,1
 1802fa0:	48 00 00 08 	b       1802fa8 <radio_control_task+0x118>
 1802fa4:	39 60 00 00 	li      r11,0
 1802fa8:	3d 20 01 82 	lis     r9,386
 1802fac:	a8 09 a9 d8 	lha     r0,-22056(r9)
 1802fb0:	3d 40 01 82 	lis     r10,386
 1802fb4:	2f 80 0c 7f 	cmpwi   cr7,r0,3199
 1802fb8:	89 2a a3 49 	lbz     r9,-23735(r10)
 1802fbc:	55 68 06 3e 	clrlwi  r8,r11,24
 1802fc0:	7c 00 00 26 	mfcr    r0
 1802fc4:	54 00 f7 fe 	rlwinm  r0,r0,30,31,31
 1802fc8:	7c 09 00 00 	cmpw    r9,r0
 1802fcc:	7f ff 43 78 	or      r31,r31,r8
 1802fd0:	41 82 00 10 	beq-    1802fe0 <radio_control_task+0x150>
 1802fd4:	98 0a a3 49 	stb     r0,-23735(r10)
 1802fd8:	39 60 00 01 	li      r11,1
 1802fdc:	48 00 00 08 	b       1802fe4 <radio_control_task+0x154>
 1802fe0:	39 60 00 00 	li      r11,0
 1802fe4:	3d 20 01 82 	lis     r9,386
 1802fe8:	a8 09 a9 da 	lha     r0,-22054(r9)
 1802fec:	7d 7f fb 78 	or      r31,r11,r31
 1802ff0:	2c 00 ed 40 	cmpwi   r0,-4800
 1802ff4:	41 80 00 14 	blt-    1803008 <radio_control_task+0x178>
 1802ff8:	2f 80 0c 7f 	cmpwi   cr7,r0,3199
 1802ffc:	7d 60 00 26 	mfcr    r11
 1803000:	55 6b f7 fe 	rlwinm  r11,r11,30,31,31
 1803004:	48 00 00 08 	b       180300c <radio_control_task+0x17c>
 1803008:	39 60 00 02 	li      r11,2
 180300c:	3d 20 01 82 	lis     r9,386
 1803010:	88 09 a3 e1 	lbz     r0,-23583(r9)
 1803014:	7c 00 58 00 	cmpw    r0,r11
 1803018:	41 82 00 10 	beq-    1803028 <radio_control_task+0x198>
 180301c:	99 69 a3 e1 	stb     r11,-23583(r9)
 1803020:	3b a0 00 01 	li      r29,1
 1803024:	48 00 00 08 	b       180302c <radio_control_task+0x19c>
 1803028:	3b a0 00 00 	li      r29,0
 180302c:	57 bd 06 3e 	clrlwi  r29,r29,24
 1803030:	7f a3 43 78 	or      r3,r29,r8
 1803034:	48 00 68 29 	bl      180985c <inflight_calib>
 1803038:	7f ff eb 78 	or      r31,r31,r29
 180303c:	3d 20 01 82 	lis     r9,386
 1803040:	3d 60 01 82 	lis     r11,386
 1803044:	89 49 a9 dd 	lbz     r10,-22051(r9)
 1803048:	88 0b a3 e5 	lbz     r0,-23579(r11)
 180304c:	7c 00 50 00 	cmpw    r0,r10
 1803050:	41 82 00 20 	beq-    1803070 <radio_control_task+0x1e0>
 1803054:	7c 00 52 78 	xor     r0,r0,r10
 1803058:	54 00 07 be 	clrlwi  r0,r0,30
 180305c:	7c 00 00 d0 	neg     r0,r0
 1803060:	3d 20 01 82 	lis     r9,386
 1803064:	99 49 a3 e5 	stb     r10,-23579(r9)
 1803068:	54 00 0f fe 	rlwinm  r0,r0,1,31,31
 180306c:	48 00 00 08 	b       1803074 <radio_control_task+0x1e4>
 1803070:	38 00 00 00 	li      r0,0
 1803074:	7c 09 fb 79 	or.     r9,r0,r31
 1803078:	41 82 02 c0 	beq-    1803338 <radio_control_task+0x4a8>
 180307c:	3d 20 01 82 	lis     r9,386
 1803080:	3d 60 01 82 	lis     r11,386
 1803084:	89 29 a3 f9 	lbz     r9,-23559(r9)
 1803088:	88 0b a3 fa 	lbz     r0,-23558(r11)
 180308c:	3d 80 01 82 	lis     r12,386
 1803090:	7c 09 00 40 	cmplw   r9,r0
 1803094:	3f 40 01 82 	lis     r26,386
 1803098:	41 80 00 1c 	blt-    18030b4 <radio_control_task+0x224>
 180309c:	88 1a a3 fa 	lbz     r0,-23558(r26)
 18030a0:	7c 00 48 50 	subf    r0,r0,r9
 18030a4:	20 00 00 ff 	subfic  r0,r0,255
 18030a8:	2c 00 00 09 	cmpwi   r0,9
 18030ac:	41 81 00 18 	bgt-    18030c4 <radio_control_task+0x234>
 18030b0:	48 00 02 78 	b       1803328 <radio_control_task+0x498>
 18030b4:	88 1a a3 fa 	lbz     r0,-23558(r26)
 18030b8:	7c 09 00 50 	subf    r0,r9,r0
 18030bc:	2c 00 00 09 	cmpwi   r0,9
 18030c0:	40 81 02 68 	ble-    1803328 <radio_control_task+0x498>
 18030c4:	3d 00 01 82 	lis     r8,386
 18030c8:	89 28 a3 f9 	lbz     r9,-23559(r8)
 18030cc:	3d 60 01 82 	lis     r11,386
 18030d0:	39 49 00 01 	addi    r10,r9,1
 18030d4:	55 40 06 3e 	clrlwi  r0,r10,24
 18030d8:	28 00 00 fe 	cmplwi  r0,254
 18030dc:	38 ab a8 b4 	addi    r5,r11,-22348
 18030e0:	55 29 06 3e 	clrlwi  r9,r9,24
 18030e4:	38 00 00 05 	li      r0,5
 18030e8:	7c 05 49 ae 	stbx    r0,r5,r9
 18030ec:	99 48 a3 f9 	stb     r10,-23559(r8)
 18030f0:	40 81 00 0c 	ble-    18030fc <radio_control_task+0x26c>
 18030f4:	38 00 00 00 	li      r0,0
 18030f8:	98 0c a3 f9 	stb     r0,-23559(r12)
 18030fc:	89 2c a3 f9 	lbz     r9,-23559(r12)
 1803100:	39 40 00 0b 	li      r10,11
 1803104:	39 69 00 01 	addi    r11,r9,1
 1803108:	55 60 06 3e 	clrlwi  r0,r11,24
 180310c:	55 29 06 3e 	clrlwi  r9,r9,24
 1803110:	28 00 00 fe 	cmplwi  r0,254
 1803114:	7d 45 49 ae 	stbx    r10,r5,r9
 1803118:	99 6c a3 f9 	stb     r11,-23559(r12)
 180311c:	40 81 00 0c 	ble-    1803128 <radio_control_task+0x298>
 1803120:	38 00 00 00 	li      r0,0
 1803124:	98 0c a3 f9 	stb     r0,-23559(r12)
 1803128:	89 6c a3 f9 	lbz     r11,-23559(r12)
 180312c:	3d 40 01 82 	lis     r10,386
 1803130:	39 0b 00 01 	addi    r8,r11,1
 1803134:	89 2a a3 46 	lbz     r9,-23738(r10)
 1803138:	55 00 06 3e 	clrlwi  r0,r8,24
 180313c:	55 6b 06 3e 	clrlwi  r11,r11,24
 1803140:	28 00 00 fe 	cmplwi  r0,254
 1803144:	7d 25 59 ae 	stbx    r9,r5,r11
 1803148:	38 c9 00 16 	addi    r6,r9,22
 180314c:	38 e9 00 0b 	addi    r7,r9,11
 1803150:	3c 80 01 82 	lis     r4,386
 1803154:	3c 60 01 82 	lis     r3,386
 1803158:	98 e4 a3 fc 	stb     r7,-23556(r4)
 180315c:	98 c3 a3 f6 	stb     r6,-23562(r3)
 1803160:	99 0c a3 f9 	stb     r8,-23559(r12)
 1803164:	40 81 00 0c 	ble-    1803170 <radio_control_task+0x2e0>
 1803168:	38 00 00 00 	li      r0,0
 180316c:	98 0c a3 f9 	stb     r0,-23559(r12)
 1803170:	89 6c a3 f9 	lbz     r11,-23559(r12)
 1803174:	3d 20 01 82 	lis     r9,386
 1803178:	39 0b 00 01 	addi    r8,r11,1
 180317c:	89 49 a3 47 	lbz     r10,-23737(r9)
 1803180:	55 00 06 3e 	clrlwi  r0,r8,24
 1803184:	7c e7 52 14 	add     r7,r7,r10
 1803188:	55 6b 06 3e 	clrlwi  r11,r11,24
 180318c:	28 00 00 fe 	cmplwi  r0,254
 1803190:	7d 45 59 ae 	stbx    r10,r5,r11
 1803194:	7c c6 3a 14 	add     r6,r6,r7
 1803198:	98 e4 a3 fc 	stb     r7,-23556(r4)
 180319c:	98 c3 a3 f6 	stb     r6,-23562(r3)
 18031a0:	99 0c a3 f9 	stb     r8,-23559(r12)
 18031a4:	40 81 00 0c 	ble-    18031b0 <radio_control_task+0x320>
 18031a8:	38 00 00 00 	li      r0,0
 18031ac:	98 0c a3 f9 	stb     r0,-23559(r12)
 18031b0:	89 6c a3 f9 	lbz     r11,-23559(r12)
 18031b4:	3d 20 01 82 	lis     r9,386
 18031b8:	39 0b 00 01 	addi    r8,r11,1
 18031bc:	89 49 a3 e1 	lbz     r10,-23583(r9)
 18031c0:	55 00 06 3e 	clrlwi  r0,r8,24
 18031c4:	7c e7 52 14 	add     r7,r7,r10
 18031c8:	55 6b 06 3e 	clrlwi  r11,r11,24
 18031cc:	28 00 00 fe 	cmplwi  r0,254
 18031d0:	7d 45 59 ae 	stbx    r10,r5,r11
 18031d4:	7c c6 3a 14 	add     r6,r6,r7
 18031d8:	98 e4 a3 fc 	stb     r7,-23556(r4)
 18031dc:	98 c3 a3 f6 	stb     r6,-23562(r3)
 18031e0:	99 0c a3 f9 	stb     r8,-23559(r12)
 18031e4:	40 81 00 0c 	ble-    18031f0 <radio_control_task+0x360>
 18031e8:	38 00 00 00 	li      r0,0
 18031ec:	98 0c a3 f9 	stb     r0,-23559(r12)
 18031f0:	89 6c a3 f9 	lbz     r11,-23559(r12)
 18031f4:	3d 20 01 82 	lis     r9,386
 18031f8:	39 0b 00 01 	addi    r8,r11,1
 18031fc:	89 49 a3 e5 	lbz     r10,-23579(r9)
 1803200:	55 00 06 3e 	clrlwi  r0,r8,24
 1803204:	7c e7 52 14 	add     r7,r7,r10
 1803208:	55 6b 06 3e 	clrlwi  r11,r11,24
 180320c:	28 00 00 fe 	cmplwi  r0,254
 1803210:	7d 45 59 ae 	stbx    r10,r5,r11
 1803214:	7c c6 3a 14 	add     r6,r6,r7
 1803218:	98 e4 a3 fc 	stb     r7,-23556(r4)
 180321c:	98 c3 a3 f6 	stb     r6,-23562(r3)
 1803220:	99 0c a3 f9 	stb     r8,-23559(r12)
 1803224:	40 81 00 0c 	ble-    1803230 <radio_control_task+0x3a0>
 1803228:	38 00 00 00 	li      r0,0
 180322c:	98 0c a3 f9 	stb     r0,-23559(r12)
 1803230:	89 6c a3 f9 	lbz     r11,-23559(r12)
 1803234:	3d 20 01 82 	lis     r9,386
 1803238:	39 0b 00 01 	addi    r8,r11,1
 180323c:	89 49 a3 49 	lbz     r10,-23735(r9)
 1803240:	55 00 06 3e 	clrlwi  r0,r8,24
 1803244:	7c e7 52 14 	add     r7,r7,r10
 1803248:	55 6b 06 3e 	clrlwi  r11,r11,24
 180324c:	28 00 00 fe 	cmplwi  r0,254
 1803250:	7d 45 59 ae 	stbx    r10,r5,r11
 1803254:	7c c6 3a 14 	add     r6,r6,r7
 1803258:	98 e4 a3 fc 	stb     r7,-23556(r4)
 180325c:	98 c3 a3 f6 	stb     r6,-23562(r3)
 1803260:	99 0c a3 f9 	stb     r8,-23559(r12)
 1803264:	40 81 00 0c 	ble-    1803270 <radio_control_task+0x3e0>
 1803268:	38 00 00 00 	li      r0,0
 180326c:	98 0c a3 f9 	stb     r0,-23559(r12)
 1803270:	89 2c a3 f9 	lbz     r9,-23559(r12)
 1803274:	39 69 00 01 	addi    r11,r9,1
 1803278:	55 60 06 3e 	clrlwi  r0,r11,24
 180327c:	55 29 06 3e 	clrlwi  r9,r9,24
 1803280:	28 00 00 fe 	cmplwi  r0,254
 1803284:	7c e5 49 ae 	stbx    r7,r5,r9
 1803288:	99 6c a3 f9 	stb     r11,-23559(r12)
 180328c:	40 81 00 0c 	ble-    1803298 <radio_control_task+0x408>
 1803290:	38 00 00 00 	li      r0,0
 1803294:	98 0c a3 f9 	stb     r0,-23559(r12)
 1803298:	89 2c a3 f9 	lbz     r9,-23559(r12)
 180329c:	39 69 00 01 	addi    r11,r9,1
 18032a0:	55 60 06 3e 	clrlwi  r0,r11,24
 18032a4:	55 29 06 3e 	clrlwi  r9,r9,24
 18032a8:	28 00 00 fe 	cmplwi  r0,254
 18032ac:	7c c5 49 ae 	stbx    r6,r5,r9
 18032b0:	99 6c a3 f9 	stb     r11,-23559(r12)
 18032b4:	40 81 00 0c 	ble-    18032c0 <radio_control_task+0x430>
 18032b8:	38 00 00 00 	li      r0,0
 18032bc:	98 0c a3 f9 	stb     r0,-23559(r12)
 18032c0:	38 c0 00 59 	li      r6,89
 18032c4:	88 06 00 00 	lbz     r0,0(r6)
 18032c8:	70 07 00 10 	andi.   r7,r0,16
 18032cc:	40 82 00 6c 	bne-    1803338 <radio_control_task+0x4a8>
 18032d0:	3d 60 01 82 	lis     r11,386
 18032d4:	88 0b a3 fa 	lbz     r0,-23558(r11)
 18032d8:	89 2b a3 fa 	lbz     r9,-23558(r11)
 18032dc:	7d 05 00 ae 	lbzx    r8,r5,r0
 18032e0:	39 29 00 01 	addi    r9,r9,1
 18032e4:	99 2b a3 fa 	stb     r9,-23558(r11)
 18032e8:	88 0b a3 fa 	lbz     r0,-23558(r11)
 18032ec:	3d 40 01 82 	lis     r10,386
 18032f0:	28 00 00 fe 	cmplwi  r0,254
 18032f4:	3d 20 01 82 	lis     r9,386
 18032f8:	99 0a a3 f8 	stb     r8,-23560(r10)
 18032fc:	98 e9 a3 fb 	stb     r7,-23557(r9)
 1803300:	40 81 00 08 	ble-    1803308 <radio_control_task+0x478>
 1803304:	98 fa a3 fa 	stb     r7,-23558(r26)
 1803308:	39 20 00 58 	li      r9,88
 180330c:	88 09 00 00 	lbz     r0,0(r9)
 1803310:	60 00 00 01 	ori     r0,r0,1
 1803314:	98 09 00 00 	stb     r0,0(r9)
 1803318:	89 66 00 00 	lbz     r11,0(r6)
 180331c:	61 6b 00 10 	ori     r11,r11,16
 1803320:	99 66 00 00 	stb     r11,0(r6)
 1803324:	48 00 00 14 	b       1803338 <radio_control_task+0x4a8>
 1803328:	3d 60 01 82 	lis     r11,386
 180332c:	89 2b a3 f7 	lbz     r9,-23561(r11)
 1803330:	39 29 00 01 	addi    r9,r9,1
 1803334:	99 2b a3 f7 	stb     r9,-23561(r11)
 1803338:	3d 20 01 82 	lis     r9,386
 180333c:	88 09 a3 46 	lbz     r0,-23738(r9)
 1803340:	2c 00 00 01 	cmpwi   r0,1
 1803344:	40 82 00 b4 	bne-    18033f8 <radio_control_task+0x568>
 1803348:	3d 20 01 82 	lis     r9,386
 180334c:	39 29 a9 ca 	addi    r9,r9,-22070
 1803350:	a8 09 00 02 	lha     r0,2(r9)
 1803354:	6c 00 80 00 	xoris   r0,r0,32768
 1803358:	90 01 00 14 	stw     r0,20(r1)
 180335c:	a9 49 00 04 	lha     r10,4(r9)
 1803360:	3c 00 43 30 	lis     r0,17200
 1803364:	90 01 00 10 	stw     r0,16(r1)
 1803368:	7d 69 5b 78 	mr      r9,r11
 180336c:	c9 61 00 10 	lfd     f11,16(r1)
 1803370:	6d 4a 80 00 	xoris   r10,r10,32768
 1803374:	91 41 00 14 	stw     r10,20(r1)
 1803378:	3d 60 01 81 	lis     r11,385
 180337c:	90 01 00 10 	stw     r0,16(r1)
 1803380:	39 6b 9f 00 	addi    r11,r11,-24832
 1803384:	c8 0b 00 00 	lfd     f0,0(r11)
 1803388:	c9 81 00 10 	lfd     f12,16(r1)
 180338c:	3d 20 01 81 	lis     r9,385
 1803390:	fd 6b 00 28 	fsub    f11,f11,f0
 1803394:	39 29 9f 08 	addi    r9,r9,-24824
 1803398:	fd 8c 00 28 	fsub    f12,f12,f0
 180339c:	c1 a9 00 00 	lfs     f13,0(r9)
 18033a0:	3d 20 01 81 	lis     r9,385
 18033a4:	c9 09 9e f8 	lfd     f8,-24840(r9)
 18033a8:	fd 60 58 18 	frsp    f11,f11
 18033ac:	3d 60 01 81 	lis     r11,385
 18033b0:	fd 80 60 18 	frsp    f12,f12
 18033b4:	3d 20 01 81 	lis     r9,385
 18033b8:	39 6b 9f 10 	addi    r11,r11,-24816
 18033bc:	39 29 9f 18 	addi    r9,r9,-24808
 18033c0:	ed 6b 68 24 	fdivs   f11,f11,f13
 18033c4:	c9 4b 00 00 	lfd     f10,0(r11)
 18033c8:	c9 29 00 00 	lfd     f9,0(r9)
 18033cc:	3d 20 01 82 	lis     r9,386
 18033d0:	3d 60 01 82 	lis     r11,386
 18033d4:	ed 8c 68 24 	fdivs   f12,f12,f13
 18033d8:	fc 00 58 90 	fmr     f0,f11
 18033dc:	fd a0 60 90 	fmr     f13,f12
 18033e0:	fc 00 52 3a 	fmadd   f0,f0,f8,f10
 18033e4:	fd ad 52 7a 	fmadd   f13,f13,f9,f10
 18033e8:	fc 00 00 18 	frsp    f0,f0
 18033ec:	fd a0 68 18 	frsp    f13,f13
 18033f0:	d0 09 a3 74 	stfs    f0,-23692(r9)
 18033f4:	d1 ab a3 78 	stfs    f13,-23688(r11)
 18033f8:	88 1e a3 46 	lbz     r0,-23738(r30)
 18033fc:	28 00 00 01 	cmplwi  r0,1
 1803400:	41 81 00 14 	bgt-    1803414 <radio_control_task+0x584>
 1803404:	3d 20 01 82 	lis     r9,386
 1803408:	a0 09 a9 ca 	lhz     r0,-22070(r9)
 180340c:	3d 60 01 82 	lis     r11,386
 1803410:	b0 0b a4 44 	sth     r0,-23484(r11)
 1803414:	3d 20 01 82 	lis     r9,386
 1803418:	88 09 a3 e1 	lbz     r0,-23583(r9)
 180341c:	3d 60 01 82 	lis     r11,386
 1803420:	39 0b a9 ca 	addi    r8,r11,-22070
 1803424:	2c 00 00 00 	cmpwi   r0,0
 1803428:	89 48 00 12 	lbz     r10,18(r8)
 180342c:	88 08 00 15 	lbz     r0,21(r8)
 1803430:	3d 20 01 82 	lis     r9,386
 1803434:	3d 60 01 82 	lis     r11,386
 1803438:	99 49 a3 e6 	stb     r10,-23578(r9)
 180343c:	98 0b a3 f5 	stb     r0,-23563(r11)
 1803440:	40 82 00 44 	bne-    1803484 <radio_control_task+0x5f4>
 1803444:	a8 08 00 0a 	lha     r0,10(r8)
 1803448:	2c 00 1c 20 	cmpwi   r0,7200
 180344c:	40 81 00 38 	ble-    1803484 <radio_control_task+0x5f4>
 1803450:	3d 60 01 82 	lis     r11,386
 1803454:	a1 2b a3 50 	lhz     r9,-23728(r11)
 1803458:	28 09 00 13 	cmplwi  r9,19
 180345c:	41 81 00 3c 	bgt-    1803498 <radio_control_task+0x608>
 1803460:	39 29 00 01 	addi    r9,r9,1
 1803464:	55 20 04 3e 	clrlwi  r0,r9,16
 1803468:	2c 00 00 14 	cmpwi   r0,20
 180346c:	b1 2b a3 50 	sth     r9,-23728(r11)
 1803470:	40 82 00 28 	bne-    1803498 <radio_control_task+0x608>
 1803474:	3d 20 01 82 	lis     r9,386
 1803478:	38 00 00 01 	li      r0,1
 180347c:	98 09 a3 e8 	stb     r0,-23576(r9)
 1803480:	48 00 00 18 	b       1803498 <radio_control_task+0x608>
 1803484:	38 00 00 00 	li      r0,0
 1803488:	3d 60 01 82 	lis     r11,386
 180348c:	3d 20 01 82 	lis     r9,386
 1803490:	98 09 a3 e8 	stb     r0,-23576(r9)
 1803494:	b0 0b a3 50 	sth     r0,-23728(r11)
 1803498:	3d 20 01 82 	lis     r9,386
 180349c:	88 09 a3 e1 	lbz     r0,-23583(r9)
 18034a0:	2c 00 00 00 	cmpwi   r0,0
 18034a4:	40 82 00 48 	bne-    18034ec <radio_control_task+0x65c>
 18034a8:	3d 20 01 82 	lis     r9,386
 18034ac:	a8 09 a9 d4 	lha     r0,-22060(r9)
 18034b0:	2c 00 e3 e0 	cmpwi   r0,-7200
 18034b4:	40 80 00 38 	bge-    18034ec <radio_control_task+0x65c>
 18034b8:	3d 60 01 82 	lis     r11,386
 18034bc:	a1 2b a3 52 	lhz     r9,-23726(r11)
 18034c0:	28 09 00 13 	cmplwi  r9,19
 18034c4:	41 81 00 3c 	bgt-    1803500 <radio_control_task+0x670>
 18034c8:	39 29 00 01 	addi    r9,r9,1
 18034cc:	55 20 04 3e 	clrlwi  r0,r9,16
 18034d0:	2c 00 00 14 	cmpwi   r0,20
 18034d4:	b1 2b a3 52 	sth     r9,-23726(r11)
 18034d8:	40 82 00 28 	bne-    1803500 <radio_control_task+0x670>
 18034dc:	3d 20 01 82 	lis     r9,386
 18034e0:	38 00 00 01 	li      r0,1
 18034e4:	98 09 a3 f4 	stb     r0,-23564(r9)
 18034e8:	48 00 00 18 	b       1803500 <radio_control_task+0x670>
 18034ec:	38 00 00 00 	li      r0,0
 18034f0:	3d 60 01 82 	lis     r11,386
 18034f4:	3d 20 01 82 	lis     r9,386
 18034f8:	98 09 a3 f4 	stb     r0,-23564(r9)
 18034fc:	b0 0b a3 52 	sth     r0,-23726(r11)
 1803500:	3d 20 01 82 	lis     r9,386
 1803504:	a0 09 a4 b4 	lhz     r0,-23372(r9)
 1803508:	2c 00 00 00 	cmpwi   r0,0
 180350c:	40 82 08 ec 	bne-    1803df8 <radio_control_task+0xf68>
 1803510:	3d 20 01 82 	lis     r9,386
 1803514:	88 09 a3 4e 	lbz     r0,-23730(r9)
 1803518:	2c 00 00 00 	cmpwi   r0,0
 180351c:	40 82 01 08 	bne-    1803624 <radio_control_task+0x794>
 1803520:	3d 20 01 82 	lis     r9,386
 1803524:	a0 09 a3 44 	lhz     r0,-23740(r9)
 1803528:	28 00 00 09 	cmplwi  r0,9
 180352c:	41 81 08 a0 	bgt-    1803dcc <radio_control_task+0xf3c>
 1803530:	3d 20 01 82 	lis     r9,386
 1803534:	89 09 a3 46 	lbz     r8,-23738(r9)
 1803538:	2c 08 00 01 	cmpwi   r8,1
 180353c:	40 82 08 90 	bne-    1803dcc <radio_control_task+0xf3c>
 1803540:	3d 20 01 82 	lis     r9,386
 1803544:	3d 60 01 82 	lis     r11,386
 1803548:	89 49 a3 f9 	lbz     r10,-23559(r9)
 180354c:	88 0b a3 fa 	lbz     r0,-23558(r11)
 1803550:	3d 20 01 82 	lis     r9,386
 1803554:	7c 0a 00 40 	cmplw   r10,r0
 1803558:	99 09 a3 4e 	stb     r8,-23730(r9)
 180355c:	3d 80 01 82 	lis     r12,386
 1803560:	3f 40 01 82 	lis     r26,386
 1803564:	41 80 00 1c 	blt-    1803580 <radio_control_task+0x6f0>
 1803568:	88 1a a3 fa 	lbz     r0,-23558(r26)
 180356c:	7c 00 50 50 	subf    r0,r0,r10
 1803570:	20 00 00 ff 	subfic  r0,r0,255
 1803574:	2c 00 00 04 	cmpwi   r0,4
 1803578:	41 81 00 18 	bgt-    1803590 <radio_control_task+0x700>
 180357c:	48 00 08 40 	b       1803dbc <radio_control_task+0xf2c>
 1803580:	88 1a a3 fa 	lbz     r0,-23558(r26)
 1803584:	7c 0a 00 50 	subf    r0,r10,r0
 1803588:	2c 00 00 04 	cmpwi   r0,4
 180358c:	40 81 08 30 	ble-    1803dbc <radio_control_task+0xf2c>
 1803590:	3d 00 01 82 	lis     r8,386
 1803594:	89 28 a3 f9 	lbz     r9,-23559(r8)
 1803598:	3d 60 01 82 	lis     r11,386
 180359c:	39 49 00 01 	addi    r10,r9,1
 18035a0:	55 40 06 3e 	clrlwi  r0,r10,24
 18035a4:	28 00 00 fe 	cmplwi  r0,254
 18035a8:	38 ab a8 b4 	addi    r5,r11,-22348
 18035ac:	55 29 06 3e 	clrlwi  r9,r9,24
 18035b0:	38 00 00 05 	li      r0,5
 18035b4:	7c 05 49 ae 	stbx    r0,r5,r9
 18035b8:	99 48 a3 f9 	stb     r10,-23559(r8)
 18035bc:	40 81 00 0c 	ble-    18035c8 <radio_control_task+0x738>
 18035c0:	38 00 00 00 	li      r0,0
 18035c4:	98 0c a3 f9 	stb     r0,-23559(r12)
 18035c8:	89 2c a3 f9 	lbz     r9,-23559(r12)
 18035cc:	38 e0 00 02 	li      r7,2
 18035d0:	39 69 00 01 	addi    r11,r9,1
 18035d4:	55 60 06 3e 	clrlwi  r0,r11,24
 18035d8:	55 29 06 3e 	clrlwi  r9,r9,24
 18035dc:	28 00 00 fe 	cmplwi  r0,254
 18035e0:	7c e5 49 ae 	stbx    r7,r5,r9
 18035e4:	99 6c a3 f9 	stb     r11,-23559(r12)
 18035e8:	40 81 00 0c 	ble-    18035f4 <radio_control_task+0x764>
 18035ec:	38 00 00 00 	li      r0,0
 18035f0:	98 0c a3 f9 	stb     r0,-23559(r12)
 18035f4:	89 2c a3 f9 	lbz     r9,-23559(r12)
 18035f8:	3d 00 01 82 	lis     r8,386
 18035fc:	39 49 00 01 	addi    r10,r9,1
 1803600:	55 40 06 3e 	clrlwi  r0,r10,24
 1803604:	55 29 06 3e 	clrlwi  r9,r9,24
 1803608:	28 00 00 fe 	cmplwi  r0,254
 180360c:	7c e5 49 ae 	stbx    r7,r5,r9
 1803610:	3d 60 01 82 	lis     r11,386
 1803614:	98 e8 a3 fc 	stb     r7,-23556(r8)
 1803618:	98 eb a3 f6 	stb     r7,-23562(r11)
 180361c:	99 4c a3 f9 	stb     r10,-23559(r12)
 1803620:	48 00 07 00 	b       1803d20 <radio_control_task+0xe90>
 1803624:	2c 00 00 01 	cmpwi   r0,1
 1803628:	40 82 07 a4 	bne-    1803dcc <radio_control_task+0xf3c>
 180362c:	3d 60 01 82 	lis     r11,386
 1803630:	a1 2b a9 cc 	lhz     r9,-22068(r11)
 1803634:	39 29 12 c0 	addi    r9,r9,4800
 1803638:	55 29 04 3e 	clrlwi  r9,r9,16
 180363c:	28 09 1f 40 	cmplwi  r9,8000
 1803640:	40 81 07 8c 	ble-    1803dcc <radio_control_task+0xf3c>
 1803644:	48 00 3a ed 	bl      1807130 <ir_gain_calib>
 1803648:	3d 20 01 82 	lis     r9,386
 180364c:	89 49 a3 f9 	lbz     r10,-23559(r9)
 1803650:	3d 60 01 82 	lis     r11,386
 1803654:	3d 20 01 82 	lis     r9,386
 1803658:	88 0b a3 fa 	lbz     r0,-23558(r11)
 180365c:	c0 09 a3 70 	lfs     f0,-23696(r9)
 1803660:	7c 0a 00 40 	cmplw   r10,r0
 1803664:	3d 20 01 82 	lis     r9,386
 1803668:	d0 09 a4 c8 	stfs    f0,-23352(r9)
 180366c:	3d 80 01 82 	lis     r12,386
 1803670:	3f 40 01 82 	lis     r26,386
 1803674:	41 80 00 1c 	blt-    1803690 <radio_control_task+0x800>
 1803678:	88 1a a3 fa 	lbz     r0,-23558(r26)
 180367c:	7c 00 50 50 	subf    r0,r0,r10
 1803680:	20 00 00 ff 	subfic  r0,r0,255
 1803684:	2c 00 00 14 	cmpwi   r0,20
 1803688:	41 81 00 18 	bgt-    18036a0 <radio_control_task+0x810>
 180368c:	48 00 05 30 	b       1803bbc <radio_control_task+0xd2c>
 1803690:	88 1a a3 fa 	lbz     r0,-23558(r26)
 1803694:	7c 0a 00 50 	subf    r0,r10,r0
 1803698:	2c 00 00 14 	cmpwi   r0,20
 180369c:	40 81 05 20 	ble-    1803bbc <radio_control_task+0xd2c>
 18036a0:	3d 60 01 82 	lis     r11,386
 18036a4:	89 2b a3 f9 	lbz     r9,-23559(r11)
 18036a8:	3d 40 01 82 	lis     r10,386
 18036ac:	39 09 00 01 	addi    r8,r9,1
 18036b0:	38 6a a8 b4 	addi    r3,r10,-22348
 18036b4:	55 00 06 3e 	clrlwi  r0,r8,24
 18036b8:	55 29 06 3e 	clrlwi  r9,r9,24
 18036bc:	39 40 00 05 	li      r10,5
 18036c0:	28 00 00 fe 	cmplwi  r0,254
 18036c4:	7d 43 49 ae 	stbx    r10,r3,r9
 18036c8:	38 8b a3 f9 	addi    r4,r11,-23559
 18036cc:	99 0b a3 f9 	stb     r8,-23559(r11)
 18036d0:	40 81 00 0c 	ble-    18036dc <radio_control_task+0x84c>
 18036d4:	38 00 00 00 	li      r0,0
 18036d8:	98 0c a3 f9 	stb     r0,-23559(r12)
 18036dc:	89 2c a3 f9 	lbz     r9,-23559(r12)
 18036e0:	39 69 00 01 	addi    r11,r9,1
 18036e4:	55 60 06 3e 	clrlwi  r0,r11,24
 18036e8:	55 29 06 3e 	clrlwi  r9,r9,24
 18036ec:	28 00 00 fe 	cmplwi  r0,254
 18036f0:	7d 43 49 ae 	stbx    r10,r3,r9
 18036f4:	99 6c a3 f9 	stb     r11,-23559(r12)
 18036f8:	40 81 00 0c 	ble-    1803704 <radio_control_task+0x874>
 18036fc:	38 00 00 00 	li      r0,0
 1803700:	98 0c a3 f9 	stb     r0,-23559(r12)
 1803704:	89 6c a3 f9 	lbz     r11,-23559(r12)
 1803708:	3d 40 01 82 	lis     r10,386
 180370c:	39 0b 00 01 	addi    r8,r11,1
 1803710:	89 2a a4 d0 	lbz     r9,-23344(r10)
 1803714:	55 00 06 3e 	clrlwi  r0,r8,24
 1803718:	55 6b 06 3e 	clrlwi  r11,r11,24
 180371c:	28 00 00 fe 	cmplwi  r0,254
 1803720:	7d 23 59 ae 	stbx    r9,r3,r11
 1803724:	3f a0 01 82 	lis     r29,386
 1803728:	3f e0 01 82 	lis     r31,386
 180372c:	38 c9 00 0a 	addi    r6,r9,10
 1803730:	38 e9 00 05 	addi    r7,r9,5
 1803734:	38 aa a4 d0 	addi    r5,r10,-23344
 1803738:	3b 9d a3 fc 	addi    r28,r29,-23556
 180373c:	3b 7f a3 f6 	addi    r27,r31,-23562
 1803740:	98 fd a3 fc 	stb     r7,-23556(r29)
 1803744:	98 df a3 f6 	stb     r6,-23562(r31)
 1803748:	99 0c a3 f9 	stb     r8,-23559(r12)
 180374c:	40 81 00 0c 	ble-    1803758 <radio_control_task+0x8c8>
 1803750:	38 00 00 00 	li      r0,0
 1803754:	98 0c a3 f9 	stb     r0,-23559(r12)
 1803758:	89 2c a3 f9 	lbz     r9,-23559(r12)
 180375c:	89 65 00 01 	lbz     r11,1(r5)
 1803760:	39 49 00 01 	addi    r10,r9,1
 1803764:	55 40 06 3e 	clrlwi  r0,r10,24
 1803768:	7d 07 5a 14 	add     r8,r7,r11
 180376c:	55 29 06 3e 	clrlwi  r9,r9,24
 1803770:	28 00 00 fe 	cmplwi  r0,254
 1803774:	7d 63 49 ae 	stbx    r11,r3,r9
 1803778:	7c e6 42 14 	add     r7,r6,r8
 180377c:	99 1d a3 fc 	stb     r8,-23556(r29)
 1803780:	98 ff a3 f6 	stb     r7,-23562(r31)
 1803784:	99 4c a3 f9 	stb     r10,-23559(r12)
 1803788:	40 81 00 0c 	ble-    1803794 <radio_control_task+0x904>
 180378c:	38 00 00 00 	li      r0,0
 1803790:	98 0c a3 f9 	stb     r0,-23559(r12)
 1803794:	89 2c a3 f9 	lbz     r9,-23559(r12)
 1803798:	89 65 00 02 	lbz     r11,2(r5)
 180379c:	39 49 00 01 	addi    r10,r9,1
 18037a0:	55 40 06 3e 	clrlwi  r0,r10,24
 18037a4:	7d 08 5a 14 	add     r8,r8,r11
 18037a8:	55 29 06 3e 	clrlwi  r9,r9,24
 18037ac:	28 00 00 fe 	cmplwi  r0,254
 18037b0:	7d 63 49 ae 	stbx    r11,r3,r9
 18037b4:	7c c7 42 14 	add     r6,r7,r8
 18037b8:	99 1d a3 fc 	stb     r8,-23556(r29)
 18037bc:	98 df a3 f6 	stb     r6,-23562(r31)
 18037c0:	99 4c a3 f9 	stb     r10,-23559(r12)
 18037c4:	40 81 00 0c 	ble-    18037d0 <radio_control_task+0x940>
 18037c8:	38 00 00 00 	li      r0,0
 18037cc:	98 0c a3 f9 	stb     r0,-23559(r12)
 18037d0:	89 2c a3 f9 	lbz     r9,-23559(r12)
 18037d4:	89 65 00 03 	lbz     r11,3(r5)
 18037d8:	39 49 00 01 	addi    r10,r9,1
 18037dc:	55 40 06 3e 	clrlwi  r0,r10,24
 18037e0:	7c e8 5a 14 	add     r7,r8,r11
 18037e4:	55 29 06 3e 	clrlwi  r9,r9,24
 18037e8:	28 00 00 fe 	cmplwi  r0,254
 18037ec:	7d 63 49 ae 	stbx    r11,r3,r9
 18037f0:	7c c6 3a 14 	add     r6,r6,r7
 18037f4:	98 fd a3 fc 	stb     r7,-23556(r29)
 18037f8:	98 df a3 f6 	stb     r6,-23562(r31)
 18037fc:	99 4c a3 f9 	stb     r10,-23559(r12)
 1803800:	40 81 00 0c 	ble-    180380c <radio_control_task+0x97c>
 1803804:	38 00 00 00 	li      r0,0
 1803808:	98 0c a3 f9 	stb     r0,-23559(r12)
 180380c:	89 6c a3 f9 	lbz     r11,-23559(r12)
 1803810:	3d 20 01 82 	lis     r9,386
 1803814:	39 0b 00 01 	addi    r8,r11,1
 1803818:	89 49 a4 e8 	lbz     r10,-23320(r9)
 180381c:	55 00 06 3e 	clrlwi  r0,r8,24
 1803820:	7c e7 52 14 	add     r7,r7,r10
 1803824:	55 6b 06 3e 	clrlwi  r11,r11,24
 1803828:	28 00 00 fe 	cmplwi  r0,254
 180382c:	7d 43 59 ae 	stbx    r10,r3,r11
 1803830:	7c c6 3a 14 	add     r6,r6,r7
 1803834:	38 a9 a4 e8 	addi    r5,r9,-23320
 1803838:	98 fd a3 fc 	stb     r7,-23556(r29)
 180383c:	98 df a3 f6 	stb     r6,-23562(r31)
 1803840:	99 0c a3 f9 	stb     r8,-23559(r12)
 1803844:	40 81 00 0c 	ble-    1803850 <radio_control_task+0x9c0>
 1803848:	38 00 00 00 	li      r0,0
 180384c:	98 0c a3 f9 	stb     r0,-23559(r12)
 1803850:	89 2c a3 f9 	lbz     r9,-23559(r12)
 1803854:	89 65 00 01 	lbz     r11,1(r5)
 1803858:	39 49 00 01 	addi    r10,r9,1
 180385c:	55 40 06 3e 	clrlwi  r0,r10,24
 1803860:	7d 07 5a 14 	add     r8,r7,r11
 1803864:	55 29 06 3e 	clrlwi  r9,r9,24
 1803868:	28 00 00 fe 	cmplwi  r0,254
 180386c:	7d 63 49 ae 	stbx    r11,r3,r9
 1803870:	7c e6 42 14 	add     r7,r6,r8
 1803874:	99 1d a3 fc 	stb     r8,-23556(r29)
 1803878:	98 ff a3 f6 	stb     r7,-23562(r31)
 180387c:	99 4c a3 f9 	stb     r10,-23559(r12)
 1803880:	40 81 00 0c 	ble-    180388c <radio_control_task+0x9fc>
 1803884:	38 00 00 00 	li      r0,0
 1803888:	98 0c a3 f9 	stb     r0,-23559(r12)
 180388c:	89 2c a3 f9 	lbz     r9,-23559(r12)
 1803890:	89 65 00 02 	lbz     r11,2(r5)
 1803894:	39 49 00 01 	addi    r10,r9,1
 1803898:	55 40 06 3e 	clrlwi  r0,r10,24
 180389c:	7d 08 5a 14 	add     r8,r8,r11
 18038a0:	55 29 06 3e 	clrlwi  r9,r9,24
 18038a4:	28 00 00 fe 	cmplwi  r0,254
 18038a8:	7d 63 49 ae 	stbx    r11,r3,r9
 18038ac:	7c c7 42 14 	add     r6,r7,r8
 18038b0:	99 1d a3 fc 	stb     r8,-23556(r29)
 18038b4:	98 df a3 f6 	stb     r6,-23562(r31)
 18038b8:	99 4c a3 f9 	stb     r10,-23559(r12)
 18038bc:	40 81 00 0c 	ble-    18038c8 <radio_control_task+0xa38>
 18038c0:	38 00 00 00 	li      r0,0
 18038c4:	98 0c a3 f9 	stb     r0,-23559(r12)
 18038c8:	89 2c a3 f9 	lbz     r9,-23559(r12)
 18038cc:	89 65 00 03 	lbz     r11,3(r5)
 18038d0:	39 49 00 01 	addi    r10,r9,1
 18038d4:	55 40 06 3e 	clrlwi  r0,r10,24
 18038d8:	7c e8 5a 14 	add     r7,r8,r11
 18038dc:	55 29 06 3e 	clrlwi  r9,r9,24
 18038e0:	28 00 00 fe 	cmplwi  r0,254
 18038e4:	7d 63 49 ae 	stbx    r11,r3,r9
 18038e8:	7c a6 3a 14 	add     r5,r6,r7
 18038ec:	98 fd a3 fc 	stb     r7,-23556(r29)
 18038f0:	98 bf a3 f6 	stb     r5,-23562(r31)
 18038f4:	99 4c a3 f9 	stb     r10,-23559(r12)
 18038f8:	40 81 00 0c 	ble-    1803904 <radio_control_task+0xa74>
 18038fc:	38 00 00 00 	li      r0,0
 1803900:	98 0c a3 f9 	stb     r0,-23559(r12)
 1803904:	89 64 00 00 	lbz     r11,0(r4)
 1803908:	3d 20 01 82 	lis     r9,386
 180390c:	89 49 a4 c8 	lbz     r10,-23352(r9)
 1803910:	39 0b 00 01 	addi    r8,r11,1
 1803914:	7c c7 52 14 	add     r6,r7,r10
 1803918:	55 00 06 3e 	clrlwi  r0,r8,24
 180391c:	55 6b 06 3e 	clrlwi  r11,r11,24
 1803920:	7d 43 59 ae 	stbx    r10,r3,r11
 1803924:	7c a5 32 14 	add     r5,r5,r6
 1803928:	28 00 00 fe 	cmplwi  r0,254
 180392c:	98 dd a3 fc 	stb     r6,-23556(r29)
 1803930:	98 bf a3 f6 	stb     r5,-23562(r31)
 1803934:	3b c9 a4 c8 	addi    r30,r9,-23352
 1803938:	99 04 00 00 	stb     r8,0(r4)
 180393c:	40 81 00 0c 	ble-    1803948 <radio_control_task+0xab8>
 1803940:	38 00 00 00 	li      r0,0
 1803944:	98 04 00 00 	stb     r0,0(r4)
 1803948:	89 1e 00 01 	lbz     r8,1(r30)
 180394c:	89 24 00 00 	lbz     r9,0(r4)
 1803950:	7d 46 42 14 	add     r10,r6,r8
 1803954:	38 e9 00 01 	addi    r7,r9,1
 1803958:	7d 65 52 14 	add     r11,r5,r10
 180395c:	99 7f a3 f6 	stb     r11,-23562(r31)
 1803960:	54 e0 06 3e 	clrlwi  r0,r7,24
 1803964:	55 29 06 3e 	clrlwi  r9,r9,24
 1803968:	7d 03 49 ae 	stbx    r8,r3,r9
 180396c:	28 00 00 fe 	cmplwi  r0,254
 1803970:	99 5d a3 fc 	stb     r10,-23556(r29)
 1803974:	98 e4 00 00 	stb     r7,0(r4)
 1803978:	40 81 00 0c 	ble-    1803984 <radio_control_task+0xaf4>
 180397c:	38 00 00 00 	li      r0,0
 1803980:	98 04 00 00 	stb     r0,0(r4)
 1803984:	89 24 00 00 	lbz     r9,0(r4)
 1803988:	89 1e 00 02 	lbz     r8,2(r30)
 180398c:	88 1c 00 00 	lbz     r0,0(r28)
 1803990:	89 7b 00 00 	lbz     r11,0(r27)
 1803994:	38 e9 00 01 	addi    r7,r9,1
 1803998:	7c c0 42 14 	add     r6,r0,r8
 180399c:	54 ea 06 3e 	clrlwi  r10,r7,24
 18039a0:	55 29 06 3e 	clrlwi  r9,r9,24
 18039a4:	7d 03 49 ae 	stbx    r8,r3,r9
 18039a8:	7c ab 32 14 	add     r5,r11,r6
 18039ac:	28 0a 00 fe 	cmplwi  r10,254
 18039b0:	98 dc 00 00 	stb     r6,0(r28)
 18039b4:	98 bb 00 00 	stb     r5,0(r27)
 18039b8:	98 e4 00 00 	stb     r7,0(r4)
 18039bc:	40 81 00 0c 	ble-    18039c8 <radio_control_task+0xb38>
 18039c0:	38 00 00 00 	li      r0,0
 18039c4:	98 04 00 00 	stb     r0,0(r4)
 18039c8:	89 24 00 00 	lbz     r9,0(r4)
 18039cc:	89 7e 00 03 	lbz     r11,3(r30)
 18039d0:	39 49 00 01 	addi    r10,r9,1
 18039d4:	7c e6 5a 14 	add     r7,r6,r11
 18039d8:	55 40 06 3e 	clrlwi  r0,r10,24
 18039dc:	55 29 06 3e 	clrlwi  r9,r9,24
 18039e0:	7d 63 49 ae 	stbx    r11,r3,r9
 18039e4:	7c c5 3a 14 	add     r6,r5,r7
 18039e8:	28 00 00 fe 	cmplwi  r0,254
 18039ec:	98 fc 00 00 	stb     r7,0(r28)
 18039f0:	98 db 00 00 	stb     r6,0(r27)
 18039f4:	99 44 00 00 	stb     r10,0(r4)
 18039f8:	40 81 00 0c 	ble-    1803a04 <radio_control_task+0xb74>
 18039fc:	38 00 00 00 	li      r0,0
 1803a00:	98 04 00 00 	stb     r0,0(r4)
 1803a04:	89 64 00 00 	lbz     r11,0(r4)
 1803a08:	3d 20 01 82 	lis     r9,386
 1803a0c:	89 49 a3 6a 	lbz     r10,-23702(r9)
 1803a10:	39 0b 00 01 	addi    r8,r11,1
 1803a14:	7c e7 52 14 	add     r7,r7,r10
 1803a18:	55 00 06 3e 	clrlwi  r0,r8,24
 1803a1c:	55 6b 06 3e 	clrlwi  r11,r11,24
 1803a20:	7d 43 59 ae 	stbx    r10,r3,r11
 1803a24:	7c c6 3a 14 	add     r6,r6,r7
 1803a28:	28 00 00 fe 	cmplwi  r0,254
 1803a2c:	98 fc 00 00 	stb     r7,0(r28)
 1803a30:	98 db 00 00 	stb     r6,0(r27)
 1803a34:	38 a9 a3 6a 	addi    r5,r9,-23702
 1803a38:	99 04 00 00 	stb     r8,0(r4)
 1803a3c:	40 81 00 0c 	ble-    1803a48 <radio_control_task+0xbb8>
 1803a40:	38 00 00 00 	li      r0,0
 1803a44:	98 04 00 00 	stb     r0,0(r4)
 1803a48:	89 24 00 00 	lbz     r9,0(r4)
 1803a4c:	89 65 00 01 	lbz     r11,1(r5)
 1803a50:	39 49 00 01 	addi    r10,r9,1
 1803a54:	7c e7 5a 14 	add     r7,r7,r11
 1803a58:	55 40 06 3e 	clrlwi  r0,r10,24
 1803a5c:	55 29 06 3e 	clrlwi  r9,r9,24
 1803a60:	7d 63 49 ae 	stbx    r11,r3,r9
 1803a64:	7c c6 3a 14 	add     r6,r6,r7
 1803a68:	28 00 00 fe 	cmplwi  r0,254
 1803a6c:	98 fc 00 00 	stb     r7,0(r28)
 1803a70:	98 db 00 00 	stb     r6,0(r27)
 1803a74:	99 44 00 00 	stb     r10,0(r4)
 1803a78:	40 81 00 0c 	ble-    1803a84 <radio_control_task+0xbf4>
 1803a7c:	38 00 00 00 	li      r0,0
 1803a80:	98 04 00 00 	stb     r0,0(r4)
 1803a84:	89 64 00 00 	lbz     r11,0(r4)
 1803a88:	3d 20 01 82 	lis     r9,386
 1803a8c:	89 49 a3 6c 	lbz     r10,-23700(r9)
 1803a90:	39 0b 00 01 	addi    r8,r11,1
 1803a94:	7c e7 52 14 	add     r7,r7,r10
 1803a98:	55 00 06 3e 	clrlwi  r0,r8,24
 1803a9c:	55 6b 06 3e 	clrlwi  r11,r11,24
 1803aa0:	7d 43 59 ae 	stbx    r10,r3,r11
 1803aa4:	7c c6 3a 14 	add     r6,r6,r7
 1803aa8:	28 00 00 fe 	cmplwi  r0,254
 1803aac:	98 fc 00 00 	stb     r7,0(r28)
 1803ab0:	98 db 00 00 	stb     r6,0(r27)
 1803ab4:	38 a9 a3 6c 	addi    r5,r9,-23700
 1803ab8:	99 04 00 00 	stb     r8,0(r4)
 1803abc:	40 81 00 0c 	ble-    1803ac8 <radio_control_task+0xc38>
 1803ac0:	38 00 00 00 	li      r0,0
 1803ac4:	98 04 00 00 	stb     r0,0(r4)
 1803ac8:	89 24 00 00 	lbz     r9,0(r4)
 1803acc:	89 65 00 01 	lbz     r11,1(r5)
 1803ad0:	39 49 00 01 	addi    r10,r9,1
 1803ad4:	7d 07 5a 14 	add     r8,r7,r11
 1803ad8:	55 40 06 3e 	clrlwi  r0,r10,24
 1803adc:	55 29 06 3e 	clrlwi  r9,r9,24
 1803ae0:	7d 63 49 ae 	stbx    r11,r3,r9
 1803ae4:	7c e6 42 14 	add     r7,r6,r8
 1803ae8:	28 00 00 fe 	cmplwi  r0,254
 1803aec:	99 1c 00 00 	stb     r8,0(r28)
 1803af0:	98 fb 00 00 	stb     r7,0(r27)
 1803af4:	99 44 00 00 	stb     r10,0(r4)
 1803af8:	40 81 00 0c 	ble-    1803b04 <radio_control_task+0xc74>
 1803afc:	38 00 00 00 	li      r0,0
 1803b00:	98 04 00 00 	stb     r0,0(r4)
 1803b04:	89 24 00 00 	lbz     r9,0(r4)
 1803b08:	39 69 00 01 	addi    r11,r9,1
 1803b0c:	55 60 06 3e 	clrlwi  r0,r11,24
 1803b10:	55 29 06 3e 	clrlwi  r9,r9,24
 1803b14:	28 00 00 fe 	cmplwi  r0,254
 1803b18:	7d 03 49 ae 	stbx    r8,r3,r9
 1803b1c:	99 64 00 00 	stb     r11,0(r4)
 1803b20:	40 81 00 0c 	ble-    1803b2c <radio_control_task+0xc9c>
 1803b24:	38 00 00 00 	li      r0,0
 1803b28:	98 04 00 00 	stb     r0,0(r4)
 1803b2c:	89 24 00 00 	lbz     r9,0(r4)
 1803b30:	39 69 00 01 	addi    r11,r9,1
 1803b34:	55 60 06 3e 	clrlwi  r0,r11,24
 1803b38:	55 29 06 3e 	clrlwi  r9,r9,24
 1803b3c:	28 00 00 fe 	cmplwi  r0,254
 1803b40:	7c e3 49 ae 	stbx    r7,r3,r9
 1803b44:	99 64 00 00 	stb     r11,0(r4)
 1803b48:	40 81 00 0c 	ble-    1803b54 <radio_control_task+0xcc4>
 1803b4c:	38 00 00 00 	li      r0,0
 1803b50:	98 04 00 00 	stb     r0,0(r4)
 1803b54:	38 c0 00 59 	li      r6,89
 1803b58:	88 06 00 00 	lbz     r0,0(r6)
 1803b5c:	70 07 00 10 	andi.   r7,r0,16
 1803b60:	40 82 00 6c 	bne-    1803bcc <radio_control_task+0xd3c>
 1803b64:	3d 60 01 82 	lis     r11,386
 1803b68:	88 0b a3 fa 	lbz     r0,-23558(r11)
 1803b6c:	89 2b a3 fa 	lbz     r9,-23558(r11)
 1803b70:	7d 03 00 ae 	lbzx    r8,r3,r0
 1803b74:	39 29 00 01 	addi    r9,r9,1
 1803b78:	99 2b a3 fa 	stb     r9,-23558(r11)
 1803b7c:	88 0b a3 fa 	lbz     r0,-23558(r11)
 1803b80:	3d 40 01 82 	lis     r10,386
 1803b84:	28 00 00 fe 	cmplwi  r0,254
 1803b88:	3d 20 01 82 	lis     r9,386
 1803b8c:	99 0a a3 f8 	stb     r8,-23560(r10)
 1803b90:	98 e9 a3 fb 	stb     r7,-23557(r9)
 1803b94:	40 81 00 08 	ble-    1803b9c <radio_control_task+0xd0c>
 1803b98:	98 fa a3 fa 	stb     r7,-23558(r26)
 1803b9c:	39 20 00 58 	li      r9,88
 1803ba0:	88 09 00 00 	lbz     r0,0(r9)
 1803ba4:	60 00 00 01 	ori     r0,r0,1
 1803ba8:	98 09 00 00 	stb     r0,0(r9)
 1803bac:	89 66 00 00 	lbz     r11,0(r6)
 1803bb0:	61 6b 00 10 	ori     r11,r11,16
 1803bb4:	99 66 00 00 	stb     r11,0(r6)
 1803bb8:	48 00 00 14 	b       1803bcc <radio_control_task+0xd3c>
 1803bbc:	3d 60 01 82 	lis     r11,386
 1803bc0:	89 2b a3 f7 	lbz     r9,-23561(r11)
 1803bc4:	39 29 00 01 	addi    r9,r9,1
 1803bc8:	99 2b a3 f7 	stb     r9,-23561(r11)
 1803bcc:	3d 20 01 82 	lis     r9,386
 1803bd0:	89 09 a3 f9 	lbz     r8,-23559(r9)
 1803bd4:	3d 60 01 82 	lis     r11,386
 1803bd8:	89 2b a3 fa 	lbz     r9,-23558(r11)
 1803bdc:	3d 40 01 82 	lis     r10,386
 1803be0:	7c 08 48 40 	cmplw   r8,r9
 1803be4:	38 00 00 02 	li      r0,2
 1803be8:	98 0a a3 4e 	stb     r0,-23730(r10)
 1803bec:	41 80 00 1c 	blt-    1803c08 <radio_control_task+0xd78>
 1803bf0:	88 1a a3 fa 	lbz     r0,-23558(r26)
 1803bf4:	7c 00 40 50 	subf    r0,r0,r8
 1803bf8:	20 00 00 ff 	subfic  r0,r0,255
 1803bfc:	2c 00 00 06 	cmpwi   r0,6
 1803c00:	41 81 00 18 	bgt-    1803c18 <radio_control_task+0xd88>
 1803c04:	48 00 01 b8 	b       1803dbc <radio_control_task+0xf2c>
 1803c08:	88 1a a3 fa 	lbz     r0,-23558(r26)
 1803c0c:	7c 08 00 50 	subf    r0,r8,r0
 1803c10:	2c 00 00 06 	cmpwi   r0,6
 1803c14:	40 81 01 a8 	ble-    1803dbc <radio_control_task+0xf2c>
 1803c18:	3d 00 01 82 	lis     r8,386
 1803c1c:	89 28 a3 f9 	lbz     r9,-23559(r8)
 1803c20:	3d 60 01 82 	lis     r11,386
 1803c24:	39 49 00 01 	addi    r10,r9,1
 1803c28:	55 40 06 3e 	clrlwi  r0,r10,24
 1803c2c:	28 00 00 fe 	cmplwi  r0,254
 1803c30:	38 ab a8 b4 	addi    r5,r11,-22348
 1803c34:	55 29 06 3e 	clrlwi  r9,r9,24
 1803c38:	38 00 00 05 	li      r0,5
 1803c3c:	7c 05 49 ae 	stbx    r0,r5,r9
 1803c40:	99 48 a3 f9 	stb     r10,-23559(r8)
 1803c44:	40 81 00 0c 	ble-    1803c50 <radio_control_task+0xdc0>
 1803c48:	38 00 00 00 	li      r0,0
 1803c4c:	98 0c a3 f9 	stb     r0,-23559(r12)
 1803c50:	89 2c a3 f9 	lbz     r9,-23559(r12)
 1803c54:	39 40 00 03 	li      r10,3
 1803c58:	39 69 00 01 	addi    r11,r9,1
 1803c5c:	55 60 06 3e 	clrlwi  r0,r11,24
 1803c60:	55 29 06 3e 	clrlwi  r9,r9,24
 1803c64:	28 00 00 fe 	cmplwi  r0,254
 1803c68:	7d 45 49 ae 	stbx    r10,r5,r9
 1803c6c:	99 6c a3 f9 	stb     r11,-23559(r12)
 1803c70:	40 81 00 0c 	ble-    1803c7c <radio_control_task+0xdec>
 1803c74:	38 00 00 00 	li      r0,0
 1803c78:	98 0c a3 f9 	stb     r0,-23559(r12)
 1803c7c:	89 6c a3 f9 	lbz     r11,-23559(r12)
 1803c80:	3d 40 01 82 	lis     r10,386
 1803c84:	39 0b 00 01 	addi    r8,r11,1
 1803c88:	89 2a a3 68 	lbz     r9,-23704(r10)
 1803c8c:	55 00 06 3e 	clrlwi  r0,r8,24
 1803c90:	55 6b 06 3e 	clrlwi  r11,r11,24
 1803c94:	28 00 00 fe 	cmplwi  r0,254
 1803c98:	7d 25 59 ae 	stbx    r9,r5,r11
 1803c9c:	38 c9 00 06 	addi    r6,r9,6
 1803ca0:	38 e9 00 03 	addi    r7,r9,3
 1803ca4:	3c 80 01 82 	lis     r4,386
 1803ca8:	3c 60 01 82 	lis     r3,386
 1803cac:	3b ea a3 68 	addi    r31,r10,-23704
 1803cb0:	98 e4 a3 fc 	stb     r7,-23556(r4)
 1803cb4:	98 c3 a3 f6 	stb     r6,-23562(r3)
 1803cb8:	99 0c a3 f9 	stb     r8,-23559(r12)
 1803cbc:	40 81 00 0c 	ble-    1803cc8 <radio_control_task+0xe38>
 1803cc0:	38 00 00 00 	li      r0,0
 1803cc4:	98 0c a3 f9 	stb     r0,-23559(r12)
 1803cc8:	89 2c a3 f9 	lbz     r9,-23559(r12)
 1803ccc:	89 7f 00 01 	lbz     r11,1(r31)
 1803cd0:	39 49 00 01 	addi    r10,r9,1
 1803cd4:	55 40 06 3e 	clrlwi  r0,r10,24
 1803cd8:	7d 07 5a 14 	add     r8,r7,r11
 1803cdc:	55 29 06 3e 	clrlwi  r9,r9,24
 1803ce0:	28 00 00 fe 	cmplwi  r0,254
 1803ce4:	7d 65 49 ae 	stbx    r11,r5,r9
 1803ce8:	7c e6 42 14 	add     r7,r6,r8
 1803cec:	99 04 a3 fc 	stb     r8,-23556(r4)
 1803cf0:	98 e3 a3 f6 	stb     r7,-23562(r3)
 1803cf4:	99 4c a3 f9 	stb     r10,-23559(r12)
 1803cf8:	40 81 00 0c 	ble-    1803d04 <radio_control_task+0xe74>
 1803cfc:	38 00 00 00 	li      r0,0
 1803d00:	98 0c a3 f9 	stb     r0,-23559(r12)
 1803d04:	89 2c a3 f9 	lbz     r9,-23559(r12)
 1803d08:	39 69 00 01 	addi    r11,r9,1
 1803d0c:	55 60 06 3e 	clrlwi  r0,r11,24
 1803d10:	55 29 06 3e 	clrlwi  r9,r9,24
 1803d14:	28 00 00 fe 	cmplwi  r0,254
 1803d18:	7d 05 49 ae 	stbx    r8,r5,r9
 1803d1c:	99 6c a3 f9 	stb     r11,-23559(r12)
 1803d20:	40 81 00 0c 	ble-    1803d2c <radio_control_task+0xe9c>
 1803d24:	38 00 00 00 	li      r0,0
 1803d28:	98 0c a3 f9 	stb     r0,-23559(r12)
 1803d2c:	89 2c a3 f9 	lbz     r9,-23559(r12)
 1803d30:	39 69 00 01 	addi    r11,r9,1
 1803d34:	55 60 06 3e 	clrlwi  r0,r11,24
 1803d38:	55 29 06 3e 	clrlwi  r9,r9,24
 1803d3c:	28 00 00 fe 	cmplwi  r0,254
 1803d40:	7c e5 49 ae 	stbx    r7,r5,r9
 1803d44:	99 6c a3 f9 	stb     r11,-23559(r12)
 1803d48:	40 81 00 0c 	ble-    1803d54 <radio_control_task+0xec4>
 1803d4c:	38 00 00 00 	li      r0,0
 1803d50:	98 0c a3 f9 	stb     r0,-23559(r12)
 1803d54:	38 c0 00 59 	li      r6,89
 1803d58:	88 06 00 00 	lbz     r0,0(r6)
 1803d5c:	70 07 00 10 	andi.   r7,r0,16
 1803d60:	40 82 00 6c 	bne-    1803dcc <radio_control_task+0xf3c>
 1803d64:	3d 60 01 82 	lis     r11,386
 1803d68:	88 0b a3 fa 	lbz     r0,-23558(r11)
 1803d6c:	89 2b a3 fa 	lbz     r9,-23558(r11)
 1803d70:	7d 05 00 ae 	lbzx    r8,r5,r0
 1803d74:	39 29 00 01 	addi    r9,r9,1
 1803d78:	99 2b a3 fa 	stb     r9,-23558(r11)
 1803d7c:	88 0b a3 fa 	lbz     r0,-23558(r11)
 1803d80:	3d 40 01 82 	lis     r10,386
 1803d84:	28 00 00 fe 	cmplwi  r0,254
 1803d88:	3d 20 01 82 	lis     r9,386
 1803d8c:	99 0a a3 f8 	stb     r8,-23560(r10)
 1803d90:	98 e9 a3 fb 	stb     r7,-23557(r9)
 1803d94:	40 81 00 08 	ble-    1803d9c <radio_control_task+0xf0c>
 1803d98:	98 fa a3 fa 	stb     r7,-23558(r26)
 1803d9c:	39 20 00 58 	li      r9,88
 1803da0:	88 09 00 00 	lbz     r0,0(r9)
 1803da4:	60 00 00 01 	ori     r0,r0,1
 1803da8:	98 09 00 00 	stb     r0,0(r9)
 1803dac:	89 66 00 00 	lbz     r11,0(r6)
 1803db0:	61 6b 00 10 	ori     r11,r11,16
 1803db4:	99 66 00 00 	stb     r11,0(r6)
 1803db8:	48 00 00 14 	b       1803dcc <radio_control_task+0xf3c>
 1803dbc:	3d 60 01 82 	lis     r11,386
 1803dc0:	89 2b a3 f7 	lbz     r9,-23561(r11)
 1803dc4:	39 29 00 01 	addi    r9,r9,1
 1803dc8:	99 2b a3 f7 	stb     r9,-23561(r11)
 1803dcc:	3d 20 01 82 	lis     r9,386
 1803dd0:	88 09 a3 46 	lbz     r0,-23738(r9)
 1803dd4:	2c 00 00 02 	cmpwi   r0,2
 1803dd8:	40 82 00 20 	bne-    1803df8 <radio_control_task+0xf68>
 1803ddc:	3d 20 01 82 	lis     r9,386
 1803de0:	a8 09 a9 ca 	lha     r0,-22070(r9)
 1803de4:	2c 00 21 c0 	cmpwi   r0,8640
 1803de8:	40 81 00 10 	ble-    1803df8 <radio_control_task+0xf68>
 1803dec:	3d 20 01 82 	lis     r9,386
 1803df0:	38 00 00 01 	li      r0,1
 1803df4:	98 09 a3 4c 	stb     r0,-23732(r9)
 1803df8:	80 01 00 34 	lwz     r0,52(r1)
 1803dfc:	7c 08 03 a6 	mtlr    r0
 1803e00:	83 41 00 18 	lwz     r26,24(r1)
 1803e04:	83 61 00 1c 	lwz     r27,28(r1)
 1803e08:	83 81 00 20 	lwz     r28,32(r1)
 1803e0c:	83 a1 00 24 	lwz     r29,36(r1)
 1803e10:	83 c1 00 28 	lwz     r30,40(r1)
 1803e14:	83 e1 00 2c 	lwz     r31,44(r1)
 1803e18:	38 21 00 30 	addi    r1,r1,48
 1803e1c:	4e 80 00 20 	blr

01803e20 <navigation_update>:
 1803e20:	94 21 ff f0 	stwu    r1,-16(r1)
 1803e24:	7c 08 02 a6 	mflr    r0
 1803e28:	90 01 00 14 	stw     r0,20(r1)
 1803e2c:	3d 20 01 82 	lis     r9,386
 1803e30:	89 69 a3 46 	lbz     r11,-23738(r9)
 1803e34:	3d 40 01 82 	lis     r10,386
 1803e38:	2c 0b 00 03 	cmpwi   r11,3
 1803e3c:	38 00 00 03 	li      r0,3
 1803e40:	98 0a a3 48 	stb     r0,-23736(r10)
 1803e44:	40 82 00 0c 	bne-    1803e50 <navigation_update+0x30>
 1803e48:	48 00 3b 25 	bl      180796c <nav_home>
 1803e4c:	48 00 00 08 	b       1803e54 <navigation_update+0x34>
 1803e50:	48 00 3d 9d 	bl      1807bec <nav_update>
 1803e54:	80 01 00 14 	lwz     r0,20(r1)
 1803e58:	7c 08 03 a6 	mtlr    r0
 1803e5c:	38 21 00 10 	addi    r1,r1,16
 1803e60:	4e 80 00 20 	blr

01803e64 <send_nav_values>:
 1803e64:	94 21 ff e0 	stwu    r1,-32(r1)
 1803e68:	93 61 00 0c 	stw     r27,12(r1)
 1803e6c:	93 81 00 10 	stw     r28,16(r1)
 1803e70:	93 a1 00 14 	stw     r29,20(r1)
 1803e74:	93 c1 00 18 	stw     r30,24(r1)
 1803e78:	93 e1 00 1c 	stw     r31,28(r1)
 1803e7c:	3d 20 01 82 	lis     r9,386
 1803e80:	3d 60 01 82 	lis     r11,386
 1803e84:	89 29 a3 f9 	lbz     r9,-23559(r9)
 1803e88:	88 0b a3 fa 	lbz     r0,-23558(r11)
 1803e8c:	3c c0 01 82 	lis     r6,386
 1803e90:	7c 09 00 40 	cmplw   r9,r0
 1803e94:	3f 60 01 82 	lis     r27,386
 1803e98:	41 80 00 1c 	blt-    1803eb4 <send_nav_values+0x50>
 1803e9c:	88 1b a3 fa 	lbz     r0,-23558(r27)
 1803ea0:	7c 00 48 50 	subf    r0,r0,r9
 1803ea4:	20 00 00 ff 	subfic  r0,r0,255
 1803ea8:	2c 00 00 1e 	cmpwi   r0,30
 1803eac:	41 81 00 18 	bgt-    1803ec4 <send_nav_values+0x60>
 1803eb0:	48 00 07 9c 	b       180464c <send_nav_values+0x7e8>
 1803eb4:	88 1b a3 fa 	lbz     r0,-23558(r27)
 1803eb8:	7c 09 00 50 	subf    r0,r9,r0
 1803ebc:	2c 00 00 1e 	cmpwi   r0,30
 1803ec0:	40 81 07 8c 	ble-    180464c <send_nav_values+0x7e8>
 1803ec4:	3d 60 01 82 	lis     r11,386
 1803ec8:	89 2b a3 f9 	lbz     r9,-23559(r11)
 1803ecc:	3d 40 01 82 	lis     r10,386
 1803ed0:	39 09 00 01 	addi    r8,r9,1
 1803ed4:	55 00 06 3e 	clrlwi  r0,r8,24
 1803ed8:	28 00 00 fe 	cmplwi  r0,254
 1803edc:	38 6a a8 b4 	addi    r3,r10,-22348
 1803ee0:	55 29 06 3e 	clrlwi  r9,r9,24
 1803ee4:	38 00 00 05 	li      r0,5
 1803ee8:	7c 03 49 ae 	stbx    r0,r3,r9
 1803eec:	38 ab a3 f9 	addi    r5,r11,-23559
 1803ef0:	99 0b a3 f9 	stb     r8,-23559(r11)
 1803ef4:	40 81 00 0c 	ble-    1803f00 <send_nav_values+0x9c>
 1803ef8:	38 00 00 00 	li      r0,0
 1803efc:	98 06 a3 f9 	stb     r0,-23559(r6)
 1803f00:	89 26 a3 f9 	lbz     r9,-23559(r6)
 1803f04:	39 40 00 0a 	li      r10,10
 1803f08:	39 69 00 01 	addi    r11,r9,1
 1803f0c:	55 60 06 3e 	clrlwi  r0,r11,24
 1803f10:	55 29 06 3e 	clrlwi  r9,r9,24
 1803f14:	28 00 00 fe 	cmplwi  r0,254
 1803f18:	7d 43 49 ae 	stbx    r10,r3,r9
 1803f1c:	99 66 a3 f9 	stb     r11,-23559(r6)
 1803f20:	40 81 00 0c 	ble-    1803f2c <send_nav_values+0xc8>
 1803f24:	38 00 00 00 	li      r0,0
 1803f28:	98 06 a3 f9 	stb     r0,-23559(r6)
 1803f2c:	89 46 a3 f9 	lbz     r10,-23559(r6)
 1803f30:	3d 20 01 82 	lis     r9,386
 1803f34:	39 0a 00 01 	addi    r8,r10,1
 1803f38:	89 69 a4 88 	lbz     r11,-23416(r9)
 1803f3c:	55 00 06 3e 	clrlwi  r0,r8,24
 1803f40:	55 4a 06 3e 	clrlwi  r10,r10,24
 1803f44:	28 00 00 fe 	cmplwi  r0,254
 1803f48:	7d 63 51 ae 	stbx    r11,r3,r10
 1803f4c:	3f e0 01 82 	lis     r31,386
 1803f50:	3d 80 01 82 	lis     r12,386
 1803f54:	38 8b 00 14 	addi    r4,r11,20
 1803f58:	38 eb 00 0a 	addi    r7,r11,10
 1803f5c:	3b df a3 fc 	addi    r30,r31,-23556
 1803f60:	3b ac a3 f6 	addi    r29,r12,-23562
 1803f64:	98 ff a3 fc 	stb     r7,-23556(r31)
 1803f68:	98 8c a3 f6 	stb     r4,-23562(r12)
 1803f6c:	99 06 a3 f9 	stb     r8,-23559(r6)
 1803f70:	40 81 00 0c 	ble-    1803f7c <send_nav_values+0x118>
 1803f74:	38 00 00 00 	li      r0,0
 1803f78:	98 06 a3 f9 	stb     r0,-23559(r6)
 1803f7c:	89 66 a3 f9 	lbz     r11,-23559(r6)
 1803f80:	3d 20 01 82 	lis     r9,386
 1803f84:	39 0b 00 01 	addi    r8,r11,1
 1803f88:	89 49 a4 94 	lbz     r10,-23404(r9)
 1803f8c:	55 00 06 3e 	clrlwi  r0,r8,24
 1803f90:	7c e7 52 14 	add     r7,r7,r10
 1803f94:	55 6b 06 3e 	clrlwi  r11,r11,24
 1803f98:	28 00 00 fe 	cmplwi  r0,254
 1803f9c:	7d 43 59 ae 	stbx    r10,r3,r11
 1803fa0:	7c 84 3a 14 	add     r4,r4,r7
 1803fa4:	98 ff a3 fc 	stb     r7,-23556(r31)
 1803fa8:	98 8c a3 f6 	stb     r4,-23562(r12)
 1803fac:	99 06 a3 f9 	stb     r8,-23559(r6)
 1803fb0:	40 81 00 0c 	ble-    1803fbc <send_nav_values+0x158>
 1803fb4:	38 00 00 00 	li      r0,0
 1803fb8:	98 06 a3 f9 	stb     r0,-23559(r6)
 1803fbc:	89 66 a3 f9 	lbz     r11,-23559(r6)
 1803fc0:	3d 20 01 82 	lis     r9,386
 1803fc4:	39 0b 00 01 	addi    r8,r11,1
 1803fc8:	89 49 a4 e4 	lbz     r10,-23324(r9)
 1803fcc:	55 00 06 3e 	clrlwi  r0,r8,24
 1803fd0:	7c e7 52 14 	add     r7,r7,r10
 1803fd4:	55 6b 06 3e 	clrlwi  r11,r11,24
 1803fd8:	28 00 00 fe 	cmplwi  r0,254
 1803fdc:	7d 43 59 ae 	stbx    r10,r3,r11
 1803fe0:	7c 84 3a 14 	add     r4,r4,r7
 1803fe4:	3b 89 a4 e4 	addi    r28,r9,-23324
 1803fe8:	98 ff a3 fc 	stb     r7,-23556(r31)
 1803fec:	98 8c a3 f6 	stb     r4,-23562(r12)
 1803ff0:	99 06 a3 f9 	stb     r8,-23559(r6)
 1803ff4:	40 81 00 0c 	ble-    1804000 <send_nav_values+0x19c>
 1803ff8:	38 00 00 00 	li      r0,0
 1803ffc:	98 06 a3 f9 	stb     r0,-23559(r6)
 1804000:	89 26 a3 f9 	lbz     r9,-23559(r6)
 1804004:	89 7c 00 01 	lbz     r11,1(r28)
 1804008:	39 49 00 01 	addi    r10,r9,1
 180400c:	55 40 06 3e 	clrlwi  r0,r10,24
 1804010:	7d 07 5a 14 	add     r8,r7,r11
 1804014:	55 29 06 3e 	clrlwi  r9,r9,24
 1804018:	28 00 00 fe 	cmplwi  r0,254
 180401c:	7d 63 49 ae 	stbx    r11,r3,r9
 1804020:	7c e4 42 14 	add     r7,r4,r8
 1804024:	99 1f a3 fc 	stb     r8,-23556(r31)
 1804028:	98 ec a3 f6 	stb     r7,-23562(r12)
 180402c:	99 46 a3 f9 	stb     r10,-23559(r6)
 1804030:	40 81 00 0c 	ble-    180403c <send_nav_values+0x1d8>
 1804034:	38 00 00 00 	li      r0,0
 1804038:	98 06 a3 f9 	stb     r0,-23559(r6)
 180403c:	89 26 a3 f9 	lbz     r9,-23559(r6)
 1804040:	89 7c 00 02 	lbz     r11,2(r28)
 1804044:	39 49 00 01 	addi    r10,r9,1
 1804048:	55 40 06 3e 	clrlwi  r0,r10,24
 180404c:	7d 08 5a 14 	add     r8,r8,r11
 1804050:	55 29 06 3e 	clrlwi  r9,r9,24
 1804054:	28 00 00 fe 	cmplwi  r0,254
 1804058:	7d 63 49 ae 	stbx    r11,r3,r9
 180405c:	7c 87 42 14 	add     r4,r7,r8
 1804060:	99 1f a3 fc 	stb     r8,-23556(r31)
 1804064:	98 8c a3 f6 	stb     r4,-23562(r12)
 1804068:	99 46 a3 f9 	stb     r10,-23559(r6)
 180406c:	40 81 00 0c 	ble-    1804078 <send_nav_values+0x214>
 1804070:	38 00 00 00 	li      r0,0
 1804074:	98 06 a3 f9 	stb     r0,-23559(r6)
 1804078:	89 26 a3 f9 	lbz     r9,-23559(r6)
 180407c:	89 7c 00 03 	lbz     r11,3(r28)
 1804080:	39 49 00 01 	addi    r10,r9,1
 1804084:	55 40 06 3e 	clrlwi  r0,r10,24
 1804088:	7c e8 5a 14 	add     r7,r8,r11
 180408c:	55 29 06 3e 	clrlwi  r9,r9,24
 1804090:	28 00 00 fe 	cmplwi  r0,254
 1804094:	7d 63 49 ae 	stbx    r11,r3,r9
 1804098:	7c 84 3a 14 	add     r4,r4,r7
 180409c:	98 ff a3 fc 	stb     r7,-23556(r31)
 18040a0:	98 8c a3 f6 	stb     r4,-23562(r12)
 18040a4:	99 46 a3 f9 	stb     r10,-23559(r6)
 18040a8:	40 81 00 0c 	ble-    18040b4 <send_nav_values+0x250>
 18040ac:	38 00 00 00 	li      r0,0
 18040b0:	98 06 a3 f9 	stb     r0,-23559(r6)
 18040b4:	89 66 a3 f9 	lbz     r11,-23559(r6)
 18040b8:	3d 20 01 82 	lis     r9,386
 18040bc:	39 0b 00 01 	addi    r8,r11,1
 18040c0:	89 49 a4 f8 	lbz     r10,-23304(r9)
 18040c4:	55 00 06 3e 	clrlwi  r0,r8,24
 18040c8:	7c e7 52 14 	add     r7,r7,r10
 18040cc:	55 6b 06 3e 	clrlwi  r11,r11,24
 18040d0:	28 00 00 fe 	cmplwi  r0,254
 18040d4:	7d 43 59 ae 	stbx    r10,r3,r11
 18040d8:	7c 84 3a 14 	add     r4,r4,r7
 18040dc:	3b 89 a4 f8 	addi    r28,r9,-23304
 18040e0:	98 ff a3 fc 	stb     r7,-23556(r31)
 18040e4:	98 8c a3 f6 	stb     r4,-23562(r12)
 18040e8:	99 06 a3 f9 	stb     r8,-23559(r6)
 18040ec:	40 81 00 0c 	ble-    18040f8 <send_nav_values+0x294>
 18040f0:	38 00 00 00 	li      r0,0
 18040f4:	98 06 a3 f9 	stb     r0,-23559(r6)
 18040f8:	89 26 a3 f9 	lbz     r9,-23559(r6)
 18040fc:	89 7c 00 01 	lbz     r11,1(r28)
 1804100:	39 49 00 01 	addi    r10,r9,1
 1804104:	55 40 06 3e 	clrlwi  r0,r10,24
 1804108:	7d 07 5a 14 	add     r8,r7,r11
 180410c:	55 29 06 3e 	clrlwi  r9,r9,24
 1804110:	28 00 00 fe 	cmplwi  r0,254
 1804114:	7d 63 49 ae 	stbx    r11,r3,r9
 1804118:	7c e4 42 14 	add     r7,r4,r8
 180411c:	99 1f a3 fc 	stb     r8,-23556(r31)
 1804120:	98 ec a3 f6 	stb     r7,-23562(r12)
 1804124:	99 46 a3 f9 	stb     r10,-23559(r6)
 1804128:	40 81 00 0c 	ble-    1804134 <send_nav_values+0x2d0>
 180412c:	38 00 00 00 	li      r0,0
 1804130:	98 06 a3 f9 	stb     r0,-23559(r6)
 1804134:	89 25 00 00 	lbz     r9,0(r5)
 1804138:	89 7c 00 02 	lbz     r11,2(r28)
 180413c:	39 49 00 01 	addi    r10,r9,1
 1804140:	7c c8 5a 14 	add     r6,r8,r11
 1804144:	55 40 06 3e 	clrlwi  r0,r10,24
 1804148:	55 29 06 3e 	clrlwi  r9,r9,24
 180414c:	7d 63 49 ae 	stbx    r11,r3,r9
 1804150:	7c 87 32 14 	add     r4,r7,r6
 1804154:	28 00 00 fe 	cmplwi  r0,254
 1804158:	98 df a3 fc 	stb     r6,-23556(r31)
 180415c:	98 8c a3 f6 	stb     r4,-23562(r12)
 1804160:	99 45 00 00 	stb     r10,0(r5)
 1804164:	40 81 00 0c 	ble-    1804170 <send_nav_values+0x30c>
 1804168:	38 00 00 00 	li      r0,0
 180416c:	98 05 00 00 	stb     r0,0(r5)
 1804170:	89 1c 00 03 	lbz     r8,3(r28)
 1804174:	89 25 00 00 	lbz     r9,0(r5)
 1804178:	7d 46 42 14 	add     r10,r6,r8
 180417c:	38 e9 00 01 	addi    r7,r9,1
 1804180:	7d 64 52 14 	add     r11,r4,r10
 1804184:	99 6c a3 f6 	stb     r11,-23562(r12)
 1804188:	54 e0 06 3e 	clrlwi  r0,r7,24
 180418c:	55 29 06 3e 	clrlwi  r9,r9,24
 1804190:	7d 03 49 ae 	stbx    r8,r3,r9
 1804194:	28 00 00 fe 	cmplwi  r0,254
 1804198:	99 5f a3 fc 	stb     r10,-23556(r31)
 180419c:	98 e5 00 00 	stb     r7,0(r5)
 18041a0:	40 81 00 0c 	ble-    18041ac <send_nav_values+0x348>
 18041a4:	38 00 00 00 	li      r0,0
 18041a8:	98 05 00 00 	stb     r0,0(r5)
 18041ac:	89 65 00 00 	lbz     r11,0(r5)
 18041b0:	3d 20 01 82 	lis     r9,386
 18041b4:	89 09 a3 94 	lbz     r8,-23660(r9)
 18041b8:	88 1e 00 00 	lbz     r0,0(r30)
 18041bc:	3b e9 a3 94 	addi    r31,r9,-23660
 18041c0:	89 3d 00 00 	lbz     r9,0(r29)
 18041c4:	38 eb 00 01 	addi    r7,r11,1
 18041c8:	7c c0 42 14 	add     r6,r0,r8
 18041cc:	54 ea 06 3e 	clrlwi  r10,r7,24
 18041d0:	55 6b 06 3e 	clrlwi  r11,r11,24
 18041d4:	7d 03 59 ae 	stbx    r8,r3,r11
 18041d8:	7c 89 32 14 	add     r4,r9,r6
 18041dc:	28 0a 00 fe 	cmplwi  r10,254
 18041e0:	98 de 00 00 	stb     r6,0(r30)
 18041e4:	98 9d 00 00 	stb     r4,0(r29)
 18041e8:	98 e5 00 00 	stb     r7,0(r5)
 18041ec:	40 81 00 0c 	ble-    18041f8 <send_nav_values+0x394>
 18041f0:	38 00 00 00 	li      r0,0
 18041f4:	98 05 00 00 	stb     r0,0(r5)
 18041f8:	89 25 00 00 	lbz     r9,0(r5)
 18041fc:	89 7f 00 01 	lbz     r11,1(r31)
 1804200:	39 49 00 01 	addi    r10,r9,1
 1804204:	7d 06 5a 14 	add     r8,r6,r11
 1804208:	55 40 06 3e 	clrlwi  r0,r10,24
 180420c:	55 29 06 3e 	clrlwi  r9,r9,24
 1804210:	7d 63 49 ae 	stbx    r11,r3,r9
 1804214:	7c e4 42 14 	add     r7,r4,r8
 1804218:	28 00 00 fe 	cmplwi  r0,254
 180421c:	99 1e 00 00 	stb     r8,0(r30)
 1804220:	98 fd 00 00 	stb     r7,0(r29)
 1804224:	99 45 00 00 	stb     r10,0(r5)
 1804228:	40 81 00 0c 	ble-    1804234 <send_nav_values+0x3d0>
 180422c:	38 00 00 00 	li      r0,0
 1804230:	98 05 00 00 	stb     r0,0(r5)
 1804234:	89 25 00 00 	lbz     r9,0(r5)
 1804238:	89 7f 00 02 	lbz     r11,2(r31)
 180423c:	39 49 00 01 	addi    r10,r9,1
 1804240:	7d 08 5a 14 	add     r8,r8,r11
 1804244:	55 40 06 3e 	clrlwi  r0,r10,24
 1804248:	55 29 06 3e 	clrlwi  r9,r9,24
 180424c:	7d 63 49 ae 	stbx    r11,r3,r9
 1804250:	7c c7 42 14 	add     r6,r7,r8
 1804254:	28 00 00 fe 	cmplwi  r0,254
 1804258:	99 1e 00 00 	stb     r8,0(r30)
 180425c:	98 dd 00 00 	stb     r6,0(r29)
 1804260:	99 45 00 00 	stb     r10,0(r5)
 1804264:	40 81 00 0c 	ble-    1804270 <send_nav_values+0x40c>
 1804268:	38 00 00 00 	li      r0,0
 180426c:	98 05 00 00 	stb     r0,0(r5)
 1804270:	89 25 00 00 	lbz     r9,0(r5)
 1804274:	89 7f 00 03 	lbz     r11,3(r31)
 1804278:	39 49 00 01 	addi    r10,r9,1
 180427c:	7c e8 5a 14 	add     r7,r8,r11
 1804280:	55 40 06 3e 	clrlwi  r0,r10,24
 1804284:	55 29 06 3e 	clrlwi  r9,r9,24
 1804288:	7d 63 49 ae 	stbx    r11,r3,r9
 180428c:	7c c6 3a 14 	add     r6,r6,r7
 1804290:	28 00 00 fe 	cmplwi  r0,254
 1804294:	98 fe 00 00 	stb     r7,0(r30)
 1804298:	98 dd 00 00 	stb     r6,0(r29)
 180429c:	99 45 00 00 	stb     r10,0(r5)
 18042a0:	40 81 00 0c 	ble-    18042ac <send_nav_values+0x448>
 18042a4:	38 00 00 00 	li      r0,0
 18042a8:	98 05 00 00 	stb     r0,0(r5)
 18042ac:	89 65 00 00 	lbz     r11,0(r5)
 18042b0:	3d 20 01 82 	lis     r9,386
 18042b4:	89 49 a4 70 	lbz     r10,-23440(r9)
 18042b8:	39 0b 00 01 	addi    r8,r11,1
 18042bc:	7c e7 52 14 	add     r7,r7,r10
 18042c0:	55 00 06 3e 	clrlwi  r0,r8,24
 18042c4:	55 6b 06 3e 	clrlwi  r11,r11,24
 18042c8:	7d 43 59 ae 	stbx    r10,r3,r11
 18042cc:	7c c6 3a 14 	add     r6,r6,r7
 18042d0:	28 00 00 fe 	cmplwi  r0,254
 18042d4:	98 fe 00 00 	stb     r7,0(r30)
 18042d8:	98 dd 00 00 	stb     r6,0(r29)
 18042dc:	38 89 a4 70 	addi    r4,r9,-23440
 18042e0:	99 05 00 00 	stb     r8,0(r5)
 18042e4:	40 81 00 0c 	ble-    18042f0 <send_nav_values+0x48c>
 18042e8:	38 00 00 00 	li      r0,0
 18042ec:	98 05 00 00 	stb     r0,0(r5)
 18042f0:	89 25 00 00 	lbz     r9,0(r5)
 18042f4:	89 64 00 01 	lbz     r11,1(r4)
 18042f8:	39 49 00 01 	addi    r10,r9,1
 18042fc:	7d 07 5a 14 	add     r8,r7,r11
 1804300:	55 40 06 3e 	clrlwi  r0,r10,24
 1804304:	55 29 06 3e 	clrlwi  r9,r9,24
 1804308:	7d 63 49 ae 	stbx    r11,r3,r9
 180430c:	7c e6 42 14 	add     r7,r6,r8
 1804310:	28 00 00 fe 	cmplwi  r0,254
 1804314:	99 1e 00 00 	stb     r8,0(r30)
 1804318:	98 fd 00 00 	stb     r7,0(r29)
 180431c:	99 45 00 00 	stb     r10,0(r5)
 1804320:	40 81 00 0c 	ble-    180432c <send_nav_values+0x4c8>
 1804324:	38 00 00 00 	li      r0,0
 1804328:	98 05 00 00 	stb     r0,0(r5)
 180432c:	89 25 00 00 	lbz     r9,0(r5)
 1804330:	89 64 00 02 	lbz     r11,2(r4)
 1804334:	39 49 00 01 	addi    r10,r9,1
 1804338:	7d 08 5a 14 	add     r8,r8,r11
 180433c:	55 40 06 3e 	clrlwi  r0,r10,24
 1804340:	55 29 06 3e 	clrlwi  r9,r9,24
 1804344:	7d 63 49 ae 	stbx    r11,r3,r9
 1804348:	7c c7 42 14 	add     r6,r7,r8
 180434c:	28 00 00 fe 	cmplwi  r0,254
 1804350:	99 1e 00 00 	stb     r8,0(r30)
 1804354:	98 dd 00 00 	stb     r6,0(r29)
 1804358:	99 45 00 00 	stb     r10,0(r5)
 180435c:	40 81 00 0c 	ble-    1804368 <send_nav_values+0x504>
 1804360:	38 00 00 00 	li      r0,0
 1804364:	98 05 00 00 	stb     r0,0(r5)
 1804368:	89 25 00 00 	lbz     r9,0(r5)
 180436c:	89 64 00 03 	lbz     r11,3(r4)
 1804370:	39 49 00 01 	addi    r10,r9,1
 1804374:	7c e8 5a 14 	add     r7,r8,r11
 1804378:	55 40 06 3e 	clrlwi  r0,r10,24
 180437c:	55 29 06 3e 	clrlwi  r9,r9,24
 1804380:	7d 63 49 ae 	stbx    r11,r3,r9
 1804384:	7c c6 3a 14 	add     r6,r6,r7
 1804388:	28 00 00 fe 	cmplwi  r0,254
 180438c:	98 fe 00 00 	stb     r7,0(r30)
 1804390:	98 dd 00 00 	stb     r6,0(r29)
 1804394:	99 45 00 00 	stb     r10,0(r5)
 1804398:	40 81 00 0c 	ble-    18043a4 <send_nav_values+0x540>
 180439c:	38 00 00 00 	li      r0,0
 18043a0:	98 05 00 00 	stb     r0,0(r5)
 18043a4:	89 65 00 00 	lbz     r11,0(r5)
 18043a8:	3d 20 01 82 	lis     r9,386
 18043ac:	89 49 a3 90 	lbz     r10,-23664(r9)
 18043b0:	39 0b 00 01 	addi    r8,r11,1
 18043b4:	7c e7 52 14 	add     r7,r7,r10
 18043b8:	55 00 06 3e 	clrlwi  r0,r8,24
 18043bc:	55 6b 06 3e 	clrlwi  r11,r11,24
 18043c0:	7d 43 59 ae 	stbx    r10,r3,r11
 18043c4:	7c c6 3a 14 	add     r6,r6,r7
 18043c8:	28 00 00 fe 	cmplwi  r0,254
 18043cc:	98 fe 00 00 	stb     r7,0(r30)
 18043d0:	98 dd 00 00 	stb     r6,0(r29)
 18043d4:	38 89 a3 90 	addi    r4,r9,-23664
 18043d8:	99 05 00 00 	stb     r8,0(r5)
 18043dc:	40 81 00 0c 	ble-    18043e8 <send_nav_values+0x584>
 18043e0:	38 00 00 00 	li      r0,0
 18043e4:	98 05 00 00 	stb     r0,0(r5)
 18043e8:	89 25 00 00 	lbz     r9,0(r5)
 18043ec:	89 64 00 01 	lbz     r11,1(r4)
 18043f0:	39 49 00 01 	addi    r10,r9,1
 18043f4:	7d 07 5a 14 	add     r8,r7,r11
 18043f8:	55 40 06 3e 	clrlwi  r0,r10,24
 18043fc:	55 29 06 3e 	clrlwi  r9,r9,24
 1804400:	7d 63 49 ae 	stbx    r11,r3,r9
 1804404:	7c e6 42 14 	add     r7,r6,r8
 1804408:	28 00 00 fe 	cmplwi  r0,254
 180440c:	99 1e 00 00 	stb     r8,0(r30)
 1804410:	98 fd 00 00 	stb     r7,0(r29)
 1804414:	99 45 00 00 	stb     r10,0(r5)
 1804418:	40 81 00 0c 	ble-    1804424 <send_nav_values+0x5c0>
 180441c:	38 00 00 00 	li      r0,0
 1804420:	98 05 00 00 	stb     r0,0(r5)
 1804424:	89 25 00 00 	lbz     r9,0(r5)
 1804428:	89 64 00 02 	lbz     r11,2(r4)
 180442c:	39 49 00 01 	addi    r10,r9,1
 1804430:	7d 08 5a 14 	add     r8,r8,r11
 1804434:	55 40 06 3e 	clrlwi  r0,r10,24
 1804438:	55 29 06 3e 	clrlwi  r9,r9,24
 180443c:	7d 63 49 ae 	stbx    r11,r3,r9
 1804440:	7c c7 42 14 	add     r6,r7,r8
 1804444:	28 00 00 fe 	cmplwi  r0,254
 1804448:	99 1e 00 00 	stb     r8,0(r30)
 180444c:	98 dd 00 00 	stb     r6,0(r29)
 1804450:	99 45 00 00 	stb     r10,0(r5)
 1804454:	40 81 00 0c 	ble-    1804460 <send_nav_values+0x5fc>
 1804458:	38 00 00 00 	li      r0,0
 180445c:	98 05 00 00 	stb     r0,0(r5)
 1804460:	89 25 00 00 	lbz     r9,0(r5)
 1804464:	89 64 00 03 	lbz     r11,3(r4)
 1804468:	39 49 00 01 	addi    r10,r9,1
 180446c:	7c e8 5a 14 	add     r7,r8,r11
 1804470:	55 40 06 3e 	clrlwi  r0,r10,24
 1804474:	55 29 06 3e 	clrlwi  r9,r9,24
 1804478:	7d 63 49 ae 	stbx    r11,r3,r9
 180447c:	7c c6 3a 14 	add     r6,r6,r7
 1804480:	28 00 00 fe 	cmplwi  r0,254
 1804484:	98 fe 00 00 	stb     r7,0(r30)
 1804488:	98 dd 00 00 	stb     r6,0(r29)
 180448c:	99 45 00 00 	stb     r10,0(r5)
 1804490:	40 81 00 0c 	ble-    180449c <send_nav_values+0x638>
 1804494:	38 00 00 00 	li      r0,0
 1804498:	98 05 00 00 	stb     r0,0(r5)
 180449c:	89 65 00 00 	lbz     r11,0(r5)
 18044a0:	3d 20 01 82 	lis     r9,386
 18044a4:	89 49 a4 90 	lbz     r10,-23408(r9)
 18044a8:	39 0b 00 01 	addi    r8,r11,1
 18044ac:	7c e7 52 14 	add     r7,r7,r10
 18044b0:	55 00 06 3e 	clrlwi  r0,r8,24
 18044b4:	55 6b 06 3e 	clrlwi  r11,r11,24
 18044b8:	7d 43 59 ae 	stbx    r10,r3,r11
 18044bc:	7c c6 3a 14 	add     r6,r6,r7
 18044c0:	28 00 00 fe 	cmplwi  r0,254
 18044c4:	98 fe 00 00 	stb     r7,0(r30)
 18044c8:	98 dd 00 00 	stb     r6,0(r29)
 18044cc:	38 89 a4 90 	addi    r4,r9,-23408
 18044d0:	99 05 00 00 	stb     r8,0(r5)
 18044d4:	40 81 00 0c 	ble-    18044e0 <send_nav_values+0x67c>
 18044d8:	38 00 00 00 	li      r0,0
 18044dc:	98 05 00 00 	stb     r0,0(r5)
 18044e0:	89 25 00 00 	lbz     r9,0(r5)
 18044e4:	89 64 00 01 	lbz     r11,1(r4)
 18044e8:	39 49 00 01 	addi    r10,r9,1
 18044ec:	7d 07 5a 14 	add     r8,r7,r11
 18044f0:	55 40 06 3e 	clrlwi  r0,r10,24
 18044f4:	55 29 06 3e 	clrlwi  r9,r9,24
 18044f8:	7d 63 49 ae 	stbx    r11,r3,r9
 18044fc:	7c e6 42 14 	add     r7,r6,r8
 1804500:	28 00 00 fe 	cmplwi  r0,254
 1804504:	99 1e 00 00 	stb     r8,0(r30)
 1804508:	98 fd 00 00 	stb     r7,0(r29)
 180450c:	99 45 00 00 	stb     r10,0(r5)
 1804510:	40 81 00 0c 	ble-    180451c <send_nav_values+0x6b8>
 1804514:	38 00 00 00 	li      r0,0
 1804518:	98 05 00 00 	stb     r0,0(r5)
 180451c:	89 25 00 00 	lbz     r9,0(r5)
 1804520:	89 64 00 02 	lbz     r11,2(r4)
 1804524:	39 49 00 01 	addi    r10,r9,1
 1804528:	7d 08 5a 14 	add     r8,r8,r11
 180452c:	55 40 06 3e 	clrlwi  r0,r10,24
 1804530:	55 29 06 3e 	clrlwi  r9,r9,24
 1804534:	7d 63 49 ae 	stbx    r11,r3,r9
 1804538:	7c e7 42 14 	add     r7,r7,r8
 180453c:	28 00 00 fe 	cmplwi  r0,254
 1804540:	99 1e 00 00 	stb     r8,0(r30)
 1804544:	98 fd 00 00 	stb     r7,0(r29)
 1804548:	99 45 00 00 	stb     r10,0(r5)
 180454c:	40 81 00 0c 	ble-    1804558 <send_nav_values+0x6f4>
 1804550:	38 00 00 00 	li      r0,0
 1804554:	98 05 00 00 	stb     r0,0(r5)
 1804558:	89 25 00 00 	lbz     r9,0(r5)
 180455c:	89 64 00 03 	lbz     r11,3(r4)
 1804560:	39 49 00 01 	addi    r10,r9,1
 1804564:	7d 08 5a 14 	add     r8,r8,r11
 1804568:	55 40 06 3e 	clrlwi  r0,r10,24
 180456c:	55 29 06 3e 	clrlwi  r9,r9,24
 1804570:	7d 63 49 ae 	stbx    r11,r3,r9
 1804574:	7c e7 42 14 	add     r7,r7,r8
 1804578:	28 00 00 fe 	cmplwi  r0,254
 180457c:	99 1e 00 00 	stb     r8,0(r30)
 1804580:	98 fd 00 00 	stb     r7,0(r29)
 1804584:	99 45 00 00 	stb     r10,0(r5)
 1804588:	40 81 00 0c 	ble-    1804594 <send_nav_values+0x730>
 180458c:	38 00 00 00 	li      r0,0
 1804590:	98 05 00 00 	stb     r0,0(r5)
 1804594:	89 25 00 00 	lbz     r9,0(r5)
 1804598:	39 69 00 01 	addi    r11,r9,1
 180459c:	55 60 06 3e 	clrlwi  r0,r11,24
 18045a0:	55 29 06 3e 	clrlwi  r9,r9,24
 18045a4:	28 00 00 fe 	cmplwi  r0,254
 18045a8:	7d 03 49 ae 	stbx    r8,r3,r9
 18045ac:	99 65 00 00 	stb     r11,0(r5)
 18045b0:	40 81 00 0c 	ble-    18045bc <send_nav_values+0x758>
 18045b4:	38 00 00 00 	li      r0,0
 18045b8:	98 05 00 00 	stb     r0,0(r5)
 18045bc:	89 25 00 00 	lbz     r9,0(r5)
 18045c0:	39 69 00 01 	addi    r11,r9,1
 18045c4:	55 60 06 3e 	clrlwi  r0,r11,24
 18045c8:	55 29 06 3e 	clrlwi  r9,r9,24
 18045cc:	28 00 00 fe 	cmplwi  r0,254
 18045d0:	7c e3 49 ae 	stbx    r7,r3,r9
 18045d4:	99 65 00 00 	stb     r11,0(r5)
 18045d8:	40 81 00 0c 	ble-    18045e4 <send_nav_values+0x780>
 18045dc:	38 00 00 00 	li      r0,0
 18045e0:	98 05 00 00 	stb     r0,0(r5)
 18045e4:	38 c0 00 59 	li      r6,89
 18045e8:	88 06 00 00 	lbz     r0,0(r6)
 18045ec:	70 07 00 10 	andi.   r7,r0,16
 18045f0:	40 82 00 6c 	bne-    180465c <send_nav_values+0x7f8>
 18045f4:	3d 60 01 82 	lis     r11,386
 18045f8:	88 0b a3 fa 	lbz     r0,-23558(r11)
 18045fc:	89 2b a3 fa 	lbz     r9,-23558(r11)
 1804600:	7d 03 00 ae 	lbzx    r8,r3,r0
 1804604:	39 29 00 01 	addi    r9,r9,1
 1804608:	99 2b a3 fa 	stb     r9,-23558(r11)
 180460c:	88 0b a3 fa 	lbz     r0,-23558(r11)
 1804610:	3d 40 01 82 	lis     r10,386
 1804614:	28 00 00 fe 	cmplwi  r0,254
 1804618:	3d 20 01 82 	lis     r9,386
 180461c:	99 0a a3 f8 	stb     r8,-23560(r10)
 1804620:	98 e9 a3 fb 	stb     r7,-23557(r9)
 1804624:	40 81 00 08 	ble-    180462c <send_nav_values+0x7c8>
 1804628:	98 fb a3 fa 	stb     r7,-23558(r27)
 180462c:	39 20 00 58 	li      r9,88
 1804630:	88 09 00 00 	lbz     r0,0(r9)
 1804634:	60 00 00 01 	ori     r0,r0,1
 1804638:	98 09 00 00 	stb     r0,0(r9)
 180463c:	89 66 00 00 	lbz     r11,0(r6)
 1804640:	61 6b 00 10 	ori     r11,r11,16
 1804644:	99 66 00 00 	stb     r11,0(r6)
 1804648:	48 00 00 14 	b       180465c <send_nav_values+0x7f8>
 180464c:	3d 60 01 82 	lis     r11,386
 1804650:	89 2b a3 f7 	lbz     r9,-23561(r11)
 1804654:	39 29 00 01 	addi    r9,r9,1
 1804658:	99 2b a3 f7 	stb     r9,-23561(r11)
 180465c:	83 61 00 0c 	lwz     r27,12(r1)
 1804660:	83 81 00 10 	lwz     r28,16(r1)
 1804664:	83 a1 00 14 	lwz     r29,20(r1)
 1804668:	83 c1 00 18 	lwz     r30,24(r1)
 180466c:	83 e1 00 1c 	lwz     r31,28(r1)
 1804670:	38 21 00 20 	addi    r1,r1,32
 1804674:	4e 80 00 20 	blr

01804678 <course_run>:
 1804678:	94 21 ff f0 	stwu    r1,-16(r1)
 180467c:	7c 08 02 a6 	mflr    r0
 1804680:	90 01 00 14 	stw     r0,20(r1)
 1804684:	3d 60 01 82 	lis     r11,386
 1804688:	89 2b a3 46 	lbz     r9,-23738(r11)
 180468c:	39 29 ff fe 	addi    r9,r9,-2
 1804690:	28 09 00 01 	cmplwi  r9,1
 1804694:	41 81 00 28 	bgt-    18046bc <course_run+0x44>
 1804698:	3d 20 01 82 	lis     r9,386
 180469c:	88 09 a3 48 	lbz     r0,-23736(r9)
 18046a0:	28 00 00 02 	cmplwi  r0,2
 18046a4:	40 81 00 08 	ble-    18046ac <course_run+0x34>
 18046a8:	48 00 2c 39 	bl      18072e0 <course_pid_run>
 18046ac:	3d 20 01 82 	lis     r9,386
 18046b0:	c0 09 a4 84 	lfs     f0,-23420(r9)
 18046b4:	3d 60 01 82 	lis     r11,386
 18046b8:	d0 0b a3 74 	stfs    f0,-23692(r11)
 18046bc:	80 01 00 14 	lwz     r0,20(r1)
 18046c0:	7c 08 03 a6 	mtlr    r0
 18046c4:	38 21 00 10 	addi    r1,r1,16
 18046c8:	4e 80 00 20 	blr

018046cc <altitude_control_task>:
 18046cc:	94 21 ff f0 	stwu    r1,-16(r1)
 18046d0:	7c 08 02 a6 	mflr    r0
 18046d4:	90 01 00 14 	stw     r0,20(r1)
 18046d8:	3d 60 01 82 	lis     r11,386
 18046dc:	89 2b a3 46 	lbz     r9,-23738(r11)
 18046e0:	39 29 ff fe 	addi    r9,r9,-2
 18046e4:	28 09 00 01 	cmplwi  r9,1
 18046e8:	41 81 00 18 	bgt-    1804700 <altitude_control_task+0x34>
 18046ec:	3d 20 01 82 	lis     r9,386
 18046f0:	88 09 a3 47 	lbz     r0,-23737(r9)
 18046f4:	2c 00 00 03 	cmpwi   r0,3
 18046f8:	40 82 00 08 	bne-    1804700 <altitude_control_task+0x34>
 18046fc:	48 00 2e a5 	bl      18075a0 <altitude_pid_run>
 1804700:	80 01 00 14 	lwz     r0,20(r1)
 1804704:	7c 08 03 a6 	mtlr    r0
 1804708:	38 21 00 10 	addi    r1,r1,16
 180470c:	4e 80 00 20 	blr

01804710 <climb_control_task>:
 1804710:	94 21 ff f0 	stwu    r1,-16(r1)
 1804714:	7c 08 02 a6 	mflr    r0
 1804718:	93 e1 00 0c 	stw     r31,12(r1)
 180471c:	90 01 00 14 	stw     r0,20(r1)
 1804720:	3d 60 01 82 	lis     r11,386
 1804724:	89 2b a3 46 	lbz     r9,-23738(r11)
 1804728:	39 29 ff fe 	addi    r9,r9,-2
 180472c:	28 09 00 01 	cmplwi  r9,1
 1804730:	41 81 00 70 	bgt-    18047a0 <climb_control_task+0x90>
 1804734:	3f e0 01 82 	lis     r31,386
 1804738:	88 1f a3 47 	lbz     r0,-23737(r31)
 180473c:	28 00 00 01 	cmplwi  r0,1
 1804740:	40 81 00 08 	ble-    1804748 <climb_control_task+0x38>
 1804744:	48 00 2c 55 	bl      1807398 <climb_pid_run>
 1804748:	88 1f a3 47 	lbz     r0,-23737(r31)
 180474c:	2c 00 00 01 	cmpwi   r0,1
 1804750:	40 82 00 14 	bne-    1804764 <climb_control_task+0x54>
 1804754:	3d 20 01 82 	lis     r9,386
 1804758:	a0 09 a4 80 	lhz     r0,-23424(r9)
 180475c:	3d 60 01 82 	lis     r11,386
 1804760:	b0 0b a4 44 	sth     r0,-23484(r11)
 1804764:	3d 20 01 82 	lis     r9,386
 1804768:	88 09 a3 4b 	lbz     r0,-23733(r9)
 180476c:	2c 00 00 00 	cmpwi   r0,0
 1804770:	40 82 00 24 	bne-    1804794 <climb_control_task+0x84>
 1804774:	3d 20 01 82 	lis     r9,386
 1804778:	a0 09 a4 b4 	lhz     r0,-23372(r9)
 180477c:	2c 00 00 00 	cmpwi   r0,0
 1804780:	40 82 00 20 	bne-    18047a0 <climb_control_task+0x90>
 1804784:	3d 20 01 82 	lis     r9,386
 1804788:	88 09 a3 4c 	lbz     r0,-23732(r9)
 180478c:	2c 00 00 00 	cmpwi   r0,0
 1804790:	40 82 00 10 	bne-    18047a0 <climb_control_task+0x90>
 1804794:	3d 20 01 82 	lis     r9,386
 1804798:	38 00 00 00 	li      r0,0
 180479c:	b0 09 a4 44 	sth     r0,-23484(r9)
 18047a0:	80 01 00 14 	lwz     r0,20(r1)
 18047a4:	7c 08 03 a6 	mtlr    r0
 18047a8:	83 e1 00 0c 	lwz     r31,12(r1)
 18047ac:	38 21 00 10 	addi    r1,r1,16
 18047b0:	4e 80 00 20 	blr

018047b4 <periodic_task>:
 18047b4:	94 21 ff d0 	stwu    r1,-48(r1)
 18047b8:	7c 08 02 a6 	mflr    r0
 18047bc:	93 a1 00 24 	stw     r29,36(r1)
 18047c0:	93 c1 00 28 	stw     r30,40(r1)
 18047c4:	93 e1 00 2c 	stw     r31,44(r1)
 18047c8:	90 01 00 34 	stw     r0,52(r1)
 18047cc:	3d 40 01 82 	lis     r10,386
 18047d0:	c0 0a a4 c4 	lfs     f0,-23356(r10)
 18047d4:	3d 20 01 81 	lis     r9,385
 18047d8:	c9 a9 9f 20 	lfd     f13,-24800(r9)
 18047dc:	3d 60 01 82 	lis     r11,386
 18047e0:	89 2b a3 54 	lbz     r9,-23724(r11)
 18047e4:	39 29 00 01 	addi    r9,r9,1
 18047e8:	fc 00 68 2a 	fadd    f0,f0,f13
 18047ec:	55 20 06 3e 	clrlwi  r0,r9,24
 18047f0:	28 00 00 02 	cmplwi  r0,2
 18047f4:	99 2b a3 54 	stb     r9,-23724(r11)
 18047f8:	fc 00 00 18 	frsp    f0,f0
 18047fc:	d0 0a a4 c4 	stfs    f0,-23356(r10)
 1804800:	40 81 00 10 	ble-    1804810 <periodic_task+0x5c>
 1804804:	38 00 00 00 	li      r0,0
 1804808:	3d 20 01 82 	lis     r9,386
 180480c:	98 09 a3 54 	stb     r0,-23724(r9)
 1804810:	3d 00 01 82 	lis     r8,386
 1804814:	89 28 a3 55 	lbz     r9,-23723(r8)
 1804818:	39 29 00 01 	addi    r9,r9,1
 180481c:	55 20 06 3e 	clrlwi  r0,r9,24
 1804820:	28 00 00 05 	cmplwi  r0,5
 1804824:	99 28 a3 55 	stb     r9,-23723(r8)
 1804828:	40 81 00 0c 	ble-    1804834 <periodic_task+0x80>
 180482c:	38 00 00 00 	li      r0,0
 1804830:	98 08 a3 55 	stb     r0,-23723(r8)
 1804834:	3d 20 01 82 	lis     r9,386
 1804838:	89 69 a3 56 	lbz     r11,-23722(r9)
 180483c:	39 6b 00 01 	addi    r11,r11,1
 1804840:	55 60 06 3e 	clrlwi  r0,r11,24
 1804844:	28 00 00 0e 	cmplwi  r0,14
 1804848:	99 69 a3 56 	stb     r11,-23722(r9)
 180484c:	40 81 00 0c 	ble-    1804858 <periodic_task+0xa4>
 1804850:	38 00 00 00 	li      r0,0
 1804854:	98 09 a3 56 	stb     r0,-23722(r9)
 1804858:	3d 40 01 82 	lis     r10,386
 180485c:	89 2a a3 57 	lbz     r9,-23721(r10)
 1804860:	39 29 00 01 	addi    r9,r9,1
 1804864:	55 20 06 3e 	clrlwi  r0,r9,24
 1804868:	28 00 00 3c 	cmplwi  r0,60
 180486c:	99 2a a3 57 	stb     r9,-23721(r10)
 1804870:	40 81 00 0c 	ble-    180487c <periodic_task+0xc8>
 1804874:	38 00 00 00 	li      r0,0
 1804878:	98 0a a3 57 	stb     r0,-23721(r10)
 180487c:	88 08 a3 55 	lbz     r0,-23723(r8)
 1804880:	2c 00 00 00 	cmpwi   r0,0
 1804884:	40 82 00 20 	bne-    18048a4 <periodic_task+0xf0>
 1804888:	3d 60 01 82 	lis     r11,386
 180488c:	c0 0b a4 78 	lfs     f0,-23432(r11)
 1804890:	3d 20 01 81 	lis     r9,385
 1804894:	c9 a9 9f 28 	lfd     f13,-24792(r9)
 1804898:	fc 00 68 2a 	fadd    f0,f0,f13
 180489c:	fc 00 00 18 	frsp    f0,f0
 18048a0:	d0 0b a4 78 	stfs    f0,-23432(r11)
 18048a4:	89 8a a3 57 	lbz     r12,-23721(r10)
 18048a8:	2c 0c 00 00 	cmpwi   r12,0
 18048ac:	40 82 00 f4 	bne-    18049a0 <periodic_task+0x1ec>
 18048b0:	3d 60 01 82 	lis     r11,386
 18048b4:	a1 2b a4 b4 	lhz     r9,-23372(r11)
 18048b8:	2c 09 00 00 	cmpwi   r9,0
 18048bc:	41 82 00 0c 	beq-    18048c8 <periodic_task+0x114>
 18048c0:	38 09 00 01 	addi    r0,r9,1
 18048c4:	b0 0b a4 b4 	sth     r0,-23372(r11)
 18048c8:	3f a0 01 82 	lis     r29,386
 18048cc:	c0 1d a4 78 	lfs     f0,-23432(r29)
 18048d0:	3d 20 01 81 	lis     r9,385
 18048d4:	39 29 9f 30 	addi    r9,r9,-24784
 18048d8:	c9 89 00 00 	lfd     f12,0(r9)
 18048dc:	7d 67 5b 78 	mr      r7,r11
 18048e0:	3c 60 43 30 	lis     r3,17200
 18048e4:	fc 00 60 2a 	fadd    f0,f0,f12
 18048e8:	3d 20 01 81 	lis     r9,385
 18048ec:	39 29 9f 38 	addi    r9,r9,-24776
 18048f0:	c9 69 00 00 	lfd     f11,0(r9)
 18048f4:	3d 20 01 82 	lis     r9,386
 18048f8:	fd a0 00 1e 	fctiwz  f13,f0
 18048fc:	88 09 a3 f5 	lbz     r0,-23563(r9)
 1804900:	3c a0 01 82 	lis     r5,386
 1804904:	3c 80 01 82 	lis     r4,386
 1804908:	3c c0 01 82 	lis     r6,386
 180490c:	d9 a1 00 18 	stfd    f13,24(r1)
 1804910:	81 61 00 1c 	lwz     r11,28(r1)
 1804914:	a1 25 a3 44 	lhz     r9,-23740(r5)
 1804918:	7d 6b 07 34 	extsh   r11,r11
 180491c:	6d 6b 80 00 	xoris   r11,r11,32768
 1804920:	91 61 00 1c 	stw     r11,28(r1)
 1804924:	90 61 00 18 	stw     r3,24(r1)
 1804928:	c8 01 00 18 	lfd     f0,24(r1)
 180492c:	a1 44 a4 96 	lhz     r10,-23402(r4)
 1804930:	a1 06 a4 98 	lhz     r8,-23400(r6)
 1804934:	fc 00 58 28 	fsub    f0,f0,f11
 1804938:	28 00 00 5c 	cmplwi  r0,92
 180493c:	39 29 00 01 	addi    r9,r9,1
 1804940:	39 4a 00 01 	addi    r10,r10,1
 1804944:	39 08 00 01 	addi    r8,r8,1
 1804948:	fc 00 00 18 	frsp    f0,f0
 180494c:	b1 25 a3 44 	sth     r9,-23740(r5)
 1804950:	b1 44 a4 96 	sth     r10,-23402(r4)
 1804954:	b1 06 a4 98 	sth     r8,-23400(r6)
 1804958:	d0 1d a4 78 	stfs    f0,-23432(r29)
 180495c:	41 81 00 18 	bgt-    1804974 <periodic_task+0x1c0>
 1804960:	3d 60 01 82 	lis     r11,386
 1804964:	89 2b a3 58 	lbz     r9,-23720(r11)
 1804968:	39 29 00 01 	addi    r9,r9,1
 180496c:	99 2b a3 58 	stb     r9,-23720(r11)
 1804970:	48 00 00 0c 	b       180497c <periodic_task+0x1c8>
 1804974:	3d 20 01 82 	lis     r9,386
 1804978:	99 89 a3 58 	stb     r12,-23720(r9)
 180497c:	3d 20 01 82 	lis     r9,386
 1804980:	3d 40 01 82 	lis     r10,386
 1804984:	89 69 a3 58 	lbz     r11,-23720(r9)
 1804988:	88 0a a3 4b 	lbz     r0,-23733(r10)
 180498c:	21 6b 00 04 	subfic  r11,r11,4
 1804990:	7d 6b 59 10 	subfe   r11,r11,r11
 1804994:	7d 6b 00 d0 	neg     r11,r11
 1804998:	7c 00 5b 78 	or      r0,r0,r11
 180499c:	98 0a a3 4b 	stb     r0,-23733(r10)
 18049a0:	3d 20 01 82 	lis     r9,386
 18049a4:	88 09 a3 56 	lbz     r0,-23722(r9)
 18049a8:	2c 00 00 00 	cmpwi   r0,0
 18049ac:	40 82 00 1c 	bne-    18049c8 <periodic_task+0x214>
 18049b0:	48 00 4e a9 	bl      1809858 <estimator_propagate_state>
 18049b4:	4b ff f4 6d 	bl      1803e20 <navigation_update>
 18049b8:	4b ff f4 ad 	bl      1803e64 <send_nav_values>
 18049bc:	4b ff fc bd 	bl      1804678 <course_run>
 18049c0:	4b ff fd 0d 	bl      18046cc <altitude_control_task>
 18049c4:	4b ff fd 4d 	bl      1804710 <climb_control_task>
 18049c8:	3d 20 01 82 	lis     r9,386
 18049cc:	88 09 a3 54 	lbz     r0,-23724(r9)
 18049d0:	2c 00 00 00 	cmpwi   r0,0
 18049d4:	41 82 00 74 	beq-    1804a48 <periodic_task+0x294>
 18049d8:	2c 00 00 01 	cmpwi   r0,1
 18049dc:	40 82 00 48 	bne-    1804a24 <periodic_task+0x270>
 18049e0:	3d 60 01 82 	lis     r11,386
 18049e4:	89 2b a3 e4 	lbz     r9,-23580(r11)
 18049e8:	39 29 00 01 	addi    r9,r9,1
 18049ec:	71 20 00 01 	andi.   r0,r9,1
 18049f0:	99 2b a3 e4 	stb     r9,-23580(r11)
 18049f4:	41 82 00 54 	beq-    1804a48 <periodic_task+0x294>
 18049f8:	4b ff b6 7d 	bl      1800074 <send_boot>
 18049fc:	4b ff be 31 	bl      180082c <send_attitude>
 1804a00:	4b ff c3 35 	bl      1800d34 <send_adc>
 1804a04:	4b ff c6 09 	bl      180100c <send_settings>
 1804a08:	4b ff ca 39 	bl      1801440 <send_desired>
 1804a0c:	4b ff d1 15 	bl      1801b20 <send_bat>
 1804a10:	4b ff d4 f9 	bl      1801f08 <send_climb>
 1804a14:	4b ff da 65 	bl      1802478 <send_mode>
 1804a18:	4b ff dd 7d 	bl      1802794 <send_debug>
 1804a1c:	4b ff e0 95 	bl      1802ab0 <send_nav_ref>
 1804a20:	48 00 00 28 	b       1804a48 <periodic_task+0x294>
 1804a24:	2c 00 00 02 	cmpwi   r0,2
 1804a28:	40 82 00 10 	bne-    1804a38 <periodic_task+0x284>
 1804a2c:	48 00 00 39 	bl      1804a64 <stabilisation_task>
 1804a30:	48 00 1d e9 	bl      1806818 <link_fbw_send>
 1804a34:	48 00 00 14 	b       1804a48 <periodic_task+0x294>
 1804a38:	3d 60 01 82 	lis     r11,386
 1804a3c:	89 2b a3 40 	lbz     r9,-23744(r11)
 1804a40:	39 29 00 01 	addi    r9,r9,1
 1804a44:	99 2b a3 40 	stb     r9,-23744(r11)
 1804a48:	80 01 00 34 	lwz     r0,52(r1)
 1804a4c:	7c 08 03 a6 	mtlr    r0
 1804a50:	83 a1 00 24 	lwz     r29,36(r1)
 1804a54:	83 c1 00 28 	lwz     r30,40(r1)
 1804a58:	83 e1 00 2c 	lwz     r31,44(r1)
 1804a5c:	38 21 00 30 	addi    r1,r1,48
 1804a60:	4e 80 00 20 	blr

01804a64 <stabilisation_task>:
 1804a64:	94 21 ff f0 	stwu    r1,-16(r1)
 1804a68:	7c 08 02 a6 	mflr    r0
 1804a6c:	90 01 00 14 	stw     r0,20(r1)
 1804a70:	48 00 26 71 	bl      18070e0 <ir_update>
 1804a74:	48 00 49 cd 	bl      1809440 <estimator_update_state_infrared>
 1804a78:	48 00 27 1d 	bl      1807194 <roll_pitch_pid_run>
 1804a7c:	3d 20 01 82 	lis     r9,386
 1804a80:	c0 09 a4 d8 	lfs     f0,-23336(r9)
 1804a84:	3d 20 01 81 	lis     r9,385
 1804a88:	39 29 9f 50 	addi    r9,r9,-24752
 1804a8c:	fc 00 00 50 	fneg    f0,f0
 1804a90:	c9 a9 00 00 	lfd     f13,0(r9)
 1804a94:	3d 20 01 81 	lis     r9,385
 1804a98:	c9 89 9f 40 	lfd     f12,-24768(r9)
 1804a9c:	3d 60 01 82 	lis     r11,386
 1804aa0:	a0 0b a4 44 	lhz     r0,-23484(r11)
 1804aa4:	3d 20 01 82 	lis     r9,386
 1804aa8:	a1 69 a4 48 	lhz     r11,-23480(r9)
 1804aac:	3d 40 01 82 	lis     r10,386
 1804ab0:	fd a0 03 72 	fmul    f13,f0,f13
 1804ab4:	a1 0a a4 46 	lhz     r8,-23482(r10)
 1804ab8:	3d 20 01 82 	lis     r9,386
 1804abc:	39 49 a9 b4 	addi    r10,r9,-22092
 1804ac0:	b0 09 a9 b4 	sth     r0,-22092(r9)
 1804ac4:	b1 0a 00 02 	sth     r8,2(r10)
 1804ac8:	fc 0d 60 00 	fcmpu   cr0,f13,f12
 1804acc:	b1 6a 00 04 	sth     r11,4(r10)
 1804ad0:	40 80 00 0c 	bge-    1804adc <stabilisation_task+0x78>
 1804ad4:	39 20 da 80 	li      r9,-9600
 1804ad8:	48 00 00 28 	b       1804b00 <stabilisation_task+0x9c>
 1804adc:	3d 20 01 81 	lis     r9,385
 1804ae0:	c8 09 9f 48 	lfd     f0,-24760(r9)
 1804ae4:	fc 0d 00 00 	fcmpu   cr0,f13,f0
 1804ae8:	40 81 00 0c 	ble-    1804af4 <stabilisation_task+0x90>
 1804aec:	39 20 25 80 	li      r9,9600
 1804af0:	48 00 00 10 	b       1804b00 <stabilisation_task+0x9c>
 1804af4:	fc 00 68 1e 	fctiwz  f0,f13
 1804af8:	d8 01 00 08 	stfd    f0,8(r1)
 1804afc:	81 21 00 0c 	lwz     r9,12(r1)
 1804b00:	b1 2a 00 0a 	sth     r9,10(r10)
 1804b04:	80 01 00 14 	lwz     r0,20(r1)
 1804b08:	7c 08 03 a6 	mtlr    r0
 1804b0c:	38 21 00 10 	addi    r1,r1,16
 1804b10:	4e 80 00 20 	blr

01804b14 <send_gps_pos>:
 1804b14:	94 21 ff e0 	stwu    r1,-32(r1)
 1804b18:	7c 08 02 a6 	mflr    r0
 1804b1c:	93 61 00 0c 	stw     r27,12(r1)
 1804b20:	93 81 00 10 	stw     r28,16(r1)
 1804b24:	93 a1 00 14 	stw     r29,20(r1)
 1804b28:	93 c1 00 18 	stw     r30,24(r1)
 1804b2c:	93 e1 00 1c 	stw     r31,28(r1)
 1804b30:	90 01 00 24 	stw     r0,36(r1)
 1804b34:	3d 20 01 82 	lis     r9,386
 1804b38:	89 69 a4 31 	lbz     r11,-23503(r9)
 1804b3c:	3d 40 01 82 	lis     r10,386
 1804b40:	2c 0b 00 00 	cmpwi   r11,0
 1804b44:	38 00 00 00 	li      r0,0
 1804b48:	98 0a a4 18 	stb     r0,-23528(r10)
 1804b4c:	41 82 08 a0 	beq-    18053ec <send_gps_pos+0x8d8>
 1804b50:	3d 20 01 82 	lis     r9,386
 1804b54:	3d 60 01 82 	lis     r11,386
 1804b58:	89 29 a3 f9 	lbz     r9,-23559(r9)
 1804b5c:	88 0b a3 fa 	lbz     r0,-23558(r11)
 1804b60:	3c c0 01 82 	lis     r6,386
 1804b64:	7c 09 00 40 	cmplw   r9,r0
 1804b68:	3f 60 01 82 	lis     r27,386
 1804b6c:	41 80 00 1c 	blt-    1804b88 <send_gps_pos+0x74>
 1804b70:	88 1b a3 fa 	lbz     r0,-23558(r27)
 1804b74:	7c 00 48 50 	subf    r0,r0,r9
 1804b78:	20 00 00 ff 	subfic  r0,r0,255
 1804b7c:	2c 00 00 21 	cmpwi   r0,33
 1804b80:	41 81 00 18 	bgt-    1804b98 <send_gps_pos+0x84>
 1804b84:	48 00 08 54 	b       18053d8 <send_gps_pos+0x8c4>
 1804b88:	88 1b a3 fa 	lbz     r0,-23558(r27)
 1804b8c:	7c 09 00 50 	subf    r0,r9,r0
 1804b90:	2c 00 00 21 	cmpwi   r0,33
 1804b94:	40 81 08 44 	ble-    18053d8 <send_gps_pos+0x8c4>
 1804b98:	3d 60 01 82 	lis     r11,386
 1804b9c:	89 2b a3 f9 	lbz     r9,-23559(r11)
 1804ba0:	3d 40 01 82 	lis     r10,386
 1804ba4:	39 09 00 01 	addi    r8,r9,1
 1804ba8:	55 00 06 3e 	clrlwi  r0,r8,24
 1804bac:	28 00 00 fe 	cmplwi  r0,254
 1804bb0:	38 6a a8 b4 	addi    r3,r10,-22348
 1804bb4:	55 29 06 3e 	clrlwi  r9,r9,24
 1804bb8:	38 00 00 05 	li      r0,5
 1804bbc:	7c 03 49 ae 	stbx    r0,r3,r9
 1804bc0:	38 ab a3 f9 	addi    r5,r11,-23559
 1804bc4:	99 0b a3 f9 	stb     r8,-23559(r11)
 1804bc8:	40 81 00 0c 	ble-    1804bd4 <send_gps_pos+0xc0>
 1804bcc:	38 00 00 00 	li      r0,0
 1804bd0:	98 06 a3 f9 	stb     r0,-23559(r6)
 1804bd4:	89 26 a3 f9 	lbz     r9,-23559(r6)
 1804bd8:	39 40 00 08 	li      r10,8
 1804bdc:	39 69 00 01 	addi    r11,r9,1
 1804be0:	55 60 06 3e 	clrlwi  r0,r11,24
 1804be4:	55 29 06 3e 	clrlwi  r9,r9,24
 1804be8:	28 00 00 fe 	cmplwi  r0,254
 1804bec:	7d 43 49 ae 	stbx    r10,r3,r9
 1804bf0:	99 66 a3 f9 	stb     r11,-23559(r6)
 1804bf4:	40 81 00 0c 	ble-    1804c00 <send_gps_pos+0xec>
 1804bf8:	38 00 00 00 	li      r0,0
 1804bfc:	98 06 a3 f9 	stb     r0,-23559(r6)
 1804c00:	89 66 a3 f9 	lbz     r11,-23559(r6)
 1804c04:	3d 20 01 82 	lis     r9,386
 1804c08:	39 0b 00 01 	addi    r8,r11,1
 1804c0c:	89 49 a4 38 	lbz     r10,-23496(r9)
 1804c10:	55 00 06 3e 	clrlwi  r0,r8,24
 1804c14:	38 ea 00 08 	addi    r7,r10,8
 1804c18:	55 6b 06 3e 	clrlwi  r11,r11,24
 1804c1c:	28 00 00 fe 	cmplwi  r0,254
 1804c20:	7d 43 59 ae 	stbx    r10,r3,r11
 1804c24:	3f e0 01 82 	lis     r31,386
 1804c28:	3d 80 01 82 	lis     r12,386
 1804c2c:	38 87 00 08 	addi    r4,r7,8
 1804c30:	3b df a3 fc 	addi    r30,r31,-23556
 1804c34:	3b ac a3 f6 	addi    r29,r12,-23562
 1804c38:	98 ff a3 fc 	stb     r7,-23556(r31)
 1804c3c:	98 8c a3 f6 	stb     r4,-23562(r12)
 1804c40:	99 06 a3 f9 	stb     r8,-23559(r6)
 1804c44:	40 81 00 0c 	ble-    1804c50 <send_gps_pos+0x13c>
 1804c48:	38 00 00 00 	li      r0,0
 1804c4c:	98 06 a3 f9 	stb     r0,-23559(r6)
 1804c50:	89 66 a3 f9 	lbz     r11,-23559(r6)
 1804c54:	3d 20 01 82 	lis     r9,386
 1804c58:	39 0b 00 01 	addi    r8,r11,1
 1804c5c:	89 49 a4 24 	lbz     r10,-23516(r9)
 1804c60:	55 00 06 3e 	clrlwi  r0,r8,24
 1804c64:	7c e7 52 14 	add     r7,r7,r10
 1804c68:	55 6b 06 3e 	clrlwi  r11,r11,24
 1804c6c:	28 00 00 fe 	cmplwi  r0,254
 1804c70:	7d 43 59 ae 	stbx    r10,r3,r11
 1804c74:	7c 84 3a 14 	add     r4,r4,r7
 1804c78:	3b 89 a4 24 	addi    r28,r9,-23516
 1804c7c:	98 ff a3 fc 	stb     r7,-23556(r31)
 1804c80:	98 8c a3 f6 	stb     r4,-23562(r12)
 1804c84:	99 06 a3 f9 	stb     r8,-23559(r6)
 1804c88:	40 81 00 0c 	ble-    1804c94 <send_gps_pos+0x180>
 1804c8c:	38 00 00 00 	li      r0,0
 1804c90:	98 06 a3 f9 	stb     r0,-23559(r6)
 1804c94:	89 26 a3 f9 	lbz     r9,-23559(r6)
 1804c98:	89 7c 00 01 	lbz     r11,1(r28)
 1804c9c:	39 49 00 01 	addi    r10,r9,1
 1804ca0:	55 40 06 3e 	clrlwi  r0,r10,24
 1804ca4:	7d 07 5a 14 	add     r8,r7,r11
 1804ca8:	55 29 06 3e 	clrlwi  r9,r9,24
 1804cac:	28 00 00 fe 	cmplwi  r0,254
 1804cb0:	7d 63 49 ae 	stbx    r11,r3,r9
 1804cb4:	7c e4 42 14 	add     r7,r4,r8
 1804cb8:	99 1f a3 fc 	stb     r8,-23556(r31)
 1804cbc:	98 ec a3 f6 	stb     r7,-23562(r12)
 1804cc0:	99 46 a3 f9 	stb     r10,-23559(r6)
 1804cc4:	40 81 00 0c 	ble-    1804cd0 <send_gps_pos+0x1bc>
 1804cc8:	38 00 00 00 	li      r0,0
 1804ccc:	98 06 a3 f9 	stb     r0,-23559(r6)
 1804cd0:	89 26 a3 f9 	lbz     r9,-23559(r6)
 1804cd4:	89 7c 00 02 	lbz     r11,2(r28)
 1804cd8:	39 49 00 01 	addi    r10,r9,1
 1804cdc:	55 40 06 3e 	clrlwi  r0,r10,24
 1804ce0:	7d 08 5a 14 	add     r8,r8,r11
 1804ce4:	55 29 06 3e 	clrlwi  r9,r9,24
 1804ce8:	28 00 00 fe 	cmplwi  r0,254
 1804cec:	7d 63 49 ae 	stbx    r11,r3,r9
 1804cf0:	7c 87 42 14 	add     r4,r7,r8
 1804cf4:	99 1f a3 fc 	stb     r8,-23556(r31)
 1804cf8:	98 8c a3 f6 	stb     r4,-23562(r12)
 1804cfc:	99 46 a3 f9 	stb     r10,-23559(r6)
 1804d00:	40 81 00 0c 	ble-    1804d0c <send_gps_pos+0x1f8>
 1804d04:	38 00 00 00 	li      r0,0
 1804d08:	98 06 a3 f9 	stb     r0,-23559(r6)
 1804d0c:	89 26 a3 f9 	lbz     r9,-23559(r6)
 1804d10:	89 7c 00 03 	lbz     r11,3(r28)
 1804d14:	39 49 00 01 	addi    r10,r9,1
 1804d18:	55 40 06 3e 	clrlwi  r0,r10,24
 1804d1c:	7c e8 5a 14 	add     r7,r8,r11
 1804d20:	55 29 06 3e 	clrlwi  r9,r9,24
 1804d24:	28 00 00 fe 	cmplwi  r0,254
 1804d28:	7d 63 49 ae 	stbx    r11,r3,r9
 1804d2c:	7c 84 3a 14 	add     r4,r4,r7
 1804d30:	98 ff a3 fc 	stb     r7,-23556(r31)
 1804d34:	98 8c a3 f6 	stb     r4,-23562(r12)
 1804d38:	99 46 a3 f9 	stb     r10,-23559(r6)
 1804d3c:	40 81 00 0c 	ble-    1804d48 <send_gps_pos+0x234>
 1804d40:	38 00 00 00 	li      r0,0
 1804d44:	98 06 a3 f9 	stb     r0,-23559(r6)
 1804d48:	89 66 a3 f9 	lbz     r11,-23559(r6)
 1804d4c:	3d 20 01 82 	lis     r9,386
 1804d50:	39 0b 00 01 	addi    r8,r11,1
 1804d54:	89 49 a4 20 	lbz     r10,-23520(r9)
 1804d58:	55 00 06 3e 	clrlwi  r0,r8,24
 1804d5c:	7c e7 52 14 	add     r7,r7,r10
 1804d60:	55 6b 06 3e 	clrlwi  r11,r11,24
 1804d64:	28 00 00 fe 	cmplwi  r0,254
 1804d68:	7d 43 59 ae 	stbx    r10,r3,r11
 1804d6c:	7c 84 3a 14 	add     r4,r4,r7
 1804d70:	3b 89 a4 20 	addi    r28,r9,-23520
 1804d74:	98 ff a3 fc 	stb     r7,-23556(r31)
 1804d78:	98 8c a3 f6 	stb     r4,-23562(r12)
 1804d7c:	99 06 a3 f9 	stb     r8,-23559(r6)
 1804d80:	40 81 00 0c 	ble-    1804d8c <send_gps_pos+0x278>
 1804d84:	38 00 00 00 	li      r0,0
 1804d88:	98 06 a3 f9 	stb     r0,-23559(r6)
 1804d8c:	89 26 a3 f9 	lbz     r9,-23559(r6)
 1804d90:	89 7c 00 01 	lbz     r11,1(r28)
 1804d94:	39 49 00 01 	addi    r10,r9,1
 1804d98:	55 40 06 3e 	clrlwi  r0,r10,24
 1804d9c:	7d 07 5a 14 	add     r8,r7,r11
 1804da0:	55 29 06 3e 	clrlwi  r9,r9,24
 1804da4:	28 00 00 fe 	cmplwi  r0,254
 1804da8:	7d 63 49 ae 	stbx    r11,r3,r9
 1804dac:	7c e4 42 14 	add     r7,r4,r8
 1804db0:	99 1f a3 fc 	stb     r8,-23556(r31)
 1804db4:	98 ec a3 f6 	stb     r7,-23562(r12)
 1804db8:	99 46 a3 f9 	stb     r10,-23559(r6)
 1804dbc:	40 81 00 0c 	ble-    1804dc8 <send_gps_pos+0x2b4>
 1804dc0:	38 00 00 00 	li      r0,0
 1804dc4:	98 06 a3 f9 	stb     r0,-23559(r6)
 1804dc8:	89 26 a3 f9 	lbz     r9,-23559(r6)
 1804dcc:	89 7c 00 02 	lbz     r11,2(r28)
 1804dd0:	39 49 00 01 	addi    r10,r9,1
 1804dd4:	55 40 06 3e 	clrlwi  r0,r10,24
 1804dd8:	7d 08 5a 14 	add     r8,r8,r11
 1804ddc:	55 29 06 3e 	clrlwi  r9,r9,24
 1804de0:	28 00 00 fe 	cmplwi  r0,254
 1804de4:	7d 63 49 ae 	stbx    r11,r3,r9
 1804de8:	7c e7 42 14 	add     r7,r7,r8
 1804dec:	99 1f a3 fc 	stb     r8,-23556(r31)
 1804df0:	98 ec a3 f6 	stb     r7,-23562(r12)
 1804df4:	99 46 a3 f9 	stb     r10,-23559(r6)
 1804df8:	40 81 00 0c 	ble-    1804e04 <send_gps_pos+0x2f0>
 1804dfc:	38 00 00 00 	li      r0,0
 1804e00:	98 06 a3 f9 	stb     r0,-23559(r6)
 1804e04:	89 25 00 00 	lbz     r9,0(r5)
 1804e08:	89 7c 00 03 	lbz     r11,3(r28)
 1804e0c:	39 49 00 01 	addi    r10,r9,1
 1804e10:	7c c8 5a 14 	add     r6,r8,r11
 1804e14:	55 40 06 3e 	clrlwi  r0,r10,24
 1804e18:	55 29 06 3e 	clrlwi  r9,r9,24
 1804e1c:	7d 63 49 ae 	stbx    r11,r3,r9
 1804e20:	7c 87 32 14 	add     r4,r7,r6
 1804e24:	28 00 00 fe 	cmplwi  r0,254
 1804e28:	98 df a3 fc 	stb     r6,-23556(r31)
 1804e2c:	98 8c a3 f6 	stb     r4,-23562(r12)
 1804e30:	99 45 00 00 	stb     r10,0(r5)
 1804e34:	40 81 00 0c 	ble-    1804e40 <send_gps_pos+0x32c>
 1804e38:	38 00 00 00 	li      r0,0
 1804e3c:	98 05 00 00 	stb     r0,0(r5)
 1804e40:	3d 20 01 82 	lis     r9,386
 1804e44:	89 09 a4 28 	lbz     r8,-23512(r9)
 1804e48:	89 65 00 00 	lbz     r11,0(r5)
 1804e4c:	7d 46 42 14 	add     r10,r6,r8
 1804e50:	3b 89 a4 28 	addi    r28,r9,-23512
 1804e54:	38 eb 00 01 	addi    r7,r11,1
 1804e58:	7d 24 52 14 	add     r9,r4,r10
 1804e5c:	99 2c a3 f6 	stb     r9,-23562(r12)
 1804e60:	54 e0 06 3e 	clrlwi  r0,r7,24
 1804e64:	55 6b 06 3e 	clrlwi  r11,r11,24
 1804e68:	7d 03 59 ae 	stbx    r8,r3,r11
 1804e6c:	28 00 00 fe 	cmplwi  r0,254
 1804e70:	99 5f a3 fc 	stb     r10,-23556(r31)
 1804e74:	98 e5 00 00 	stb     r7,0(r5)
 1804e78:	40 81 00 0c 	ble-    1804e84 <send_gps_pos+0x370>
 1804e7c:	38 00 00 00 	li      r0,0
 1804e80:	98 05 00 00 	stb     r0,0(r5)
 1804e84:	89 25 00 00 	lbz     r9,0(r5)
 1804e88:	89 1c 00 01 	lbz     r8,1(r28)
 1804e8c:	88 1e 00 00 	lbz     r0,0(r30)
 1804e90:	89 7d 00 00 	lbz     r11,0(r29)
 1804e94:	38 e9 00 01 	addi    r7,r9,1
 1804e98:	7c c0 42 14 	add     r6,r0,r8
 1804e9c:	54 ea 06 3e 	clrlwi  r10,r7,24
 1804ea0:	55 29 06 3e 	clrlwi  r9,r9,24
 1804ea4:	7d 03 49 ae 	stbx    r8,r3,r9
 1804ea8:	7c 8b 32 14 	add     r4,r11,r6
 1804eac:	28 0a 00 fe 	cmplwi  r10,254
 1804eb0:	98 de 00 00 	stb     r6,0(r30)
 1804eb4:	98 9d 00 00 	stb     r4,0(r29)
 1804eb8:	98 e5 00 00 	stb     r7,0(r5)
 1804ebc:	40 81 00 0c 	ble-    1804ec8 <send_gps_pos+0x3b4>
 1804ec0:	38 00 00 00 	li      r0,0
 1804ec4:	98 05 00 00 	stb     r0,0(r5)
 1804ec8:	89 25 00 00 	lbz     r9,0(r5)
 1804ecc:	89 7c 00 02 	lbz     r11,2(r28)
 1804ed0:	39 49 00 01 	addi    r10,r9,1
 1804ed4:	7d 06 5a 14 	add     r8,r6,r11
 1804ed8:	55 40 06 3e 	clrlwi  r0,r10,24
 1804edc:	55 29 06 3e 	clrlwi  r9,r9,24
 1804ee0:	7d 63 49 ae 	stbx    r11,r3,r9
 1804ee4:	7c c4 42 14 	add     r6,r4,r8
 1804ee8:	28 00 00 fe 	cmplwi  r0,254
 1804eec:	99 1e 00 00 	stb     r8,0(r30)
 1804ef0:	98 dd 00 00 	stb     r6,0(r29)
 1804ef4:	99 45 00 00 	stb     r10,0(r5)
 1804ef8:	40 81 00 0c 	ble-    1804f04 <send_gps_pos+0x3f0>
 1804efc:	38 00 00 00 	li      r0,0
 1804f00:	98 05 00 00 	stb     r0,0(r5)
 1804f04:	89 25 00 00 	lbz     r9,0(r5)
 1804f08:	89 7c 00 03 	lbz     r11,3(r28)
 1804f0c:	39 49 00 01 	addi    r10,r9,1
 1804f10:	7c e8 5a 14 	add     r7,r8,r11
 1804f14:	55 40 06 3e 	clrlwi  r0,r10,24
 1804f18:	55 29 06 3e 	clrlwi  r9,r9,24
 1804f1c:	7d 63 49 ae 	stbx    r11,r3,r9
 1804f20:	7c c6 3a 14 	add     r6,r6,r7
 1804f24:	28 00 00 fe 	cmplwi  r0,254
 1804f28:	98 fe 00 00 	stb     r7,0(r30)
 1804f2c:	98 dd 00 00 	stb     r6,0(r29)
 1804f30:	99 45 00 00 	stb     r10,0(r5)
 1804f34:	40 81 00 0c 	ble-    1804f40 <send_gps_pos+0x42c>
 1804f38:	38 00 00 00 	li      r0,0
 1804f3c:	98 05 00 00 	stb     r0,0(r5)
 1804f40:	89 65 00 00 	lbz     r11,0(r5)
 1804f44:	3d 20 01 82 	lis     r9,386
 1804f48:	89 49 a4 14 	lbz     r10,-23532(r9)
 1804f4c:	39 0b 00 01 	addi    r8,r11,1
 1804f50:	7c e7 52 14 	add     r7,r7,r10
 1804f54:	55 00 06 3e 	clrlwi  r0,r8,24
 1804f58:	55 6b 06 3e 	clrlwi  r11,r11,24
 1804f5c:	7d 43 59 ae 	stbx    r10,r3,r11
 1804f60:	7c c6 3a 14 	add     r6,r6,r7
 1804f64:	28 00 00 fe 	cmplwi  r0,254
 1804f68:	98 fe 00 00 	stb     r7,0(r30)
 1804f6c:	98 dd 00 00 	stb     r6,0(r29)
 1804f70:	38 89 a4 14 	addi    r4,r9,-23532
 1804f74:	99 05 00 00 	stb     r8,0(r5)
 1804f78:	40 81 00 0c 	ble-    1804f84 <send_gps_pos+0x470>
 1804f7c:	38 00 00 00 	li      r0,0
 1804f80:	98 05 00 00 	stb     r0,0(r5)
 1804f84:	89 25 00 00 	lbz     r9,0(r5)
 1804f88:	89 64 00 01 	lbz     r11,1(r4)
 1804f8c:	39 49 00 01 	addi    r10,r9,1
 1804f90:	7d 07 5a 14 	add     r8,r7,r11
 1804f94:	55 40 06 3e 	clrlwi  r0,r10,24
 1804f98:	55 29 06 3e 	clrlwi  r9,r9,24
 1804f9c:	7d 63 49 ae 	stbx    r11,r3,r9
 1804fa0:	7c e6 42 14 	add     r7,r6,r8
 1804fa4:	28 00 00 fe 	cmplwi  r0,254
 1804fa8:	99 1e 00 00 	stb     r8,0(r30)
 1804fac:	98 fd 00 00 	stb     r7,0(r29)
 1804fb0:	99 45 00 00 	stb     r10,0(r5)
 1804fb4:	40 81 00 0c 	ble-    1804fc0 <send_gps_pos+0x4ac>
 1804fb8:	38 00 00 00 	li      r0,0
 1804fbc:	98 05 00 00 	stb     r0,0(r5)
 1804fc0:	89 25 00 00 	lbz     r9,0(r5)
 1804fc4:	89 64 00 02 	lbz     r11,2(r4)
 1804fc8:	39 49 00 01 	addi    r10,r9,1
 1804fcc:	7d 08 5a 14 	add     r8,r8,r11
 1804fd0:	55 40 06 3e 	clrlwi  r0,r10,24
 1804fd4:	55 29 06 3e 	clrlwi  r9,r9,24
 1804fd8:	7d 63 49 ae 	stbx    r11,r3,r9
 1804fdc:	7c c7 42 14 	add     r6,r7,r8
 1804fe0:	28 00 00 fe 	cmplwi  r0,254
 1804fe4:	99 1e 00 00 	stb     r8,0(r30)
 1804fe8:	98 dd 00 00 	stb     r6,0(r29)
 1804fec:	99 45 00 00 	stb     r10,0(r5)
 1804ff0:	40 81 00 0c 	ble-    1804ffc <send_gps_pos+0x4e8>
 1804ff4:	38 00 00 00 	li      r0,0
 1804ff8:	98 05 00 00 	stb     r0,0(r5)
 1804ffc:	89 25 00 00 	lbz     r9,0(r5)
 1805000:	89 64 00 03 	lbz     r11,3(r4)
 1805004:	39 49 00 01 	addi    r10,r9,1
 1805008:	7c e8 5a 14 	add     r7,r8,r11
 180500c:	55 40 06 3e 	clrlwi  r0,r10,24
 1805010:	55 29 06 3e 	clrlwi  r9,r9,24
 1805014:	7d 63 49 ae 	stbx    r11,r3,r9
 1805018:	7c c6 3a 14 	add     r6,r6,r7
 180501c:	28 00 00 fe 	cmplwi  r0,254
 1805020:	98 fe 00 00 	stb     r7,0(r30)
 1805024:	98 dd 00 00 	stb     r6,0(r29)
 1805028:	99 45 00 00 	stb     r10,0(r5)
 180502c:	40 81 00 0c 	ble-    1805038 <send_gps_pos+0x524>
 1805030:	38 00 00 00 	li      r0,0
 1805034:	98 05 00 00 	stb     r0,0(r5)
 1805038:	89 65 00 00 	lbz     r11,0(r5)
 180503c:	3d 20 01 82 	lis     r9,386
 1805040:	89 49 a4 2c 	lbz     r10,-23508(r9)
 1805044:	39 0b 00 01 	addi    r8,r11,1
 1805048:	7c e7 52 14 	add     r7,r7,r10
 180504c:	55 00 06 3e 	clrlwi  r0,r8,24
 1805050:	55 6b 06 3e 	clrlwi  r11,r11,24
 1805054:	7d 43 59 ae 	stbx    r10,r3,r11
 1805058:	7c c6 3a 14 	add     r6,r6,r7
 180505c:	28 00 00 fe 	cmplwi  r0,254
 1805060:	98 fe 00 00 	stb     r7,0(r30)
 1805064:	98 dd 00 00 	stb     r6,0(r29)
 1805068:	38 89 a4 2c 	addi    r4,r9,-23508
 180506c:	99 05 00 00 	stb     r8,0(r5)
 1805070:	40 81 00 0c 	ble-    180507c <send_gps_pos+0x568>
 1805074:	38 00 00 00 	li      r0,0
 1805078:	98 05 00 00 	stb     r0,0(r5)
 180507c:	89 25 00 00 	lbz     r9,0(r5)
 1805080:	89 64 00 01 	lbz     r11,1(r4)
 1805084:	39 49 00 01 	addi    r10,r9,1
 1805088:	7d 07 5a 14 	add     r8,r7,r11
 180508c:	55 40 06 3e 	clrlwi  r0,r10,24
 1805090:	55 29 06 3e 	clrlwi  r9,r9,24
 1805094:	7d 63 49 ae 	stbx    r11,r3,r9
 1805098:	7c e6 42 14 	add     r7,r6,r8
 180509c:	28 00 00 fe 	cmplwi  r0,254
 18050a0:	99 1e 00 00 	stb     r8,0(r30)
 18050a4:	98 fd 00 00 	stb     r7,0(r29)
 18050a8:	99 45 00 00 	stb     r10,0(r5)
 18050ac:	40 81 00 0c 	ble-    18050b8 <send_gps_pos+0x5a4>
 18050b0:	38 00 00 00 	li      r0,0
 18050b4:	98 05 00 00 	stb     r0,0(r5)
 18050b8:	89 25 00 00 	lbz     r9,0(r5)
 18050bc:	89 64 00 02 	lbz     r11,2(r4)
 18050c0:	39 49 00 01 	addi    r10,r9,1
 18050c4:	7d 08 5a 14 	add     r8,r8,r11
 18050c8:	55 40 06 3e 	clrlwi  r0,r10,24
 18050cc:	55 29 06 3e 	clrlwi  r9,r9,24
 18050d0:	7d 63 49 ae 	stbx    r11,r3,r9
 18050d4:	7c c7 42 14 	add     r6,r7,r8
 18050d8:	28 00 00 fe 	cmplwi  r0,254
 18050dc:	99 1e 00 00 	stb     r8,0(r30)
 18050e0:	98 dd 00 00 	stb     r6,0(r29)
 18050e4:	99 45 00 00 	stb     r10,0(r5)
 18050e8:	40 81 00 0c 	ble-    18050f4 <send_gps_pos+0x5e0>
 18050ec:	38 00 00 00 	li      r0,0
 18050f0:	98 05 00 00 	stb     r0,0(r5)
 18050f4:	89 25 00 00 	lbz     r9,0(r5)
 18050f8:	89 64 00 03 	lbz     r11,3(r4)
 18050fc:	39 49 00 01 	addi    r10,r9,1
 1805100:	7c e8 5a 14 	add     r7,r8,r11
 1805104:	55 40 06 3e 	clrlwi  r0,r10,24
 1805108:	55 29 06 3e 	clrlwi  r9,r9,24
 180510c:	7d 63 49 ae 	stbx    r11,r3,r9
 1805110:	7c c6 3a 14 	add     r6,r6,r7
 1805114:	28 00 00 fe 	cmplwi  r0,254
 1805118:	98 fe 00 00 	stb     r7,0(r30)
 180511c:	98 dd 00 00 	stb     r6,0(r29)
 1805120:	99 45 00 00 	stb     r10,0(r5)
 1805124:	40 81 00 0c 	ble-    1805130 <send_gps_pos+0x61c>
 1805128:	38 00 00 00 	li      r0,0
 180512c:	98 05 00 00 	stb     r0,0(r5)
 1805130:	89 65 00 00 	lbz     r11,0(r5)
 1805134:	3d 20 01 82 	lis     r9,386
 1805138:	89 49 a4 3c 	lbz     r10,-23492(r9)
 180513c:	39 0b 00 01 	addi    r8,r11,1
 1805140:	7c e7 52 14 	add     r7,r7,r10
 1805144:	55 00 06 3e 	clrlwi  r0,r8,24
 1805148:	55 6b 06 3e 	clrlwi  r11,r11,24
 180514c:	7d 43 59 ae 	stbx    r10,r3,r11
 1805150:	7c c6 3a 14 	add     r6,r6,r7
 1805154:	28 00 00 fe 	cmplwi  r0,254
 1805158:	98 fe 00 00 	stb     r7,0(r30)
 180515c:	98 dd 00 00 	stb     r6,0(r29)
 1805160:	38 89 a4 3c 	addi    r4,r9,-23492
 1805164:	99 05 00 00 	stb     r8,0(r5)
 1805168:	40 81 00 0c 	ble-    1805174 <send_gps_pos+0x660>
 180516c:	38 00 00 00 	li      r0,0
 1805170:	98 05 00 00 	stb     r0,0(r5)
 1805174:	89 25 00 00 	lbz     r9,0(r5)
 1805178:	89 64 00 01 	lbz     r11,1(r4)
 180517c:	39 49 00 01 	addi    r10,r9,1
 1805180:	7d 07 5a 14 	add     r8,r7,r11
 1805184:	55 40 06 3e 	clrlwi  r0,r10,24
 1805188:	55 29 06 3e 	clrlwi  r9,r9,24
 180518c:	7d 63 49 ae 	stbx    r11,r3,r9
 1805190:	7c e6 42 14 	add     r7,r6,r8
 1805194:	28 00 00 fe 	cmplwi  r0,254
 1805198:	99 1e 00 00 	stb     r8,0(r30)
 180519c:	98 fd 00 00 	stb     r7,0(r29)
 18051a0:	99 45 00 00 	stb     r10,0(r5)
 18051a4:	40 81 00 0c 	ble-    18051b0 <send_gps_pos+0x69c>
 18051a8:	38 00 00 00 	li      r0,0
 18051ac:	98 05 00 00 	stb     r0,0(r5)
 18051b0:	89 25 00 00 	lbz     r9,0(r5)
 18051b4:	89 64 00 02 	lbz     r11,2(r4)
 18051b8:	39 49 00 01 	addi    r10,r9,1
 18051bc:	7d 08 5a 14 	add     r8,r8,r11
 18051c0:	55 40 06 3e 	clrlwi  r0,r10,24
 18051c4:	55 29 06 3e 	clrlwi  r9,r9,24
 18051c8:	7d 63 49 ae 	stbx    r11,r3,r9
 18051cc:	7c c7 42 14 	add     r6,r7,r8
 18051d0:	28 00 00 fe 	cmplwi  r0,254
 18051d4:	99 1e 00 00 	stb     r8,0(r30)
 18051d8:	98 dd 00 00 	stb     r6,0(r29)
 18051dc:	99 45 00 00 	stb     r10,0(r5)
 18051e0:	40 81 00 0c 	ble-    18051ec <send_gps_pos+0x6d8>
 18051e4:	38 00 00 00 	li      r0,0
 18051e8:	98 05 00 00 	stb     r0,0(r5)
 18051ec:	89 25 00 00 	lbz     r9,0(r5)
 18051f0:	89 64 00 03 	lbz     r11,3(r4)
 18051f4:	39 49 00 01 	addi    r10,r9,1
 18051f8:	7c e8 5a 14 	add     r7,r8,r11
 18051fc:	55 40 06 3e 	clrlwi  r0,r10,24
 1805200:	55 29 06 3e 	clrlwi  r9,r9,24
 1805204:	7d 63 49 ae 	stbx    r11,r3,r9
 1805208:	7c c6 3a 14 	add     r6,r6,r7
 180520c:	28 00 00 fe 	cmplwi  r0,254
 1805210:	98 fe 00 00 	stb     r7,0(r30)
 1805214:	98 dd 00 00 	stb     r6,0(r29)
 1805218:	99 45 00 00 	stb     r10,0(r5)
 180521c:	40 81 00 0c 	ble-    1805228 <send_gps_pos+0x714>
 1805220:	38 00 00 00 	li      r0,0
 1805224:	98 05 00 00 	stb     r0,0(r5)
 1805228:	89 65 00 00 	lbz     r11,0(r5)
 180522c:	3d 20 01 82 	lis     r9,386
 1805230:	89 49 a4 34 	lbz     r10,-23500(r9)
 1805234:	39 0b 00 01 	addi    r8,r11,1
 1805238:	7c e7 52 14 	add     r7,r7,r10
 180523c:	55 00 06 3e 	clrlwi  r0,r8,24
 1805240:	55 6b 06 3e 	clrlwi  r11,r11,24
 1805244:	7d 43 59 ae 	stbx    r10,r3,r11
 1805248:	7c c6 3a 14 	add     r6,r6,r7
 180524c:	28 00 00 fe 	cmplwi  r0,254
 1805250:	98 fe 00 00 	stb     r7,0(r30)
 1805254:	98 dd 00 00 	stb     r6,0(r29)
 1805258:	38 89 a4 34 	addi    r4,r9,-23500
 180525c:	99 05 00 00 	stb     r8,0(r5)
 1805260:	40 81 00 0c 	ble-    180526c <send_gps_pos+0x758>
 1805264:	38 00 00 00 	li      r0,0
 1805268:	98 05 00 00 	stb     r0,0(r5)
 180526c:	89 25 00 00 	lbz     r9,0(r5)
 1805270:	89 64 00 01 	lbz     r11,1(r4)
 1805274:	39 49 00 01 	addi    r10,r9,1
 1805278:	7d 07 5a 14 	add     r8,r7,r11
 180527c:	55 40 06 3e 	clrlwi  r0,r10,24
 1805280:	55 29 06 3e 	clrlwi  r9,r9,24
 1805284:	7d 63 49 ae 	stbx    r11,r3,r9
 1805288:	7c e6 42 14 	add     r7,r6,r8
 180528c:	28 00 00 fe 	cmplwi  r0,254
 1805290:	99 1e 00 00 	stb     r8,0(r30)
 1805294:	98 fd 00 00 	stb     r7,0(r29)
 1805298:	99 45 00 00 	stb     r10,0(r5)
 180529c:	40 81 00 0c 	ble-    18052a8 <send_gps_pos+0x794>
 18052a0:	38 00 00 00 	li      r0,0
 18052a4:	98 05 00 00 	stb     r0,0(r5)
 18052a8:	89 25 00 00 	lbz     r9,0(r5)
 18052ac:	89 64 00 02 	lbz     r11,2(r4)
 18052b0:	39 49 00 01 	addi    r10,r9,1
 18052b4:	7d 08 5a 14 	add     r8,r8,r11
 18052b8:	55 40 06 3e 	clrlwi  r0,r10,24
 18052bc:	55 29 06 3e 	clrlwi  r9,r9,24
 18052c0:	7d 63 49 ae 	stbx    r11,r3,r9
 18052c4:	7c e7 42 14 	add     r7,r7,r8
 18052c8:	28 00 00 fe 	cmplwi  r0,254
 18052cc:	99 1e 00 00 	stb     r8,0(r30)
 18052d0:	98 fd 00 00 	stb     r7,0(r29)
 18052d4:	99 45 00 00 	stb     r10,0(r5)
 18052d8:	40 81 00 0c 	ble-    18052e4 <send_gps_pos+0x7d0>
 18052dc:	38 00 00 00 	li      r0,0
 18052e0:	98 05 00 00 	stb     r0,0(r5)
 18052e4:	89 25 00 00 	lbz     r9,0(r5)
 18052e8:	89 64 00 03 	lbz     r11,3(r4)
 18052ec:	39 49 00 01 	addi    r10,r9,1
 18052f0:	7d 08 5a 14 	add     r8,r8,r11
 18052f4:	55 40 06 3e 	clrlwi  r0,r10,24
 18052f8:	55 29 06 3e 	clrlwi  r9,r9,24
 18052fc:	7d 63 49 ae 	stbx    r11,r3,r9
 1805300:	7c e7 42 14 	add     r7,r7,r8
 1805304:	28 00 00 fe 	cmplwi  r0,254
 1805308:	99 1e 00 00 	stb     r8,0(r30)
 180530c:	98 fd 00 00 	stb     r7,0(r29)
 1805310:	99 45 00 00 	stb     r10,0(r5)
 1805314:	40 81 00 0c 	ble-    1805320 <send_gps_pos+0x80c>
 1805318:	38 00 00 00 	li      r0,0
 180531c:	98 05 00 00 	stb     r0,0(r5)
 1805320:	89 25 00 00 	lbz     r9,0(r5)
 1805324:	39 69 00 01 	addi    r11,r9,1
 1805328:	55 60 06 3e 	clrlwi  r0,r11,24
 180532c:	55 29 06 3e 	clrlwi  r9,r9,24
 1805330:	28 00 00 fe 	cmplwi  r0,254
 1805334:	7d 03 49 ae 	stbx    r8,r3,r9
 1805338:	99 65 00 00 	stb     r11,0(r5)
 180533c:	40 81 00 0c 	ble-    1805348 <send_gps_pos+0x834>
 1805340:	38 00 00 00 	li      r0,0
 1805344:	98 05 00 00 	stb     r0,0(r5)
 1805348:	89 25 00 00 	lbz     r9,0(r5)
 180534c:	39 69 00 01 	addi    r11,r9,1
 1805350:	55 60 06 3e 	clrlwi  r0,r11,24
 1805354:	55 29 06 3e 	clrlwi  r9,r9,24
 1805358:	28 00 00 fe 	cmplwi  r0,254
 180535c:	7c e3 49 ae 	stbx    r7,r3,r9
 1805360:	99 65 00 00 	stb     r11,0(r5)
 1805364:	40 81 00 0c 	ble-    1805370 <send_gps_pos+0x85c>
 1805368:	38 00 00 00 	li      r0,0
 180536c:	98 05 00 00 	stb     r0,0(r5)
 1805370:	38 c0 00 59 	li      r6,89
 1805374:	88 06 00 00 	lbz     r0,0(r6)
 1805378:	70 07 00 10 	andi.   r7,r0,16
 180537c:	40 82 00 6c 	bne-    18053e8 <send_gps_pos+0x8d4>
 1805380:	3d 60 01 82 	lis     r11,386
 1805384:	88 0b a3 fa 	lbz     r0,-23558(r11)
 1805388:	89 2b a3 fa 	lbz     r9,-23558(r11)
 180538c:	7d 03 00 ae 	lbzx    r8,r3,r0
 1805390:	39 29 00 01 	addi    r9,r9,1
 1805394:	99 2b a3 fa 	stb     r9,-23558(r11)
 1805398:	88 0b a3 fa 	lbz     r0,-23558(r11)
 180539c:	3d 40 01 82 	lis     r10,386
 18053a0:	28 00 00 fe 	cmplwi  r0,254
 18053a4:	3d 20 01 82 	lis     r9,386
 18053a8:	99 0a a3 f8 	stb     r8,-23560(r10)
 18053ac:	98 e9 a3 fb 	stb     r7,-23557(r9)
 18053b0:	40 81 00 08 	ble-    18053b8 <send_gps_pos+0x8a4>
 18053b4:	98 fb a3 fa 	stb     r7,-23558(r27)
 18053b8:	39 20 00 58 	li      r9,88
 18053bc:	88 09 00 00 	lbz     r0,0(r9)
 18053c0:	60 00 00 01 	ori     r0,r0,1
 18053c4:	98 09 00 00 	stb     r0,0(r9)
 18053c8:	89 66 00 00 	lbz     r11,0(r6)
 18053cc:	61 6b 00 10 	ori     r11,r11,16
 18053d0:	99 66 00 00 	stb     r11,0(r6)
 18053d4:	48 00 00 14 	b       18053e8 <send_gps_pos+0x8d4>
 18053d8:	3d 60 01 82 	lis     r11,386
 18053dc:	89 2b a3 f7 	lbz     r9,-23561(r11)
 18053e0:	39 29 00 01 	addi    r9,r9,1
 18053e4:	99 2b a3 f7 	stb     r9,-23561(r11)
 18053e8:	48 00 43 d1 	bl      18097b8 <estimator_update_state_gps>
 18053ec:	80 01 00 24 	lwz     r0,36(r1)
 18053f0:	7c 08 03 a6 	mtlr    r0
 18053f4:	83 61 00 0c 	lwz     r27,12(r1)
 18053f8:	83 81 00 10 	lwz     r28,16(r1)
 18053fc:	83 a1 00 14 	lwz     r29,20(r1)
 1805400:	83 c1 00 18 	lwz     r30,24(r1)
 1805404:	83 e1 00 1c 	lwz     r31,28(r1)
 1805408:	38 21 00 20 	addi    r1,r1,32
 180540c:	4e 80 00 20 	blr

01805410 <send_radIR>:
 1805410:	94 21 ff e0 	stwu    r1,-32(r1)
 1805414:	93 61 00 0c 	stw     r27,12(r1)
 1805418:	93 81 00 10 	stw     r28,16(r1)
 180541c:	93 a1 00 14 	stw     r29,20(r1)
 1805420:	93 c1 00 18 	stw     r30,24(r1)
 1805424:	93 e1 00 1c 	stw     r31,28(r1)
 1805428:	3d 20 01 82 	lis     r9,386
 180542c:	88 09 a4 31 	lbz     r0,-23503(r9)
 1805430:	2c 00 00 00 	cmpwi   r0,0
 1805434:	41 82 05 78 	beq-    18059ac <send_radIR+0x59c>
 1805438:	3d 20 01 82 	lis     r9,386
 180543c:	3d 60 01 82 	lis     r11,386
 1805440:	89 29 a3 f9 	lbz     r9,-23559(r9)
 1805444:	88 0b a3 fa 	lbz     r0,-23558(r11)
 1805448:	3c c0 01 82 	lis     r6,386
 180544c:	7c 09 00 40 	cmplw   r9,r0
 1805450:	3f 60 01 82 	lis     r27,386
 1805454:	41 80 00 1c 	blt-    1805470 <send_radIR+0x60>
 1805458:	88 1b a3 fa 	lbz     r0,-23558(r27)
 180545c:	7c 00 48 50 	subf    r0,r0,r9
 1805460:	20 00 00 ff 	subfic  r0,r0,255
 1805464:	2c 00 00 14 	cmpwi   r0,20
 1805468:	41 81 00 18 	bgt-    1805480 <send_radIR+0x70>
 180546c:	48 00 05 30 	b       180599c <send_radIR+0x58c>
 1805470:	88 1b a3 fa 	lbz     r0,-23558(r27)
 1805474:	7c 09 00 50 	subf    r0,r9,r0
 1805478:	2c 00 00 14 	cmpwi   r0,20
 180547c:	40 81 05 20 	ble-    180599c <send_radIR+0x58c>
 1805480:	3d 60 01 82 	lis     r11,386
 1805484:	89 2b a3 f9 	lbz     r9,-23559(r11)
 1805488:	3d 40 01 82 	lis     r10,386
 180548c:	39 09 00 01 	addi    r8,r9,1
 1805490:	38 6a a8 b4 	addi    r3,r10,-22348
 1805494:	55 00 06 3e 	clrlwi  r0,r8,24
 1805498:	55 29 06 3e 	clrlwi  r9,r9,24
 180549c:	39 40 00 05 	li      r10,5
 18054a0:	28 00 00 fe 	cmplwi  r0,254
 18054a4:	7d 43 49 ae 	stbx    r10,r3,r9
 18054a8:	38 8b a3 f9 	addi    r4,r11,-23559
 18054ac:	99 0b a3 f9 	stb     r8,-23559(r11)
 18054b0:	40 81 00 0c 	ble-    18054bc <send_radIR+0xac>
 18054b4:	38 00 00 00 	li      r0,0
 18054b8:	98 06 a3 f9 	stb     r0,-23559(r6)
 18054bc:	89 26 a3 f9 	lbz     r9,-23559(r6)
 18054c0:	39 69 00 01 	addi    r11,r9,1
 18054c4:	55 60 06 3e 	clrlwi  r0,r11,24
 18054c8:	55 29 06 3e 	clrlwi  r9,r9,24
 18054cc:	28 00 00 fe 	cmplwi  r0,254
 18054d0:	7d 43 49 ae 	stbx    r10,r3,r9
 18054d4:	99 66 a3 f9 	stb     r11,-23559(r6)
 18054d8:	40 81 00 0c 	ble-    18054e4 <send_radIR+0xd4>
 18054dc:	38 00 00 00 	li      r0,0
 18054e0:	98 06 a3 f9 	stb     r0,-23559(r6)
 18054e4:	89 46 a3 f9 	lbz     r10,-23559(r6)
 18054e8:	3d 20 01 82 	lis     r9,386
 18054ec:	39 0a 00 01 	addi    r8,r10,1
 18054f0:	89 69 a4 d0 	lbz     r11,-23344(r9)
 18054f4:	55 00 06 3e 	clrlwi  r0,r8,24
 18054f8:	55 4a 06 3e 	clrlwi  r10,r10,24
 18054fc:	28 00 00 fe 	cmplwi  r0,254
 1805500:	7d 63 51 ae 	stbx    r11,r3,r10
 1805504:	3f e0 01 82 	lis     r31,386
 1805508:	3d 80 01 82 	lis     r12,386
 180550c:	38 ab 00 0a 	addi    r5,r11,10
 1805510:	38 eb 00 05 	addi    r7,r11,5
 1805514:	3b c9 a4 d0 	addi    r30,r9,-23344
 1805518:	3b bf a3 fc 	addi    r29,r31,-23556
 180551c:	3b 8c a3 f6 	addi    r28,r12,-23562
 1805520:	98 ff a3 fc 	stb     r7,-23556(r31)
 1805524:	98 ac a3 f6 	stb     r5,-23562(r12)
 1805528:	99 06 a3 f9 	stb     r8,-23559(r6)
 180552c:	40 81 00 0c 	ble-    1805538 <send_radIR+0x128>
 1805530:	38 00 00 00 	li      r0,0
 1805534:	98 06 a3 f9 	stb     r0,-23559(r6)
 1805538:	89 26 a3 f9 	lbz     r9,-23559(r6)
 180553c:	89 7e 00 01 	lbz     r11,1(r30)
 1805540:	39 49 00 01 	addi    r10,r9,1
 1805544:	55 40 06 3e 	clrlwi  r0,r10,24
 1805548:	7d 07 5a 14 	add     r8,r7,r11
 180554c:	55 29 06 3e 	clrlwi  r9,r9,24
 1805550:	28 00 00 fe 	cmplwi  r0,254
 1805554:	7d 63 49 ae 	stbx    r11,r3,r9
 1805558:	7c e5 42 14 	add     r7,r5,r8
 180555c:	99 1f a3 fc 	stb     r8,-23556(r31)
 1805560:	98 ec a3 f6 	stb     r7,-23562(r12)
 1805564:	99 46 a3 f9 	stb     r10,-23559(r6)
 1805568:	40 81 00 0c 	ble-    1805574 <send_radIR+0x164>
 180556c:	38 00 00 00 	li      r0,0
 1805570:	98 06 a3 f9 	stb     r0,-23559(r6)
 1805574:	89 26 a3 f9 	lbz     r9,-23559(r6)
 1805578:	89 7e 00 02 	lbz     r11,2(r30)
 180557c:	39 49 00 01 	addi    r10,r9,1
 1805580:	55 40 06 3e 	clrlwi  r0,r10,24
 1805584:	7d 08 5a 14 	add     r8,r8,r11
 1805588:	55 29 06 3e 	clrlwi  r9,r9,24
 180558c:	28 00 00 fe 	cmplwi  r0,254
 1805590:	7d 63 49 ae 	stbx    r11,r3,r9
 1805594:	7c a7 42 14 	add     r5,r7,r8
 1805598:	99 1f a3 fc 	stb     r8,-23556(r31)
 180559c:	98 ac a3 f6 	stb     r5,-23562(r12)
 18055a0:	99 46 a3 f9 	stb     r10,-23559(r6)
 18055a4:	40 81 00 0c 	ble-    18055b0 <send_radIR+0x1a0>
 18055a8:	38 00 00 00 	li      r0,0
 18055ac:	98 06 a3 f9 	stb     r0,-23559(r6)
 18055b0:	89 26 a3 f9 	lbz     r9,-23559(r6)
 18055b4:	89 7e 00 03 	lbz     r11,3(r30)
 18055b8:	39 49 00 01 	addi    r10,r9,1
 18055bc:	55 40 06 3e 	clrlwi  r0,r10,24
 18055c0:	7c e8 5a 14 	add     r7,r8,r11
 18055c4:	55 29 06 3e 	clrlwi  r9,r9,24
 18055c8:	28 00 00 fe 	cmplwi  r0,254
 18055cc:	7d 63 49 ae 	stbx    r11,r3,r9
 18055d0:	7c a5 3a 14 	add     r5,r5,r7
 18055d4:	98 ff a3 fc 	stb     r7,-23556(r31)
 18055d8:	98 ac a3 f6 	stb     r5,-23562(r12)
 18055dc:	99 46 a3 f9 	stb     r10,-23559(r6)
 18055e0:	40 81 00 0c 	ble-    18055ec <send_radIR+0x1dc>
 18055e4:	38 00 00 00 	li      r0,0
 18055e8:	98 06 a3 f9 	stb     r0,-23559(r6)
 18055ec:	89 66 a3 f9 	lbz     r11,-23559(r6)
 18055f0:	3d 20 01 82 	lis     r9,386
 18055f4:	39 0b 00 01 	addi    r8,r11,1
 18055f8:	89 49 a4 e8 	lbz     r10,-23320(r9)
 18055fc:	55 00 06 3e 	clrlwi  r0,r8,24
 1805600:	7c e7 52 14 	add     r7,r7,r10
 1805604:	55 6b 06 3e 	clrlwi  r11,r11,24
 1805608:	28 00 00 fe 	cmplwi  r0,254
 180560c:	7d 43 59 ae 	stbx    r10,r3,r11
 1805610:	7c a5 3a 14 	add     r5,r5,r7
 1805614:	3b c9 a4 e8 	addi    r30,r9,-23320
 1805618:	98 ff a3 fc 	stb     r7,-23556(r31)
 180561c:	98 ac a3 f6 	stb     r5,-23562(r12)
 1805620:	99 06 a3 f9 	stb     r8,-23559(r6)
 1805624:	40 81 00 0c 	ble-    1805630 <send_radIR+0x220>
 1805628:	38 00 00 00 	li      r0,0
 180562c:	98 06 a3 f9 	stb     r0,-23559(r6)
 1805630:	89 26 a3 f9 	lbz     r9,-23559(r6)
 1805634:	89 7e 00 01 	lbz     r11,1(r30)
 1805638:	39 49 00 01 	addi    r10,r9,1
 180563c:	55 40 06 3e 	clrlwi  r0,r10,24
 1805640:	7d 07 5a 14 	add     r8,r7,r11
 1805644:	55 29 06 3e 	clrlwi  r9,r9,24
 1805648:	28 00 00 fe 	cmplwi  r0,254
 180564c:	7d 63 49 ae 	stbx    r11,r3,r9
 1805650:	7c e5 42 14 	add     r7,r5,r8
 1805654:	99 1f a3 fc 	stb     r8,-23556(r31)
 1805658:	98 ec a3 f6 	stb     r7,-23562(r12)
 180565c:	99 46 a3 f9 	stb     r10,-23559(r6)
 1805660:	40 81 00 0c 	ble-    180566c <send_radIR+0x25c>
 1805664:	38 00 00 00 	li      r0,0
 1805668:	98 06 a3 f9 	stb     r0,-23559(r6)
 180566c:	89 26 a3 f9 	lbz     r9,-23559(r6)
 1805670:	89 7e 00 02 	lbz     r11,2(r30)
 1805674:	39 49 00 01 	addi    r10,r9,1
 1805678:	55 40 06 3e 	clrlwi  r0,r10,24
 180567c:	7d 08 5a 14 	add     r8,r8,r11
 1805680:	55 29 06 3e 	clrlwi  r9,r9,24
 1805684:	28 00 00 fe 	cmplwi  r0,254
 1805688:	7d 63 49 ae 	stbx    r11,r3,r9
 180568c:	7c a7 42 14 	add     r5,r7,r8
 1805690:	99 1f a3 fc 	stb     r8,-23556(r31)
 1805694:	98 ac a3 f6 	stb     r5,-23562(r12)
 1805698:	99 46 a3 f9 	stb     r10,-23559(r6)
 180569c:	40 81 00 0c 	ble-    18056a8 <send_radIR+0x298>
 18056a0:	38 00 00 00 	li      r0,0
 18056a4:	98 06 a3 f9 	stb     r0,-23559(r6)
 18056a8:	89 26 a3 f9 	lbz     r9,-23559(r6)
 18056ac:	89 7e 00 03 	lbz     r11,3(r30)
 18056b0:	39 49 00 01 	addi    r10,r9,1
 18056b4:	55 40 06 3e 	clrlwi  r0,r10,24
 18056b8:	7c e8 5a 14 	add     r7,r8,r11
 18056bc:	55 29 06 3e 	clrlwi  r9,r9,24
 18056c0:	28 00 00 fe 	cmplwi  r0,254
 18056c4:	7d 63 49 ae 	stbx    r11,r3,r9
 18056c8:	7c a5 3a 14 	add     r5,r5,r7
 18056cc:	98 ff a3 fc 	stb     r7,-23556(r31)
 18056d0:	98 ac a3 f6 	stb     r5,-23562(r12)
 18056d4:	99 46 a3 f9 	stb     r10,-23559(r6)
 18056d8:	40 81 00 0c 	ble-    18056e4 <send_radIR+0x2d4>
 18056dc:	38 00 00 00 	li      r0,0
 18056e0:	98 06 a3 f9 	stb     r0,-23559(r6)
 18056e4:	89 64 00 00 	lbz     r11,0(r4)
 18056e8:	3d 20 01 82 	lis     r9,386
 18056ec:	89 49 a4 c8 	lbz     r10,-23352(r9)
 18056f0:	39 0b 00 01 	addi    r8,r11,1
 18056f4:	7c c7 52 14 	add     r6,r7,r10
 18056f8:	55 00 06 3e 	clrlwi  r0,r8,24
 18056fc:	55 6b 06 3e 	clrlwi  r11,r11,24
 1805700:	7d 43 59 ae 	stbx    r10,r3,r11
 1805704:	7c a5 32 14 	add     r5,r5,r6
 1805708:	28 00 00 fe 	cmplwi  r0,254
 180570c:	98 df a3 fc 	stb     r6,-23556(r31)
 1805710:	98 ac a3 f6 	stb     r5,-23562(r12)
 1805714:	3b c9 a4 c8 	addi    r30,r9,-23352
 1805718:	99 04 00 00 	stb     r8,0(r4)
 180571c:	40 81 00 0c 	ble-    1805728 <send_radIR+0x318>
 1805720:	38 00 00 00 	li      r0,0
 1805724:	98 04 00 00 	stb     r0,0(r4)
 1805728:	89 1e 00 01 	lbz     r8,1(r30)
 180572c:	89 24 00 00 	lbz     r9,0(r4)
 1805730:	7d 46 42 14 	add     r10,r6,r8
 1805734:	38 e9 00 01 	addi    r7,r9,1
 1805738:	7d 65 52 14 	add     r11,r5,r10
 180573c:	99 6c a3 f6 	stb     r11,-23562(r12)
 1805740:	54 e0 06 3e 	clrlwi  r0,r7,24
 1805744:	55 29 06 3e 	clrlwi  r9,r9,24
 1805748:	7d 03 49 ae 	stbx    r8,r3,r9
 180574c:	28 00 00 fe 	cmplwi  r0,254
 1805750:	99 5f a3 fc 	stb     r10,-23556(r31)
 1805754:	98 e4 00 00 	stb     r7,0(r4)
 1805758:	40 81 00 0c 	ble-    1805764 <send_radIR+0x354>
 180575c:	38 00 00 00 	li      r0,0
 1805760:	98 04 00 00 	stb     r0,0(r4)
 1805764:	89 24 00 00 	lbz     r9,0(r4)
 1805768:	89 1e 00 02 	lbz     r8,2(r30)
 180576c:	88 1d 00 00 	lbz     r0,0(r29)
 1805770:	89 7c 00 00 	lbz     r11,0(r28)
 1805774:	38 e9 00 01 	addi    r7,r9,1
 1805778:	7c c0 42 14 	add     r6,r0,r8
 180577c:	54 ea 06 3e 	clrlwi  r10,r7,24
 1805780:	55 29 06 3e 	clrlwi  r9,r9,24
 1805784:	7d 03 49 ae 	stbx    r8,r3,r9
 1805788:	7c ab 32 14 	add     r5,r11,r6
 180578c:	28 0a 00 fe 	cmplwi  r10,254
 1805790:	98 dd 00 00 	stb     r6,0(r29)
 1805794:	98 bc 00 00 	stb     r5,0(r28)
 1805798:	98 e4 00 00 	stb     r7,0(r4)
 180579c:	40 81 00 0c 	ble-    18057a8 <send_radIR+0x398>
 18057a0:	38 00 00 00 	li      r0,0
 18057a4:	98 04 00 00 	stb     r0,0(r4)
 18057a8:	89 24 00 00 	lbz     r9,0(r4)
 18057ac:	89 7e 00 03 	lbz     r11,3(r30)
 18057b0:	39 49 00 01 	addi    r10,r9,1
 18057b4:	7c e6 5a 14 	add     r7,r6,r11
 18057b8:	55 40 06 3e 	clrlwi  r0,r10,24
 18057bc:	55 29 06 3e 	clrlwi  r9,r9,24
 18057c0:	7d 63 49 ae 	stbx    r11,r3,r9
 18057c4:	7c c5 3a 14 	add     r6,r5,r7
 18057c8:	28 00 00 fe 	cmplwi  r0,254
 18057cc:	98 fd 00 00 	stb     r7,0(r29)
 18057d0:	98 dc 00 00 	stb     r6,0(r28)
 18057d4:	99 44 00 00 	stb     r10,0(r4)
 18057d8:	40 81 00 0c 	ble-    18057e4 <send_radIR+0x3d4>
 18057dc:	38 00 00 00 	li      r0,0
 18057e0:	98 04 00 00 	stb     r0,0(r4)
 18057e4:	89 64 00 00 	lbz     r11,0(r4)
 18057e8:	3d 20 01 82 	lis     r9,386
 18057ec:	89 49 a3 6a 	lbz     r10,-23702(r9)
 18057f0:	39 0b 00 01 	addi    r8,r11,1
 18057f4:	7c e7 52 14 	add     r7,r7,r10
 18057f8:	55 00 06 3e 	clrlwi  r0,r8,24
 18057fc:	55 6b 06 3e 	clrlwi  r11,r11,24
 1805800:	7d 43 59 ae 	stbx    r10,r3,r11
 1805804:	7c c6 3a 14 	add     r6,r6,r7
 1805808:	28 00 00 fe 	cmplwi  r0,254
 180580c:	98 fd 00 00 	stb     r7,0(r29)
 1805810:	98 dc 00 00 	stb     r6,0(r28)
 1805814:	38 a9 a3 6a 	addi    r5,r9,-23702
 1805818:	99 04 00 00 	stb     r8,0(r4)
 180581c:	40 81 00 0c 	ble-    1805828 <send_radIR+0x418>
 1805820:	38 00 00 00 	li      r0,0
 1805824:	98 04 00 00 	stb     r0,0(r4)
 1805828:	89 24 00 00 	lbz     r9,0(r4)
 180582c:	89 65 00 01 	lbz     r11,1(r5)
 1805830:	39 49 00 01 	addi    r10,r9,1
 1805834:	7c e7 5a 14 	add     r7,r7,r11
 1805838:	55 40 06 3e 	clrlwi  r0,r10,24
 180583c:	55 29 06 3e 	clrlwi  r9,r9,24
 1805840:	7d 63 49 ae 	stbx    r11,r3,r9
 1805844:	7c c6 3a 14 	add     r6,r6,r7
 1805848:	28 00 00 fe 	cmplwi  r0,254
 180584c:	98 fd 00 00 	stb     r7,0(r29)
 1805850:	98 dc 00 00 	stb     r6,0(r28)
 1805854:	99 44 00 00 	stb     r10,0(r4)
 1805858:	40 81 00 0c 	ble-    1805864 <send_radIR+0x454>
 180585c:	38 00 00 00 	li      r0,0
 1805860:	98 04 00 00 	stb     r0,0(r4)
 1805864:	89 64 00 00 	lbz     r11,0(r4)
 1805868:	3d 20 01 82 	lis     r9,386
 180586c:	89 49 a3 6c 	lbz     r10,-23700(r9)
 1805870:	39 0b 00 01 	addi    r8,r11,1
 1805874:	7c e7 52 14 	add     r7,r7,r10
 1805878:	55 00 06 3e 	clrlwi  r0,r8,24
 180587c:	55 6b 06 3e 	clrlwi  r11,r11,24
 1805880:	7d 43 59 ae 	stbx    r10,r3,r11
 1805884:	7c c6 3a 14 	add     r6,r6,r7
 1805888:	28 00 00 fe 	cmplwi  r0,254
 180588c:	98 fd 00 00 	stb     r7,0(r29)
 1805890:	98 dc 00 00 	stb     r6,0(r28)
 1805894:	38 a9 a3 6c 	addi    r5,r9,-23700
 1805898:	99 04 00 00 	stb     r8,0(r4)
 180589c:	40 81 00 0c 	ble-    18058a8 <send_radIR+0x498>
 18058a0:	38 00 00 00 	li      r0,0
 18058a4:	98 04 00 00 	stb     r0,0(r4)
 18058a8:	89 24 00 00 	lbz     r9,0(r4)
 18058ac:	89 65 00 01 	lbz     r11,1(r5)
 18058b0:	39 49 00 01 	addi    r10,r9,1
 18058b4:	7d 07 5a 14 	add     r8,r7,r11
 18058b8:	55 40 06 3e 	clrlwi  r0,r10,24
 18058bc:	55 29 06 3e 	clrlwi  r9,r9,24
 18058c0:	7d 63 49 ae 	stbx    r11,r3,r9
 18058c4:	7c e6 42 14 	add     r7,r6,r8
 18058c8:	28 00 00 fe 	cmplwi  r0,254
 18058cc:	99 1d 00 00 	stb     r8,0(r29)
 18058d0:	98 fc 00 00 	stb     r7,0(r28)
 18058d4:	99 44 00 00 	stb     r10,0(r4)
 18058d8:	40 81 00 0c 	ble-    18058e4 <send_radIR+0x4d4>
 18058dc:	38 00 00 00 	li      r0,0
 18058e0:	98 04 00 00 	stb     r0,0(r4)
 18058e4:	89 24 00 00 	lbz     r9,0(r4)
 18058e8:	39 69 00 01 	addi    r11,r9,1
 18058ec:	55 60 06 3e 	clrlwi  r0,r11,24
 18058f0:	55 29 06 3e 	clrlwi  r9,r9,24
 18058f4:	28 00 00 fe 	cmplwi  r0,254
 18058f8:	7d 03 49 ae 	stbx    r8,r3,r9
 18058fc:	99 64 00 00 	stb     r11,0(r4)
 1805900:	40 81 00 0c 	ble-    180590c <send_radIR+0x4fc>
 1805904:	38 00 00 00 	li      r0,0
 1805908:	98 04 00 00 	stb     r0,0(r4)
 180590c:	89 24 00 00 	lbz     r9,0(r4)
 1805910:	39 69 00 01 	addi    r11,r9,1
 1805914:	55 60 06 3e 	clrlwi  r0,r11,24
 1805918:	55 29 06 3e 	clrlwi  r9,r9,24
 180591c:	28 00 00 fe 	cmplwi  r0,254
 1805920:	7c e3 49 ae 	stbx    r7,r3,r9
 1805924:	99 64 00 00 	stb     r11,0(r4)
 1805928:	40 81 00 0c 	ble-    1805934 <send_radIR+0x524>
 180592c:	38 00 00 00 	li      r0,0
 1805930:	98 04 00 00 	stb     r0,0(r4)
 1805934:	38 c0 00 59 	li      r6,89
 1805938:	88 06 00 00 	lbz     r0,0(r6)
 180593c:	70 07 00 10 	andi.   r7,r0,16
 1805940:	40 82 00 6c 	bne-    18059ac <send_radIR+0x59c>
 1805944:	3d 60 01 82 	lis     r11,386
 1805948:	88 0b a3 fa 	lbz     r0,-23558(r11)
 180594c:	89 2b a3 fa 	lbz     r9,-23558(r11)
 1805950:	7d 03 00 ae 	lbzx    r8,r3,r0
 1805954:	39 29 00 01 	addi    r9,r9,1
 1805958:	99 2b a3 fa 	stb     r9,-23558(r11)
 180595c:	88 0b a3 fa 	lbz     r0,-23558(r11)
 1805960:	3d 40 01 82 	lis     r10,386
 1805964:	28 00 00 fe 	cmplwi  r0,254
 1805968:	3d 20 01 82 	lis     r9,386
 180596c:	99 0a a3 f8 	stb     r8,-23560(r10)
 1805970:	98 e9 a3 fb 	stb     r7,-23557(r9)
 1805974:	40 81 00 08 	ble-    180597c <send_radIR+0x56c>
 1805978:	98 fb a3 fa 	stb     r7,-23558(r27)
 180597c:	39 20 00 58 	li      r9,88
 1805980:	88 09 00 00 	lbz     r0,0(r9)
 1805984:	60 00 00 01 	ori     r0,r0,1
 1805988:	98 09 00 00 	stb     r0,0(r9)
 180598c:	89 66 00 00 	lbz     r11,0(r6)
 1805990:	61 6b 00 10 	ori     r11,r11,16
 1805994:	99 66 00 00 	stb     r11,0(r6)
 1805998:	48 00 00 14 	b       18059ac <send_radIR+0x59c>
 180599c:	3d 60 01 82 	lis     r11,386
 18059a0:	89 2b a3 f7 	lbz     r9,-23561(r11)
 18059a4:	39 29 00 01 	addi    r9,r9,1
 18059a8:	99 2b a3 f7 	stb     r9,-23561(r11)
 18059ac:	83 61 00 0c 	lwz     r27,12(r1)
 18059b0:	83 81 00 10 	lwz     r28,16(r1)
 18059b4:	83 a1 00 14 	lwz     r29,20(r1)
 18059b8:	83 c1 00 18 	lwz     r30,24(r1)
 18059bc:	83 e1 00 1c 	lwz     r31,28(r1)
 18059c0:	38 21 00 20 	addi    r1,r1,32
 18059c4:	4e 80 00 20 	blr

018059c8 <send_takeOff>:
 18059c8:	94 21 ff f0 	stwu    r1,-16(r1)
 18059cc:	93 c1 00 08 	stw     r30,8(r1)
 18059d0:	93 e1 00 0c 	stw     r31,12(r1)
 18059d4:	3d 20 01 82 	lis     r9,386
 18059d8:	88 09 a4 31 	lbz     r0,-23503(r9)
 18059dc:	2c 00 00 00 	cmpwi   r0,0
 18059e0:	41 82 02 48 	beq-    1805c28 <send_takeOff+0x260>
 18059e4:	3c e0 01 82 	lis     r7,386
 18059e8:	a0 07 a4 b4 	lhz     r0,-23372(r7)
 18059ec:	2c 00 00 00 	cmpwi   r0,0
 18059f0:	40 82 02 2c 	bne-    1805c1c <send_takeOff+0x254>
 18059f4:	3d 20 01 82 	lis     r9,386
 18059f8:	c0 09 a4 d4 	lfs     f0,-23340(r9)
 18059fc:	3d 20 01 81 	lis     r9,385
 1805a00:	39 29 9f 58 	addi    r9,r9,-24744
 1805a04:	c9 a9 00 00 	lfd     f13,0(r9)
 1805a08:	fc 00 68 00 	fcmpu   cr0,f0,f13
 1805a0c:	40 81 02 10 	ble-    1805c1c <send_takeOff+0x254>
 1805a10:	3d 20 01 82 	lis     r9,386
 1805a14:	3d 60 01 82 	lis     r11,386
 1805a18:	89 09 a3 f9 	lbz     r8,-23559(r9)
 1805a1c:	88 0b a3 fa 	lbz     r0,-23558(r11)
 1805a20:	39 40 00 01 	li      r10,1
 1805a24:	7c 08 00 40 	cmplw   r8,r0
 1805a28:	3d 20 01 82 	lis     r9,386
 1805a2c:	99 49 a3 4c 	stb     r10,-23732(r9)
 1805a30:	b1 47 a4 b4 	sth     r10,-23372(r7)
 1805a34:	3c c0 01 82 	lis     r6,386
 1805a38:	3f c0 01 82 	lis     r30,386
 1805a3c:	41 80 00 1c 	blt-    1805a58 <send_takeOff+0x90>
 1805a40:	88 1e a3 fa 	lbz     r0,-23558(r30)
 1805a44:	7c 00 40 50 	subf    r0,r0,r8
 1805a48:	20 00 00 ff 	subfic  r0,r0,255
 1805a4c:	2c 00 00 06 	cmpwi   r0,6
 1805a50:	41 81 00 18 	bgt-    1805a68 <send_takeOff+0xa0>
 1805a54:	48 00 01 b8 	b       1805c0c <send_takeOff+0x244>
 1805a58:	88 1e a3 fa 	lbz     r0,-23558(r30)
 1805a5c:	7c 08 00 50 	subf    r0,r8,r0
 1805a60:	2c 00 00 06 	cmpwi   r0,6
 1805a64:	40 81 01 a8 	ble-    1805c0c <send_takeOff+0x244>
 1805a68:	3d 00 01 82 	lis     r8,386
 1805a6c:	89 28 a3 f9 	lbz     r9,-23559(r8)
 1805a70:	3d 60 01 82 	lis     r11,386
 1805a74:	39 49 00 01 	addi    r10,r9,1
 1805a78:	55 40 06 3e 	clrlwi  r0,r10,24
 1805a7c:	28 00 00 fe 	cmplwi  r0,254
 1805a80:	38 8b a8 b4 	addi    r4,r11,-22348
 1805a84:	55 29 06 3e 	clrlwi  r9,r9,24
 1805a88:	38 00 00 05 	li      r0,5
 1805a8c:	7c 04 49 ae 	stbx    r0,r4,r9
 1805a90:	99 48 a3 f9 	stb     r10,-23559(r8)
 1805a94:	40 81 00 0c 	ble-    1805aa0 <send_takeOff+0xd8>
 1805a98:	38 00 00 00 	li      r0,0
 1805a9c:	98 06 a3 f9 	stb     r0,-23559(r6)
 1805aa0:	89 26 a3 f9 	lbz     r9,-23559(r6)
 1805aa4:	39 40 00 04 	li      r10,4
 1805aa8:	39 69 00 01 	addi    r11,r9,1
 1805aac:	55 60 06 3e 	clrlwi  r0,r11,24
 1805ab0:	55 29 06 3e 	clrlwi  r9,r9,24
 1805ab4:	28 00 00 fe 	cmplwi  r0,254
 1805ab8:	7d 44 49 ae 	stbx    r10,r4,r9
 1805abc:	99 66 a3 f9 	stb     r11,-23559(r6)
 1805ac0:	40 81 00 0c 	ble-    1805acc <send_takeOff+0x104>
 1805ac4:	38 00 00 00 	li      r0,0
 1805ac8:	98 06 a3 f9 	stb     r0,-23559(r6)
 1805acc:	89 66 a3 f9 	lbz     r11,-23559(r6)
 1805ad0:	3d 20 01 82 	lis     r9,386
 1805ad4:	39 0b 00 01 	addi    r8,r11,1
 1805ad8:	89 49 a3 44 	lbz     r10,-23740(r9)
 1805adc:	55 00 06 3e 	clrlwi  r0,r8,24
 1805ae0:	38 ea 00 04 	addi    r7,r10,4
 1805ae4:	55 6b 06 3e 	clrlwi  r11,r11,24
 1805ae8:	28 00 00 fe 	cmplwi  r0,254
 1805aec:	7d 44 59 ae 	stbx    r10,r4,r11
 1805af0:	38 a7 00 04 	addi    r5,r7,4
 1805af4:	3c 60 01 82 	lis     r3,386
 1805af8:	3d 80 01 82 	lis     r12,386
 1805afc:	3b e9 a3 44 	addi    r31,r9,-23740
 1805b00:	98 e3 a3 fc 	stb     r7,-23556(r3)
 1805b04:	98 ac a3 f6 	stb     r5,-23562(r12)
 1805b08:	99 06 a3 f9 	stb     r8,-23559(r6)
 1805b0c:	40 81 00 0c 	ble-    1805b18 <send_takeOff+0x150>
 1805b10:	38 00 00 00 	li      r0,0
 1805b14:	98 06 a3 f9 	stb     r0,-23559(r6)
 1805b18:	89 26 a3 f9 	lbz     r9,-23559(r6)
 1805b1c:	89 7f 00 01 	lbz     r11,1(r31)
 1805b20:	39 49 00 01 	addi    r10,r9,1
 1805b24:	55 40 06 3e 	clrlwi  r0,r10,24
 1805b28:	7d 07 5a 14 	add     r8,r7,r11
 1805b2c:	55 29 06 3e 	clrlwi  r9,r9,24
 1805b30:	28 00 00 fe 	cmplwi  r0,254
 1805b34:	7d 64 49 ae 	stbx    r11,r4,r9
 1805b38:	7c e5 42 14 	add     r7,r5,r8
 1805b3c:	99 03 a3 fc 	stb     r8,-23556(r3)
 1805b40:	98 ec a3 f6 	stb     r7,-23562(r12)
 1805b44:	99 46 a3 f9 	stb     r10,-23559(r6)
 1805b48:	40 81 00 0c 	ble-    1805b54 <send_takeOff+0x18c>
 1805b4c:	38 00 00 00 	li      r0,0
 1805b50:	98 06 a3 f9 	stb     r0,-23559(r6)
 1805b54:	89 26 a3 f9 	lbz     r9,-23559(r6)
 1805b58:	39 69 00 01 	addi    r11,r9,1
 1805b5c:	55 60 06 3e 	clrlwi  r0,r11,24
 1805b60:	55 29 06 3e 	clrlwi  r9,r9,24
 1805b64:	28 00 00 fe 	cmplwi  r0,254
 1805b68:	7d 04 49 ae 	stbx    r8,r4,r9
 1805b6c:	99 66 a3 f9 	stb     r11,-23559(r6)
 1805b70:	40 81 00 0c 	ble-    1805b7c <send_takeOff+0x1b4>
 1805b74:	38 00 00 00 	li      r0,0
 1805b78:	98 06 a3 f9 	stb     r0,-23559(r6)
 1805b7c:	89 26 a3 f9 	lbz     r9,-23559(r6)
 1805b80:	39 69 00 01 	addi    r11,r9,1
 1805b84:	55 60 06 3e 	clrlwi  r0,r11,24
 1805b88:	55 29 06 3e 	clrlwi  r9,r9,24
 1805b8c:	28 00 00 fe 	cmplwi  r0,254
 1805b90:	7c e4 49 ae 	stbx    r7,r4,r9
 1805b94:	99 66 a3 f9 	stb     r11,-23559(r6)
 1805b98:	40 81 00 0c 	ble-    1805ba4 <send_takeOff+0x1dc>
 1805b9c:	38 00 00 00 	li      r0,0
 1805ba0:	98 06 a3 f9 	stb     r0,-23559(r6)
 1805ba4:	38 c0 00 59 	li      r6,89
 1805ba8:	88 06 00 00 	lbz     r0,0(r6)
 1805bac:	70 07 00 10 	andi.   r7,r0,16
 1805bb0:	40 82 00 6c 	bne-    1805c1c <send_takeOff+0x254>
 1805bb4:	3d 60 01 82 	lis     r11,386
 1805bb8:	88 0b a3 fa 	lbz     r0,-23558(r11)
 1805bbc:	89 2b a3 fa 	lbz     r9,-23558(r11)
 1805bc0:	7d 04 00 ae 	lbzx    r8,r4,r0
 1805bc4:	39 29 00 01 	addi    r9,r9,1
 1805bc8:	99 2b a3 fa 	stb     r9,-23558(r11)
 1805bcc:	88 0b a3 fa 	lbz     r0,-23558(r11)
 1805bd0:	3d 40 01 82 	lis     r10,386
 1805bd4:	28 00 00 fe 	cmplwi  r0,254
 1805bd8:	3d 20 01 82 	lis     r9,386
 1805bdc:	99 0a a3 f8 	stb     r8,-23560(r10)
 1805be0:	98 e9 a3 fb 	stb     r7,-23557(r9)
 1805be4:	40 81 00 08 	ble-    1805bec <send_takeOff+0x224>
 1805be8:	98 fe a3 fa 	stb     r7,-23558(r30)
 1805bec:	39 20 00 58 	li      r9,88
 1805bf0:	88 09 00 00 	lbz     r0,0(r9)
 1805bf4:	60 00 00 01 	ori     r0,r0,1
 1805bf8:	98 09 00 00 	stb     r0,0(r9)
 1805bfc:	89 66 00 00 	lbz     r11,0(r6)
 1805c00:	61 6b 00 10 	ori     r11,r11,16
 1805c04:	99 66 00 00 	stb     r11,0(r6)
 1805c08:	48 00 00 14 	b       1805c1c <send_takeOff+0x254>
 1805c0c:	3d 60 01 82 	lis     r11,386
 1805c10:	89 2b a3 f7 	lbz     r9,-23561(r11)
 1805c14:	39 29 00 01 	addi    r9,r9,1
 1805c18:	99 2b a3 f7 	stb     r9,-23561(r11)
 1805c1c:	3d 20 01 82 	lis     r9,386
 1805c20:	38 00 00 00 	li      r0,0
 1805c24:	98 09 a4 31 	stb     r0,-23503(r9)
 1805c28:	83 c1 00 08 	lwz     r30,8(r1)
 1805c2c:	83 e1 00 0c 	lwz     r31,12(r1)
 1805c30:	38 21 00 10 	addi    r1,r1,16
 1805c34:	4e 80 00 20 	blr

01805c38 <ground_calibrate>:
 1805c38:	94 21 ff e0 	stwu    r1,-32(r1)
 1805c3c:	7c 08 02 a6 	mflr    r0
 1805c40:	93 41 00 08 	stw     r26,8(r1)
 1805c44:	93 61 00 0c 	stw     r27,12(r1)
 1805c48:	93 81 00 10 	stw     r28,16(r1)
 1805c4c:	93 a1 00 14 	stw     r29,20(r1)
 1805c50:	93 c1 00 18 	stw     r30,24(r1)
 1805c54:	93 e1 00 1c 	stw     r31,28(r1)
 1805c58:	90 01 00 24 	stw     r0,36(r1)
 1805c5c:	3d 20 01 82 	lis     r9,386
 1805c60:	88 09 a3 4e 	lbz     r0,-23730(r9)
 1805c64:	2c 00 00 00 	cmpwi   r0,0
 1805c68:	40 82 01 08 	bne-    1805d70 <ground_calibrate+0x138>
 1805c6c:	3d 20 01 82 	lis     r9,386
 1805c70:	a0 09 a3 44 	lhz     r0,-23740(r9)
 1805c74:	28 00 00 09 	cmplwi  r0,9
 1805c78:	41 81 08 a0 	bgt-    1806518 <ground_calibrate+0x8e0>
 1805c7c:	3d 20 01 82 	lis     r9,386
 1805c80:	89 09 a3 46 	lbz     r8,-23738(r9)
 1805c84:	2c 08 00 01 	cmpwi   r8,1
 1805c88:	40 82 08 90 	bne-    1806518 <ground_calibrate+0x8e0>
 1805c8c:	3d 20 01 82 	lis     r9,386
 1805c90:	3d 60 01 82 	lis     r11,386
 1805c94:	89 49 a3 f9 	lbz     r10,-23559(r9)
 1805c98:	88 0b a3 fa 	lbz     r0,-23558(r11)
 1805c9c:	3d 20 01 82 	lis     r9,386
 1805ca0:	7c 0a 00 40 	cmplw   r10,r0
 1805ca4:	99 09 a3 4e 	stb     r8,-23730(r9)
 1805ca8:	3d 80 01 82 	lis     r12,386
 1805cac:	3f 40 01 82 	lis     r26,386
 1805cb0:	41 80 00 1c 	blt-    1805ccc <ground_calibrate+0x94>
 1805cb4:	88 1a a3 fa 	lbz     r0,-23558(r26)
 1805cb8:	7c 00 50 50 	subf    r0,r0,r10
 1805cbc:	20 00 00 ff 	subfic  r0,r0,255
 1805cc0:	2c 00 00 04 	cmpwi   r0,4
 1805cc4:	41 81 00 18 	bgt-    1805cdc <ground_calibrate+0xa4>
 1805cc8:	48 00 08 40 	b       1806508 <ground_calibrate+0x8d0>
 1805ccc:	88 1a a3 fa 	lbz     r0,-23558(r26)
 1805cd0:	7c 0a 00 50 	subf    r0,r10,r0
 1805cd4:	2c 00 00 04 	cmpwi   r0,4
 1805cd8:	40 81 08 30 	ble-    1806508 <ground_calibrate+0x8d0>
 1805cdc:	3d 00 01 82 	lis     r8,386
 1805ce0:	89 28 a3 f9 	lbz     r9,-23559(r8)
 1805ce4:	3d 60 01 82 	lis     r11,386
 1805ce8:	39 49 00 01 	addi    r10,r9,1
 1805cec:	55 40 06 3e 	clrlwi  r0,r10,24
 1805cf0:	28 00 00 fe 	cmplwi  r0,254
 1805cf4:	38 ab a8 b4 	addi    r5,r11,-22348
 1805cf8:	55 29 06 3e 	clrlwi  r9,r9,24
 1805cfc:	38 00 00 05 	li      r0,5
 1805d00:	7c 05 49 ae 	stbx    r0,r5,r9
 1805d04:	99 48 a3 f9 	stb     r10,-23559(r8)
 1805d08:	40 81 00 0c 	ble-    1805d14 <ground_calibrate+0xdc>
 1805d0c:	38 00 00 00 	li      r0,0
 1805d10:	98 0c a3 f9 	stb     r0,-23559(r12)
 1805d14:	89 2c a3 f9 	lbz     r9,-23559(r12)
 1805d18:	38 e0 00 02 	li      r7,2
 1805d1c:	39 69 00 01 	addi    r11,r9,1
 1805d20:	55 60 06 3e 	clrlwi  r0,r11,24
 1805d24:	55 29 06 3e 	clrlwi  r9,r9,24
 1805d28:	28 00 00 fe 	cmplwi  r0,254
 1805d2c:	7c e5 49 ae 	stbx    r7,r5,r9
 1805d30:	99 6c a3 f9 	stb     r11,-23559(r12)
 1805d34:	40 81 00 0c 	ble-    1805d40 <ground_calibrate+0x108>
 1805d38:	38 00 00 00 	li      r0,0
 1805d3c:	98 0c a3 f9 	stb     r0,-23559(r12)
 1805d40:	89 2c a3 f9 	lbz     r9,-23559(r12)
 1805d44:	3d 00 01 82 	lis     r8,386
 1805d48:	39 49 00 01 	addi    r10,r9,1
 1805d4c:	55 40 06 3e 	clrlwi  r0,r10,24
 1805d50:	55 29 06 3e 	clrlwi  r9,r9,24
 1805d54:	28 00 00 fe 	cmplwi  r0,254
 1805d58:	7c e5 49 ae 	stbx    r7,r5,r9
 1805d5c:	3d 60 01 82 	lis     r11,386
 1805d60:	98 e8 a3 fc 	stb     r7,-23556(r8)
 1805d64:	98 eb a3 f6 	stb     r7,-23562(r11)
 1805d68:	99 4c a3 f9 	stb     r10,-23559(r12)
 1805d6c:	48 00 07 00 	b       180646c <ground_calibrate+0x834>
 1805d70:	2c 00 00 01 	cmpwi   r0,1
 1805d74:	40 82 07 a4 	bne-    1806518 <ground_calibrate+0x8e0>
 1805d78:	3d 60 01 82 	lis     r11,386
 1805d7c:	a1 2b a9 cc 	lhz     r9,-22068(r11)
 1805d80:	39 29 12 c0 	addi    r9,r9,4800
 1805d84:	55 29 04 3e 	clrlwi  r9,r9,16
 1805d88:	28 09 1f 40 	cmplwi  r9,8000
 1805d8c:	40 81 07 8c 	ble-    1806518 <ground_calibrate+0x8e0>
 1805d90:	48 00 13 a1 	bl      1807130 <ir_gain_calib>
 1805d94:	3d 20 01 82 	lis     r9,386
 1805d98:	89 49 a3 f9 	lbz     r10,-23559(r9)
 1805d9c:	3d 60 01 82 	lis     r11,386
 1805da0:	3d 20 01 82 	lis     r9,386
 1805da4:	88 0b a3 fa 	lbz     r0,-23558(r11)
 1805da8:	c0 09 a3 70 	lfs     f0,-23696(r9)
 1805dac:	7c 0a 00 40 	cmplw   r10,r0
 1805db0:	3d 20 01 82 	lis     r9,386
 1805db4:	d0 09 a4 c8 	stfs    f0,-23352(r9)
 1805db8:	3d 80 01 82 	lis     r12,386
 1805dbc:	3f 40 01 82 	lis     r26,386
 1805dc0:	41 80 00 1c 	blt-    1805ddc <ground_calibrate+0x1a4>
 1805dc4:	88 1a a3 fa 	lbz     r0,-23558(r26)
 1805dc8:	7c 00 50 50 	subf    r0,r0,r10
 1805dcc:	20 00 00 ff 	subfic  r0,r0,255
 1805dd0:	2c 00 00 14 	cmpwi   r0,20
 1805dd4:	41 81 00 18 	bgt-    1805dec <ground_calibrate+0x1b4>
 1805dd8:	48 00 05 30 	b       1806308 <ground_calibrate+0x6d0>
 1805ddc:	88 1a a3 fa 	lbz     r0,-23558(r26)
 1805de0:	7c 0a 00 50 	subf    r0,r10,r0
 1805de4:	2c 00 00 14 	cmpwi   r0,20
 1805de8:	40 81 05 20 	ble-    1806308 <ground_calibrate+0x6d0>
 1805dec:	3d 60 01 82 	lis     r11,386
 1805df0:	89 2b a3 f9 	lbz     r9,-23559(r11)
 1805df4:	3d 40 01 82 	lis     r10,386
 1805df8:	39 09 00 01 	addi    r8,r9,1
 1805dfc:	38 6a a8 b4 	addi    r3,r10,-22348
 1805e00:	55 00 06 3e 	clrlwi  r0,r8,24
 1805e04:	55 29 06 3e 	clrlwi  r9,r9,24
 1805e08:	39 40 00 05 	li      r10,5
 1805e0c:	28 00 00 fe 	cmplwi  r0,254
 1805e10:	7d 43 49 ae 	stbx    r10,r3,r9
 1805e14:	38 8b a3 f9 	addi    r4,r11,-23559
 1805e18:	99 0b a3 f9 	stb     r8,-23559(r11)
 1805e1c:	40 81 00 0c 	ble-    1805e28 <ground_calibrate+0x1f0>
 1805e20:	38 00 00 00 	li      r0,0
 1805e24:	98 0c a3 f9 	stb     r0,-23559(r12)
 1805e28:	89 2c a3 f9 	lbz     r9,-23559(r12)
 1805e2c:	39 69 00 01 	addi    r11,r9,1
 1805e30:	55 60 06 3e 	clrlwi  r0,r11,24
 1805e34:	55 29 06 3e 	clrlwi  r9,r9,24
 1805e38:	28 00 00 fe 	cmplwi  r0,254
 1805e3c:	7d 43 49 ae 	stbx    r10,r3,r9
 1805e40:	99 6c a3 f9 	stb     r11,-23559(r12)
 1805e44:	40 81 00 0c 	ble-    1805e50 <ground_calibrate+0x218>
 1805e48:	38 00 00 00 	li      r0,0
 1805e4c:	98 0c a3 f9 	stb     r0,-23559(r12)
 1805e50:	89 6c a3 f9 	lbz     r11,-23559(r12)
 1805e54:	3d 40 01 82 	lis     r10,386
 1805e58:	39 0b 00 01 	addi    r8,r11,1
 1805e5c:	89 2a a4 d0 	lbz     r9,-23344(r10)
 1805e60:	55 00 06 3e 	clrlwi  r0,r8,24
 1805e64:	55 6b 06 3e 	clrlwi  r11,r11,24
 1805e68:	28 00 00 fe 	cmplwi  r0,254
 1805e6c:	7d 23 59 ae 	stbx    r9,r3,r11
 1805e70:	3f c0 01 82 	lis     r30,386
 1805e74:	3f e0 01 82 	lis     r31,386
 1805e78:	38 c9 00 0a 	addi    r6,r9,10
 1805e7c:	38 e9 00 05 	addi    r7,r9,5
 1805e80:	38 aa a4 d0 	addi    r5,r10,-23344
 1805e84:	3b 9e a3 fc 	addi    r28,r30,-23556
 1805e88:	3b 7f a3 f6 	addi    r27,r31,-23562
 1805e8c:	98 fe a3 fc 	stb     r7,-23556(r30)
 1805e90:	98 df a3 f6 	stb     r6,-23562(r31)
 1805e94:	99 0c a3 f9 	stb     r8,-23559(r12)
 1805e98:	40 81 00 0c 	ble-    1805ea4 <ground_calibrate+0x26c>
 1805e9c:	38 00 00 00 	li      r0,0
 1805ea0:	98 0c a3 f9 	stb     r0,-23559(r12)
 1805ea4:	89 2c a3 f9 	lbz     r9,-23559(r12)
 1805ea8:	89 65 00 01 	lbz     r11,1(r5)
 1805eac:	39 49 00 01 	addi    r10,r9,1
 1805eb0:	55 40 06 3e 	clrlwi  r0,r10,24
 1805eb4:	7d 07 5a 14 	add     r8,r7,r11
 1805eb8:	55 29 06 3e 	clrlwi  r9,r9,24
 1805ebc:	28 00 00 fe 	cmplwi  r0,254
 1805ec0:	7d 63 49 ae 	stbx    r11,r3,r9
 1805ec4:	7c e6 42 14 	add     r7,r6,r8
 1805ec8:	99 1e a3 fc 	stb     r8,-23556(r30)
 1805ecc:	98 ff a3 f6 	stb     r7,-23562(r31)
 1805ed0:	99 4c a3 f9 	stb     r10,-23559(r12)
 1805ed4:	40 81 00 0c 	ble-    1805ee0 <ground_calibrate+0x2a8>
 1805ed8:	38 00 00 00 	li      r0,0
 1805edc:	98 0c a3 f9 	stb     r0,-23559(r12)
 1805ee0:	89 2c a3 f9 	lbz     r9,-23559(r12)
 1805ee4:	89 65 00 02 	lbz     r11,2(r5)
 1805ee8:	39 49 00 01 	addi    r10,r9,1
 1805eec:	55 40 06 3e 	clrlwi  r0,r10,24
 1805ef0:	7d 08 5a 14 	add     r8,r8,r11
 1805ef4:	55 29 06 3e 	clrlwi  r9,r9,24
 1805ef8:	28 00 00 fe 	cmplwi  r0,254
 1805efc:	7d 63 49 ae 	stbx    r11,r3,r9
 1805f00:	7c c7 42 14 	add     r6,r7,r8
 1805f04:	99 1e a3 fc 	stb     r8,-23556(r30)
 1805f08:	98 df a3 f6 	stb     r6,-23562(r31)
 1805f0c:	99 4c a3 f9 	stb     r10,-23559(r12)
 1805f10:	40 81 00 0c 	ble-    1805f1c <ground_calibrate+0x2e4>
 1805f14:	38 00 00 00 	li      r0,0
 1805f18:	98 0c a3 f9 	stb     r0,-23559(r12)
 1805f1c:	89 2c a3 f9 	lbz     r9,-23559(r12)
 1805f20:	89 65 00 03 	lbz     r11,3(r5)
 1805f24:	39 49 00 01 	addi    r10,r9,1
 1805f28:	55 40 06 3e 	clrlwi  r0,r10,24
 1805f2c:	7c e8 5a 14 	add     r7,r8,r11
 1805f30:	55 29 06 3e 	clrlwi  r9,r9,24
 1805f34:	28 00 00 fe 	cmplwi  r0,254
 1805f38:	7d 63 49 ae 	stbx    r11,r3,r9
 1805f3c:	7c c6 3a 14 	add     r6,r6,r7
 1805f40:	98 fe a3 fc 	stb     r7,-23556(r30)
 1805f44:	98 df a3 f6 	stb     r6,-23562(r31)
 1805f48:	99 4c a3 f9 	stb     r10,-23559(r12)
 1805f4c:	40 81 00 0c 	ble-    1805f58 <ground_calibrate+0x320>
 1805f50:	38 00 00 00 	li      r0,0
 1805f54:	98 0c a3 f9 	stb     r0,-23559(r12)
 1805f58:	89 6c a3 f9 	lbz     r11,-23559(r12)
 1805f5c:	3d 20 01 82 	lis     r9,386
 1805f60:	39 0b 00 01 	addi    r8,r11,1
 1805f64:	89 49 a4 e8 	lbz     r10,-23320(r9)
 1805f68:	55 00 06 3e 	clrlwi  r0,r8,24
 1805f6c:	7c e7 52 14 	add     r7,r7,r10
 1805f70:	55 6b 06 3e 	clrlwi  r11,r11,24
 1805f74:	28 00 00 fe 	cmplwi  r0,254
 1805f78:	7d 43 59 ae 	stbx    r10,r3,r11
 1805f7c:	7c c6 3a 14 	add     r6,r6,r7
 1805f80:	38 a9 a4 e8 	addi    r5,r9,-23320
 1805f84:	98 fe a3 fc 	stb     r7,-23556(r30)
 1805f88:	98 df a3 f6 	stb     r6,-23562(r31)
 1805f8c:	99 0c a3 f9 	stb     r8,-23559(r12)
 1805f90:	40 81 00 0c 	ble-    1805f9c <ground_calibrate+0x364>
 1805f94:	38 00 00 00 	li      r0,0
 1805f98:	98 0c a3 f9 	stb     r0,-23559(r12)
 1805f9c:	89 2c a3 f9 	lbz     r9,-23559(r12)
 1805fa0:	89 65 00 01 	lbz     r11,1(r5)
 1805fa4:	39 49 00 01 	addi    r10,r9,1
 1805fa8:	55 40 06 3e 	clrlwi  r0,r10,24
 1805fac:	7d 07 5a 14 	add     r8,r7,r11
 1805fb0:	55 29 06 3e 	clrlwi  r9,r9,24
 1805fb4:	28 00 00 fe 	cmplwi  r0,254
 1805fb8:	7d 63 49 ae 	stbx    r11,r3,r9
 1805fbc:	7c e6 42 14 	add     r7,r6,r8
 1805fc0:	99 1e a3 fc 	stb     r8,-23556(r30)
 1805fc4:	98 ff a3 f6 	stb     r7,-23562(r31)
 1805fc8:	99 4c a3 f9 	stb     r10,-23559(r12)
 1805fcc:	40 81 00 0c 	ble-    1805fd8 <ground_calibrate+0x3a0>
 1805fd0:	38 00 00 00 	li      r0,0
 1805fd4:	98 0c a3 f9 	stb     r0,-23559(r12)
 1805fd8:	89 2c a3 f9 	lbz     r9,-23559(r12)
 1805fdc:	89 65 00 02 	lbz     r11,2(r5)
 1805fe0:	39 49 00 01 	addi    r10,r9,1
 1805fe4:	55 40 06 3e 	clrlwi  r0,r10,24
 1805fe8:	7d 08 5a 14 	add     r8,r8,r11
 1805fec:	55 29 06 3e 	clrlwi  r9,r9,24
 1805ff0:	28 00 00 fe 	cmplwi  r0,254
 1805ff4:	7d 63 49 ae 	stbx    r11,r3,r9
 1805ff8:	7c c7 42 14 	add     r6,r7,r8
 1805ffc:	99 1e a3 fc 	stb     r8,-23556(r30)
 1806000:	98 df a3 f6 	stb     r6,-23562(r31)
 1806004:	99 4c a3 f9 	stb     r10,-23559(r12)
 1806008:	40 81 00 0c 	ble-    1806014 <ground_calibrate+0x3dc>
 180600c:	38 00 00 00 	li      r0,0
 1806010:	98 0c a3 f9 	stb     r0,-23559(r12)
 1806014:	89 2c a3 f9 	lbz     r9,-23559(r12)
 1806018:	89 65 00 03 	lbz     r11,3(r5)
 180601c:	39 49 00 01 	addi    r10,r9,1
 1806020:	55 40 06 3e 	clrlwi  r0,r10,24
 1806024:	7c e8 5a 14 	add     r7,r8,r11
 1806028:	55 29 06 3e 	clrlwi  r9,r9,24
 180602c:	28 00 00 fe 	cmplwi  r0,254
 1806030:	7d 63 49 ae 	stbx    r11,r3,r9
 1806034:	7c a6 3a 14 	add     r5,r6,r7
 1806038:	98 fe a3 fc 	stb     r7,-23556(r30)
 180603c:	98 bf a3 f6 	stb     r5,-23562(r31)
 1806040:	99 4c a3 f9 	stb     r10,-23559(r12)
 1806044:	40 81 00 0c 	ble-    1806050 <ground_calibrate+0x418>
 1806048:	38 00 00 00 	li      r0,0
 180604c:	98 0c a3 f9 	stb     r0,-23559(r12)
 1806050:	89 64 00 00 	lbz     r11,0(r4)
 1806054:	3d 20 01 82 	lis     r9,386
 1806058:	89 49 a4 c8 	lbz     r10,-23352(r9)
 180605c:	39 0b 00 01 	addi    r8,r11,1
 1806060:	7c c7 52 14 	add     r6,r7,r10
 1806064:	55 00 06 3e 	clrlwi  r0,r8,24
 1806068:	55 6b 06 3e 	clrlwi  r11,r11,24
 180606c:	7d 43 59 ae 	stbx    r10,r3,r11
 1806070:	7c a5 32 14 	add     r5,r5,r6
 1806074:	28 00 00 fe 	cmplwi  r0,254
 1806078:	98 de a3 fc 	stb     r6,-23556(r30)
 180607c:	98 bf a3 f6 	stb     r5,-23562(r31)
 1806080:	3b a9 a4 c8 	addi    r29,r9,-23352
 1806084:	99 04 00 00 	stb     r8,0(r4)
 1806088:	40 81 00 0c 	ble-    1806094 <ground_calibrate+0x45c>
 180608c:	38 00 00 00 	li      r0,0
 1806090:	98 04 00 00 	stb     r0,0(r4)
 1806094:	89 1d 00 01 	lbz     r8,1(r29)
 1806098:	89 24 00 00 	lbz     r9,0(r4)
 180609c:	7d 46 42 14 	add     r10,r6,r8
 18060a0:	38 e9 00 01 	addi    r7,r9,1
 18060a4:	7d 65 52 14 	add     r11,r5,r10
 18060a8:	99 7f a3 f6 	stb     r11,-23562(r31)
 18060ac:	54 e0 06 3e 	clrlwi  r0,r7,24
 18060b0:	55 29 06 3e 	clrlwi  r9,r9,24
 18060b4:	7d 03 49 ae 	stbx    r8,r3,r9
 18060b8:	28 00 00 fe 	cmplwi  r0,254
 18060bc:	99 5e a3 fc 	stb     r10,-23556(r30)
 18060c0:	98 e4 00 00 	stb     r7,0(r4)
 18060c4:	40 81 00 0c 	ble-    18060d0 <ground_calibrate+0x498>
 18060c8:	38 00 00 00 	li      r0,0
 18060cc:	98 04 00 00 	stb     r0,0(r4)
 18060d0:	89 24 00 00 	lbz     r9,0(r4)
 18060d4:	88 1c 00 00 	lbz     r0,0(r28)
 18060d8:	89 1d 00 02 	lbz     r8,2(r29)
 18060dc:	89 7b 00 00 	lbz     r11,0(r27)
 18060e0:	38 e9 00 01 	addi    r7,r9,1
 18060e4:	7c c0 42 14 	add     r6,r0,r8
 18060e8:	54 ea 06 3e 	clrlwi  r10,r7,24
 18060ec:	55 29 06 3e 	clrlwi  r9,r9,24
 18060f0:	7d 03 49 ae 	stbx    r8,r3,r9
 18060f4:	7c ab 32 14 	add     r5,r11,r6
 18060f8:	28 0a 00 fe 	cmplwi  r10,254
 18060fc:	98 dc 00 00 	stb     r6,0(r28)
 1806100:	98 bb 00 00 	stb     r5,0(r27)
 1806104:	98 e4 00 00 	stb     r7,0(r4)
 1806108:	40 81 00 0c 	ble-    1806114 <ground_calibrate+0x4dc>
 180610c:	38 00 00 00 	li      r0,0
 1806110:	98 04 00 00 	stb     r0,0(r4)
 1806114:	89 24 00 00 	lbz     r9,0(r4)
 1806118:	89 7d 00 03 	lbz     r11,3(r29)
 180611c:	39 49 00 01 	addi    r10,r9,1
 1806120:	7c e6 5a 14 	add     r7,r6,r11
 1806124:	55 40 06 3e 	clrlwi  r0,r10,24
 1806128:	55 29 06 3e 	clrlwi  r9,r9,24
 180612c:	7d 63 49 ae 	stbx    r11,r3,r9
 1806130:	7c c5 3a 14 	add     r6,r5,r7
 1806134:	28 00 00 fe 	cmplwi  r0,254
 1806138:	98 fc 00 00 	stb     r7,0(r28)
 180613c:	98 db 00 00 	stb     r6,0(r27)
 1806140:	99 44 00 00 	stb     r10,0(r4)
 1806144:	40 81 00 0c 	ble-    1806150 <ground_calibrate+0x518>
 1806148:	38 00 00 00 	li      r0,0
 180614c:	98 04 00 00 	stb     r0,0(r4)
 1806150:	89 64 00 00 	lbz     r11,0(r4)
 1806154:	3d 20 01 82 	lis     r9,386
 1806158:	89 49 a3 6a 	lbz     r10,-23702(r9)
 180615c:	39 0b 00 01 	addi    r8,r11,1
 1806160:	7c e7 52 14 	add     r7,r7,r10
 1806164:	55 00 06 3e 	clrlwi  r0,r8,24
 1806168:	55 6b 06 3e 	clrlwi  r11,r11,24
 180616c:	7d 43 59 ae 	stbx    r10,r3,r11
 1806170:	7c c6 3a 14 	add     r6,r6,r7
 1806174:	28 00 00 fe 	cmplwi  r0,254
 1806178:	98 fc 00 00 	stb     r7,0(r28)
 180617c:	98 db 00 00 	stb     r6,0(r27)
 1806180:	38 a9 a3 6a 	addi    r5,r9,-23702
 1806184:	99 04 00 00 	stb     r8,0(r4)
 1806188:	40 81 00 0c 	ble-    1806194 <ground_calibrate+0x55c>
 180618c:	38 00 00 00 	li      r0,0
 1806190:	98 04 00 00 	stb     r0,0(r4)
 1806194:	89 24 00 00 	lbz     r9,0(r4)
 1806198:	89 65 00 01 	lbz     r11,1(r5)
 180619c:	39 49 00 01 	addi    r10,r9,1
 18061a0:	7c e7 5a 14 	add     r7,r7,r11
 18061a4:	55 40 06 3e 	clrlwi  r0,r10,24
 18061a8:	55 29 06 3e 	clrlwi  r9,r9,24
 18061ac:	7d 63 49 ae 	stbx    r11,r3,r9
 18061b0:	7c c6 3a 14 	add     r6,r6,r7
 18061b4:	28 00 00 fe 	cmplwi  r0,254
 18061b8:	98 fc 00 00 	stb     r7,0(r28)
 18061bc:	98 db 00 00 	stb     r6,0(r27)
 18061c0:	99 44 00 00 	stb     r10,0(r4)
 18061c4:	40 81 00 0c 	ble-    18061d0 <ground_calibrate+0x598>
 18061c8:	38 00 00 00 	li      r0,0
 18061cc:	98 04 00 00 	stb     r0,0(r4)
 18061d0:	89 64 00 00 	lbz     r11,0(r4)
 18061d4:	3d 20 01 82 	lis     r9,386
 18061d8:	89 49 a3 6c 	lbz     r10,-23700(r9)
 18061dc:	39 0b 00 01 	addi    r8,r11,1
 18061e0:	7c e7 52 14 	add     r7,r7,r10
 18061e4:	55 00 06 3e 	clrlwi  r0,r8,24
 18061e8:	55 6b 06 3e 	clrlwi  r11,r11,24
 18061ec:	7d 43 59 ae 	stbx    r10,r3,r11
 18061f0:	7c c6 3a 14 	add     r6,r6,r7
 18061f4:	28 00 00 fe 	cmplwi  r0,254
 18061f8:	98 fc 00 00 	stb     r7,0(r28)
 18061fc:	98 db 00 00 	stb     r6,0(r27)
 1806200:	38 a9 a3 6c 	addi    r5,r9,-23700
 1806204:	99 04 00 00 	stb     r8,0(r4)
 1806208:	40 81 00 0c 	ble-    1806214 <ground_calibrate+0x5dc>
 180620c:	38 00 00 00 	li      r0,0
 1806210:	98 04 00 00 	stb     r0,0(r4)
 1806214:	89 24 00 00 	lbz     r9,0(r4)
 1806218:	89 65 00 01 	lbz     r11,1(r5)
 180621c:	39 49 00 01 	addi    r10,r9,1
 1806220:	7d 07 5a 14 	add     r8,r7,r11
 1806224:	55 40 06 3e 	clrlwi  r0,r10,24
 1806228:	55 29 06 3e 	clrlwi  r9,r9,24
 180622c:	7d 63 49 ae 	stbx    r11,r3,r9
 1806230:	7c e6 42 14 	add     r7,r6,r8
 1806234:	28 00 00 fe 	cmplwi  r0,254
 1806238:	99 1c 00 00 	stb     r8,0(r28)
 180623c:	98 fb 00 00 	stb     r7,0(r27)
 1806240:	99 44 00 00 	stb     r10,0(r4)
 1806244:	40 81 00 0c 	ble-    1806250 <ground_calibrate+0x618>
 1806248:	38 00 00 00 	li      r0,0
 180624c:	98 04 00 00 	stb     r0,0(r4)
 1806250:	89 24 00 00 	lbz     r9,0(r4)
 1806254:	39 69 00 01 	addi    r11,r9,1
 1806258:	55 60 06 3e 	clrlwi  r0,r11,24
 180625c:	55 29 06 3e 	clrlwi  r9,r9,24
 1806260:	28 00 00 fe 	cmplwi  r0,254
 1806264:	7d 03 49 ae 	stbx    r8,r3,r9
 1806268:	99 64 00 00 	stb     r11,0(r4)
 180626c:	40 81 00 0c 	ble-    1806278 <ground_calibrate+0x640>
 1806270:	38 00 00 00 	li      r0,0
 1806274:	98 04 00 00 	stb     r0,0(r4)
 1806278:	89 24 00 00 	lbz     r9,0(r4)
 180627c:	39 69 00 01 	addi    r11,r9,1
 1806280:	55 60 06 3e 	clrlwi  r0,r11,24
 1806284:	55 29 06 3e 	clrlwi  r9,r9,24
 1806288:	28 00 00 fe 	cmplwi  r0,254
 180628c:	7c e3 49 ae 	stbx    r7,r3,r9
 1806290:	99 64 00 00 	stb     r11,0(r4)
 1806294:	40 81 00 0c 	ble-    18062a0 <ground_calibrate+0x668>
 1806298:	38 00 00 00 	li      r0,0
 180629c:	98 04 00 00 	stb     r0,0(r4)
 18062a0:	38 c0 00 59 	li      r6,89
 18062a4:	88 06 00 00 	lbz     r0,0(r6)
 18062a8:	70 07 00 10 	andi.   r7,r0,16
 18062ac:	40 82 00 6c 	bne-    1806318 <ground_calibrate+0x6e0>
 18062b0:	3d 60 01 82 	lis     r11,386
 18062b4:	88 0b a3 fa 	lbz     r0,-23558(r11)
 18062b8:	89 2b a3 fa 	lbz     r9,-23558(r11)
 18062bc:	7d 03 00 ae 	lbzx    r8,r3,r0
 18062c0:	39 29 00 01 	addi    r9,r9,1
 18062c4:	99 2b a3 fa 	stb     r9,-23558(r11)
 18062c8:	88 0b a3 fa 	lbz     r0,-23558(r11)
 18062cc:	3d 40 01 82 	lis     r10,386
 18062d0:	28 00 00 fe 	cmplwi  r0,254
 18062d4:	3d 20 01 82 	lis     r9,386
 18062d8:	99 0a a3 f8 	stb     r8,-23560(r10)
 18062dc:	98 e9 a3 fb 	stb     r7,-23557(r9)
 18062e0:	40 81 00 08 	ble-    18062e8 <ground_calibrate+0x6b0>
 18062e4:	98 fa a3 fa 	stb     r7,-23558(r26)
 18062e8:	39 20 00 58 	li      r9,88
 18062ec:	88 09 00 00 	lbz     r0,0(r9)
 18062f0:	60 00 00 01 	ori     r0,r0,1
 18062f4:	98 09 00 00 	stb     r0,0(r9)
 18062f8:	89 66 00 00 	lbz     r11,0(r6)
 18062fc:	61 6b 00 10 	ori     r11,r11,16
 1806300:	99 66 00 00 	stb     r11,0(r6)
 1806304:	48 00 00 14 	b       1806318 <ground_calibrate+0x6e0>
 1806308:	3d 60 01 82 	lis     r11,386
 180630c:	89 2b a3 f7 	lbz     r9,-23561(r11)
 1806310:	39 29 00 01 	addi    r9,r9,1
 1806314:	99 2b a3 f7 	stb     r9,-23561(r11)
 1806318:	3d 20 01 82 	lis     r9,386
 180631c:	89 09 a3 f9 	lbz     r8,-23559(r9)
 1806320:	3d 60 01 82 	lis     r11,386
 1806324:	89 2b a3 fa 	lbz     r9,-23558(r11)
 1806328:	3d 40 01 82 	lis     r10,386
 180632c:	7c 08 48 40 	cmplw   r8,r9
 1806330:	38 00 00 02 	li      r0,2
 1806334:	98 0a a3 4e 	stb     r0,-23730(r10)
 1806338:	41 80 00 1c 	blt-    1806354 <ground_calibrate+0x71c>
 180633c:	88 1a a3 fa 	lbz     r0,-23558(r26)
 1806340:	7c 00 40 50 	subf    r0,r0,r8
 1806344:	20 00 00 ff 	subfic  r0,r0,255
 1806348:	2c 00 00 06 	cmpwi   r0,6
 180634c:	41 81 00 18 	bgt-    1806364 <ground_calibrate+0x72c>
 1806350:	48 00 01 b8 	b       1806508 <ground_calibrate+0x8d0>
 1806354:	88 1a a3 fa 	lbz     r0,-23558(r26)
 1806358:	7c 08 00 50 	subf    r0,r8,r0
 180635c:	2c 00 00 06 	cmpwi   r0,6
 1806360:	40 81 01 a8 	ble-    1806508 <ground_calibrate+0x8d0>
 1806364:	3d 00 01 82 	lis     r8,386
 1806368:	89 28 a3 f9 	lbz     r9,-23559(r8)
 180636c:	3d 60 01 82 	lis     r11,386
 1806370:	39 49 00 01 	addi    r10,r9,1
 1806374:	55 40 06 3e 	clrlwi  r0,r10,24
 1806378:	28 00 00 fe 	cmplwi  r0,254
 180637c:	38 ab a8 b4 	addi    r5,r11,-22348
 1806380:	55 29 06 3e 	clrlwi  r9,r9,24
 1806384:	38 00 00 05 	li      r0,5
 1806388:	7c 05 49 ae 	stbx    r0,r5,r9
 180638c:	99 48 a3 f9 	stb     r10,-23559(r8)
 1806390:	40 81 00 0c 	ble-    180639c <ground_calibrate+0x764>
 1806394:	38 00 00 00 	li      r0,0
 1806398:	98 0c a3 f9 	stb     r0,-23559(r12)
 180639c:	89 2c a3 f9 	lbz     r9,-23559(r12)
 18063a0:	39 40 00 03 	li      r10,3
 18063a4:	39 69 00 01 	addi    r11,r9,1
 18063a8:	55 60 06 3e 	clrlwi  r0,r11,24
 18063ac:	55 29 06 3e 	clrlwi  r9,r9,24
 18063b0:	28 00 00 fe 	cmplwi  r0,254
 18063b4:	7d 45 49 ae 	stbx    r10,r5,r9
 18063b8:	99 6c a3 f9 	stb     r11,-23559(r12)
 18063bc:	40 81 00 0c 	ble-    18063c8 <ground_calibrate+0x790>
 18063c0:	38 00 00 00 	li      r0,0
 18063c4:	98 0c a3 f9 	stb     r0,-23559(r12)
 18063c8:	89 6c a3 f9 	lbz     r11,-23559(r12)
 18063cc:	3d 40 01 82 	lis     r10,386
 18063d0:	39 0b 00 01 	addi    r8,r11,1
 18063d4:	89 2a a3 68 	lbz     r9,-23704(r10)
 18063d8:	55 00 06 3e 	clrlwi  r0,r8,24
 18063dc:	55 6b 06 3e 	clrlwi  r11,r11,24
 18063e0:	28 00 00 fe 	cmplwi  r0,254
 18063e4:	7d 25 59 ae 	stbx    r9,r5,r11
 18063e8:	38 c9 00 06 	addi    r6,r9,6
 18063ec:	38 e9 00 03 	addi    r7,r9,3
 18063f0:	3c 80 01 82 	lis     r4,386
 18063f4:	3c 60 01 82 	lis     r3,386
 18063f8:	3b ea a3 68 	addi    r31,r10,-23704
 18063fc:	98 e4 a3 fc 	stb     r7,-23556(r4)
 1806400:	98 c3 a3 f6 	stb     r6,-23562(r3)
 1806404:	99 0c a3 f9 	stb     r8,-23559(r12)
 1806408:	40 81 00 0c 	ble-    1806414 <ground_calibrate+0x7dc>
 180640c:	38 00 00 00 	li      r0,0
 1806410:	98 0c a3 f9 	stb     r0,-23559(r12)
 1806414:	89 2c a3 f9 	lbz     r9,-23559(r12)
 1806418:	89 7f 00 01 	lbz     r11,1(r31)
 180641c:	39 49 00 01 	addi    r10,r9,1
 1806420:	55 40 06 3e 	clrlwi  r0,r10,24
 1806424:	7d 07 5a 14 	add     r8,r7,r11
 1806428:	55 29 06 3e 	clrlwi  r9,r9,24
 180642c:	28 00 00 fe 	cmplwi  r0,254
 1806430:	7d 65 49 ae 	stbx    r11,r5,r9
 1806434:	7c e6 42 14 	add     r7,r6,r8
 1806438:	99 04 a3 fc 	stb     r8,-23556(r4)
 180643c:	98 e3 a3 f6 	stb     r7,-23562(r3)
 1806440:	99 4c a3 f9 	stb     r10,-23559(r12)
 1806444:	40 81 00 0c 	ble-    1806450 <ground_calibrate+0x818>
 1806448:	38 00 00 00 	li      r0,0
 180644c:	98 0c a3 f9 	stb     r0,-23559(r12)
 1806450:	89 2c a3 f9 	lbz     r9,-23559(r12)
 1806454:	39 69 00 01 	addi    r11,r9,1
 1806458:	55 60 06 3e 	clrlwi  r0,r11,24
 180645c:	55 29 06 3e 	clrlwi  r9,r9,24
 1806460:	28 00 00 fe 	cmplwi  r0,254
 1806464:	7d 05 49 ae 	stbx    r8,r5,r9
 1806468:	99 6c a3 f9 	stb     r11,-23559(r12)
 180646c:	40 81 00 0c 	ble-    1806478 <ground_calibrate+0x840>
 1806470:	38 00 00 00 	li      r0,0
 1806474:	98 0c a3 f9 	stb     r0,-23559(r12)
 1806478:	89 2c a3 f9 	lbz     r9,-23559(r12)
 180647c:	39 69 00 01 	addi    r11,r9,1
 1806480:	55 60 06 3e 	clrlwi  r0,r11,24
 1806484:	55 29 06 3e 	clrlwi  r9,r9,24
 1806488:	28 00 00 fe 	cmplwi  r0,254
 180648c:	7c e5 49 ae 	stbx    r7,r5,r9
 1806490:	99 6c a3 f9 	stb     r11,-23559(r12)
 1806494:	40 81 00 0c 	ble-    18064a0 <ground_calibrate+0x868>
 1806498:	38 00 00 00 	li      r0,0
 180649c:	98 0c a3 f9 	stb     r0,-23559(r12)
 18064a0:	38 c0 00 59 	li      r6,89
 18064a4:	88 06 00 00 	lbz     r0,0(r6)
 18064a8:	70 07 00 10 	andi.   r7,r0,16
 18064ac:	40 82 00 6c 	bne-    1806518 <ground_calibrate+0x8e0>
 18064b0:	3d 60 01 82 	lis     r11,386
 18064b4:	88 0b a3 fa 	lbz     r0,-23558(r11)
 18064b8:	89 2b a3 fa 	lbz     r9,-23558(r11)
 18064bc:	7d 05 00 ae 	lbzx    r8,r5,r0
 18064c0:	39 29 00 01 	addi    r9,r9,1
 18064c4:	99 2b a3 fa 	stb     r9,-23558(r11)
 18064c8:	88 0b a3 fa 	lbz     r0,-23558(r11)
 18064cc:	3d 40 01 82 	lis     r10,386
 18064d0:	28 00 00 fe 	cmplwi  r0,254
 18064d4:	3d 20 01 82 	lis     r9,386
 18064d8:	99 0a a3 f8 	stb     r8,-23560(r10)
 18064dc:	98 e9 a3 fb 	stb     r7,-23557(r9)
 18064e0:	40 81 00 08 	ble-    18064e8 <ground_calibrate+0x8b0>
 18064e4:	98 fa a3 fa 	stb     r7,-23558(r26)
 18064e8:	39 20 00 58 	li      r9,88
 18064ec:	88 09 00 00 	lbz     r0,0(r9)
 18064f0:	60 00 00 01 	ori     r0,r0,1
 18064f4:	98 09 00 00 	stb     r0,0(r9)
 18064f8:	89 66 00 00 	lbz     r11,0(r6)
 18064fc:	61 6b 00 10 	ori     r11,r11,16
 1806500:	99 66 00 00 	stb     r11,0(r6)
 1806504:	48 00 00 14 	b       1806518 <ground_calibrate+0x8e0>
 1806508:	3d 60 01 82 	lis     r11,386
 180650c:	89 2b a3 f7 	lbz     r9,-23561(r11)
 1806510:	39 29 00 01 	addi    r9,r9,1
 1806514:	99 2b a3 f7 	stb     r9,-23561(r11)
 1806518:	80 01 00 24 	lwz     r0,36(r1)
 180651c:	7c 08 03 a6 	mtlr    r0
 1806520:	83 41 00 08 	lwz     r26,8(r1)
 1806524:	83 61 00 0c 	lwz     r27,12(r1)
 1806528:	83 81 00 10 	lwz     r28,16(r1)
 180652c:	83 a1 00 14 	lwz     r29,20(r1)
 1806530:	83 c1 00 18 	lwz     r30,24(r1)
 1806534:	83 e1 00 1c 	lwz     r31,28(r1)
 1806538:	38 21 00 20 	addi    r1,r1,32
 180653c:	4e 80 00 20 	blr

01806540 <pprz_mode_update>:
 1806540:	3d 20 01 82 	lis     r9,386
 1806544:	88 09 a3 46 	lbz     r0,-23738(r9)
 1806548:	2c 00 00 03 	cmpwi   r0,3
 180654c:	40 82 00 1c 	bne-    1806568 <pprz_mode_update+0x28>
 1806550:	3d 20 01 82 	lis     r9,386
 1806554:	88 09 a3 e8 	lbz     r0,-23576(r9)
 1806558:	2c 00 00 00 	cmpwi   r0,0
 180655c:	41 82 00 54 	beq-    18065b0 <pprz_mode_update+0x70>
 1806560:	38 00 00 00 	li      r0,0
 1806564:	98 09 a3 e8 	stb     r0,-23576(r9)
 1806568:	3d 20 01 82 	lis     r9,386
 180656c:	a8 09 a9 d2 	lha     r0,-22062(r9)
 1806570:	2c 00 0c 80 	cmpwi   r0,3200
 1806574:	41 81 00 14 	bgt-    1806588 <pprz_mode_update+0x48>
 1806578:	2f 80 ed 40 	cmpwi   cr7,r0,-4800
 180657c:	7d 60 00 26 	mfcr    r11
 1806580:	55 6b f7 fe 	rlwinm  r11,r11,30,31,31
 1806584:	48 00 00 08 	b       180658c <pprz_mode_update+0x4c>
 1806588:	39 60 00 02 	li      r11,2
 180658c:	3d 20 01 82 	lis     r9,386
 1806590:	88 09 a3 46 	lbz     r0,-23738(r9)
 1806594:	7c 00 58 00 	cmpw    r0,r11
 1806598:	41 82 00 10 	beq-    18065a8 <pprz_mode_update+0x68>
 180659c:	99 69 a3 46 	stb     r11,-23738(r9)
 18065a0:	38 60 00 01 	li      r3,1
 18065a4:	4e 80 00 20 	blr
 18065a8:	38 60 00 00 	li      r3,0
 18065ac:	4e 80 00 20 	blr
 18065b0:	38 60 00 00 	li      r3,0
 18065b4:	4e 80 00 20 	blr

018065b8 <ir_estim_mode_update>:
 18065b8:	3d 20 01 82 	lis     r9,386
 18065bc:	a8 09 a9 d8 	lha     r0,-22056(r9)
 18065c0:	3d 60 01 82 	lis     r11,386
 18065c4:	2f 80 0c 7f 	cmpwi   cr7,r0,3199
 18065c8:	89 2b a3 49 	lbz     r9,-23735(r11)
 18065cc:	7c 00 00 26 	mfcr    r0
 18065d0:	54 00 f7 fe 	rlwinm  r0,r0,30,31,31
 18065d4:	7c 09 00 00 	cmpw    r9,r0
 18065d8:	40 82 00 0c 	bne-    18065e4 <ir_estim_mode_update+0x2c>
 18065dc:	38 60 00 00 	li      r3,0
 18065e0:	4e 80 00 20 	blr
 18065e4:	98 0b a3 49 	stb     r0,-23735(r11)
 18065e8:	38 60 00 01 	li      r3,1
 18065ec:	4e 80 00 20 	blr

018065f0 <mcu1_status_update>:
 18065f0:	3d 20 01 82 	lis     r9,386
 18065f4:	88 09 a9 dd 	lbz     r0,-22051(r9)
 18065f8:	3d 20 01 82 	lis     r9,386
 18065fc:	88 69 a3 e5 	lbz     r3,-23579(r9)
 1806600:	7c 03 00 00 	cmpw    r3,r0
 1806604:	40 82 00 0c 	bne-    1806610 <mcu1_status_update+0x20>
 1806608:	38 60 00 00 	li      r3,0
 180660c:	4e 80 00 20 	blr
 1806610:	7c 63 02 78 	xor     r3,r3,r0
 1806614:	54 63 07 be 	clrlwi  r3,r3,30
 1806618:	7c 63 00 d0 	neg     r3,r3
 180661c:	98 09 a3 e5 	stb     r0,-23579(r9)
 1806620:	54 63 0f fe 	rlwinm  r3,r3,1,31,31
 1806624:	4e 80 00 20 	blr

01806628 <copy_from_to_fbw>:
 1806628:	3d 60 01 82 	lis     r11,386
 180662c:	a1 4b a9 d0 	lhz     r10,-22064(r11)
 1806630:	3d 20 01 82 	lis     r9,386
 1806634:	39 29 a9 b4 	addi    r9,r9,-22092
 1806638:	38 00 00 00 	li      r0,0
 180663c:	98 09 00 13 	stb     r0,19(r9)
 1806640:	b1 49 00 06 	sth     r10,6(r9)
 1806644:	4e 80 00 20 	blr

01806648 <inflight_calib_mode_update>:
 1806648:	3d 20 01 82 	lis     r9,386
 180664c:	a8 09 a9 da 	lha     r0,-22054(r9)
 1806650:	2c 00 ed 40 	cmpwi   r0,-4800
 1806654:	41 80 00 14 	blt-    1806668 <inflight_calib_mode_update+0x20>
 1806658:	2f 80 0c 7f 	cmpwi   cr7,r0,3199
 180665c:	7d 20 00 26 	mfcr    r9
 1806660:	55 29 f7 fe 	rlwinm  r9,r9,30,31,31
 1806664:	48 00 00 08 	b       180666c <inflight_calib_mode_update+0x24>
 1806668:	39 20 00 02 	li      r9,2
 180666c:	3d 60 01 82 	lis     r11,386
 1806670:	88 0b a3 e1 	lbz     r0,-23583(r11)
 1806674:	7c 00 48 00 	cmpw    r0,r9
 1806678:	40 82 00 0c 	bne-    1806684 <inflight_calib_mode_update+0x3c>
 180667c:	38 60 00 00 	li      r3,0
 1806680:	4e 80 00 20 	blr
 1806684:	99 2b a3 e1 	stb     r9,-23583(r11)
 1806688:	38 60 00 01 	li      r3,1
 180668c:	4e 80 00 20 	blr

01806690 <modem_init>:
 1806690:	39 60 00 37 	li      r11,55
 1806694:	88 0b 00 00 	lbz     r0,0(r11)
 1806698:	39 40 00 51 	li      r10,81
 180669c:	60 00 00 10 	ori     r0,r0,16
 18066a0:	98 0b 00 00 	stb     r0,0(r11)
 18066a4:	39 20 00 01 	li      r9,1
 18066a8:	99 2a 00 00 	stb     r9,0(r10)
 18066ac:	39 60 00 53 	li      r11,83
 18066b0:	38 00 00 19 	li      r0,25
 18066b4:	98 0b 00 00 	stb     r0,0(r11)
 18066b8:	39 40 00 31 	li      r10,49
 18066bc:	88 0a 00 00 	lbz     r0,0(r10)
 18066c0:	39 60 00 32 	li      r11,50
 18066c4:	60 00 00 c0 	ori     r0,r0,192
 18066c8:	98 0a 00 00 	stb     r0,0(r10)
 18066cc:	89 2b 00 00 	lbz     r9,0(r11)
 18066d0:	39 40 00 5a 	li      r10,90
 18066d4:	61 29 00 40 	ori     r9,r9,64
 18066d8:	99 2b 00 00 	stb     r9,0(r11)
 18066dc:	88 0b 00 00 	lbz     r0,0(r11)
 18066e0:	54 00 06 7e 	clrlwi  r0,r0,25
 18066e4:	98 0b 00 00 	stb     r0,0(r11)
 18066e8:	89 2a 00 00 	lbz     r9,0(r10)
 18066ec:	61 29 00 02 	ori     r9,r9,2
 18066f0:	99 2a 00 00 	stb     r9,0(r10)
 18066f4:	4e 80 00 20 	blr

018066f8 <__vector_5>:
 18066f8:	3d 20 01 82 	lis     r9,386
 18066fc:	88 09 a3 fb 	lbz     r0,-23557(r9)
 1806700:	2c 00 00 00 	cmpwi   r0,0
 1806704:	40 82 00 14 	bne-    1806718 <__vector_5+0x20>
 1806708:	39 20 00 32 	li      r9,50
 180670c:	88 09 00 00 	lbz     r0,0(r9)
 1806710:	70 00 00 bf 	andi.   r0,r0,191
 1806714:	48 00 00 5c 	b       1806770 <__vector_5+0x78>
 1806718:	28 00 00 08 	cmplwi  r0,8
 180671c:	41 81 00 48 	bgt-    1806764 <__vector_5+0x6c>
 1806720:	3d 20 01 82 	lis     r9,386
 1806724:	88 09 a3 f8 	lbz     r0,-23560(r9)
 1806728:	70 09 00 01 	andi.   r9,r0,1
 180672c:	41 82 00 14 	beq-    1806740 <__vector_5+0x48>
 1806730:	39 20 00 32 	li      r9,50
 1806734:	88 09 00 00 	lbz     r0,0(r9)
 1806738:	60 00 00 40 	ori     r0,r0,64
 180673c:	48 00 00 10 	b       180674c <__vector_5+0x54>
 1806740:	39 20 00 32 	li      r9,50
 1806744:	88 09 00 00 	lbz     r0,0(r9)
 1806748:	70 00 00 bf 	andi.   r0,r0,191
 180674c:	98 09 00 00 	stb     r0,0(r9)
 1806750:	3d 20 01 82 	lis     r9,386
 1806754:	88 09 a3 f8 	lbz     r0,-23560(r9)
 1806758:	54 00 f8 7e 	rlwinm  r0,r0,31,1,31
 180675c:	98 09 a3 f8 	stb     r0,-23560(r9)
 1806760:	48 00 00 14 	b       1806774 <__vector_5+0x7c>
 1806764:	39 20 00 32 	li      r9,50
 1806768:	88 09 00 00 	lbz     r0,0(r9)
 180676c:	60 00 00 40 	ori     r0,r0,64
 1806770:	98 09 00 00 	stb     r0,0(r9)
 1806774:	3d 20 01 82 	lis     r9,386
 1806778:	89 69 a3 fb 	lbz     r11,-23557(r9)
 180677c:	39 6b 00 01 	addi    r11,r11,1
 1806780:	55 60 06 3e 	clrlwi  r0,r11,24
 1806784:	28 00 00 09 	cmplwi  r0,9
 1806788:	99 69 a3 fb 	stb     r11,-23557(r9)
 180678c:	4c 81 00 20 	blelr   
 1806790:	3d 20 01 82 	lis     r9,386
 1806794:	3c e0 01 82 	lis     r7,386
 1806798:	89 69 a3 f9 	lbz     r11,-23559(r9)
 180679c:	88 07 a3 fa 	lbz     r0,-23558(r7)
 18067a0:	7c 0b 00 00 	cmpw    r11,r0
 18067a4:	40 82 00 18 	bne-    18067bc <__vector_5+0xc4>
 18067a8:	39 20 00 59 	li      r9,89
 18067ac:	88 09 00 00 	lbz     r0,0(r9)
 18067b0:	70 00 00 ef 	andi.   r0,r0,239
 18067b4:	98 09 00 00 	stb     r0,0(r9)
 18067b8:	4e 80 00 20 	blr
 18067bc:	89 07 a3 fa 	lbz     r8,-23558(r7)
 18067c0:	89 27 a3 fa 	lbz     r9,-23558(r7)
 18067c4:	3d 60 01 82 	lis     r11,386
 18067c8:	39 29 00 01 	addi    r9,r9,1
 18067cc:	99 27 a3 fa 	stb     r9,-23558(r7)
 18067d0:	88 07 a3 fa 	lbz     r0,-23558(r7)
 18067d4:	39 6b a8 b4 	addi    r11,r11,-22348
 18067d8:	7d 4b 40 ae 	lbzx    r10,r11,r8
 18067dc:	28 00 00 fe 	cmplwi  r0,254
 18067e0:	3d 60 01 82 	lis     r11,386
 18067e4:	38 00 00 00 	li      r0,0
 18067e8:	3d 20 01 82 	lis     r9,386
 18067ec:	99 4b a3 f8 	stb     r10,-23560(r11)
 18067f0:	98 09 a3 fb 	stb     r0,-23557(r9)
 18067f4:	4c 81 00 20 	blelr   
 18067f8:	98 07 a3 fa 	stb     r0,-23558(r7)
 18067fc:	4e 80 00 20 	blr

01806800 <link_fbw_init>:
 1806800:	3d 20 01 82 	lis     r9,386
 1806804:	88 09 a4 01 	lbz     r0,-23551(r9)
 1806808:	3d 60 01 82 	lis     r11,386
 180680c:	38 00 00 00 	li      r0,0
 1806810:	98 0b a3 5c 	stb     r0,-23716(r11)
 1806814:	4e 80 00 20 	blr

01806818 <link_fbw_send>:
 1806818:	3d 40 01 82 	lis     r10,386
 180681c:	88 ea a4 03 	lbz     r7,-23549(r10)
 1806820:	2c 07 00 00 	cmpwi   r7,0
 1806824:	41 82 00 18 	beq-    180683c <link_fbw_send+0x24>
 1806828:	3d 60 01 82 	lis     r11,386
 180682c:	89 2b a4 02 	lbz     r9,-23550(r11)
 1806830:	39 29 00 01 	addi    r9,r9,1
 1806834:	99 2b a4 02 	stb     r9,-23550(r11)
 1806838:	4e 80 00 20 	blr
 180683c:	38 00 00 51 	li      r0,81
 1806840:	39 60 00 2d 	li      r11,45
 1806844:	39 20 00 2e 	li      r9,46
 1806848:	98 0b 00 00 	stb     r0,0(r11)
 180684c:	88 09 00 00 	lbz     r0,0(r9)
 1806850:	70 09 00 80 	andi.   r9,r0,128
 1806854:	41 82 00 0c 	beq-    1806860 <link_fbw_send+0x48>
 1806858:	39 20 00 2f 	li      r9,47
 180685c:	88 09 00 00 	lbz     r0,0(r9)
 1806860:	88 0b 00 00 	lbz     r0,0(r11)
 1806864:	39 20 00 01 	li      r9,1
 1806868:	60 00 00 80 	ori     r0,r0,128
 180686c:	98 0b 00 00 	stb     r0,0(r11)
 1806870:	99 2a a4 03 	stb     r9,-23549(r10)
 1806874:	39 60 00 38 	li      r11,56
 1806878:	88 0b 00 00 	lbz     r0,0(r11)
 180687c:	3d 20 01 82 	lis     r9,386
 1806880:	54 00 06 3c 	rlwinm  r0,r0,0,24,30
 1806884:	98 0b 00 00 	stb     r0,0(r11)
 1806888:	39 29 a9 b4 	addi    r9,r9,-22092
 180688c:	7c 07 48 ae 	lbzx    r0,r7,r9
 1806890:	39 60 00 2f 	li      r11,47
 1806894:	98 0b 00 00 	stb     r0,0(r11)
 1806898:	3d 40 01 82 	lis     r10,386
 180689c:	3d 60 01 82 	lis     r11,386
 18068a0:	3d 00 01 82 	lis     r8,386
 18068a4:	3d 20 01 82 	lis     r9,386
 18068a8:	98 e9 a3 5d 	stb     r7,-23715(r9)
 18068ac:	98 ea a3 fd 	stb     r7,-23555(r10)
 18068b0:	98 eb a3 fe 	stb     r7,-23554(r11)
 18068b4:	98 08 a3 ff 	stb     r0,-23553(r8)
 18068b8:	4e 80 00 20 	blr

018068bc <link_fbw_on_spi_it>:
 18068bc:	39 60 00 4c 	li      r11,76
 18068c0:	a1 2b 00 00 	lhz     r9,0(r11)
 18068c4:	39 40 00 4a 	li      r10,74
 18068c8:	39 29 00 c8 	addi    r9,r9,200
 18068cc:	b1 2a 00 00 	sth     r9,0(r10)
 18068d0:	39 60 00 56 	li      r11,86
 18068d4:	89 2b 00 00 	lbz     r9,0(r11)
 18068d8:	39 40 00 57 	li      r10,87
 18068dc:	61 29 00 10 	ori     r9,r9,16
 18068e0:	99 2b 00 00 	stb     r9,0(r11)
 18068e4:	88 0a 00 00 	lbz     r0,0(r10)
 18068e8:	60 00 00 10 	ori     r0,r0,16
 18068ec:	98 0a 00 00 	stb     r0,0(r10)
 18068f0:	4e 80 00 20 	blr

018068f4 <__vector_12>:
 18068f4:	3d 40 01 82 	lis     r10,386
 18068f8:	89 2a a3 fd 	lbz     r9,-23555(r10)
 18068fc:	39 60 00 57 	li      r11,87
 1806900:	88 0b 00 00 	lbz     r0,0(r11)
 1806904:	39 29 00 01 	addi    r9,r9,1
 1806908:	55 28 06 3e 	clrlwi  r8,r9,24
 180690c:	70 00 00 ef 	andi.   r0,r0,239
 1806910:	2f 88 00 17 	cmpwi   cr7,r8,23
 1806914:	98 0b 00 00 	stb     r0,0(r11)
 1806918:	99 2a a3 fd 	stb     r9,-23555(r10)
 180691c:	40 9e 00 94 	bne-    cr7,18069b0 <__vector_12+0xbc>
 1806920:	39 20 00 2f 	li      r9,47
 1806924:	3d 60 01 82 	lis     r11,386
 1806928:	88 e9 00 00 	lbz     r7,0(r9)
 180692c:	88 0b a3 fe 	lbz     r0,-23554(r11)
 1806930:	7c 07 00 00 	cmpw    r7,r0
 1806934:	40 82 00 24 	bne-    1806958 <__vector_12+0x64>
 1806938:	3d 20 01 82 	lis     r9,386
 180693c:	89 49 a9 de 	lbz     r10,-22050(r9)
 1806940:	3d 60 01 82 	lis     r11,386
 1806944:	38 00 00 01 	li      r0,1
 1806948:	3d 20 01 82 	lis     r9,386
 180694c:	98 0b a3 5d 	stb     r0,-23715(r11)
 1806950:	99 49 a4 00 	stb     r10,-23552(r9)
 1806954:	48 00 00 14 	b       1806968 <__vector_12+0x74>
 1806958:	3d 60 01 82 	lis     r11,386
 180695c:	89 2b a4 01 	lbz     r9,-23551(r11)
 1806960:	39 29 00 01 	addi    r9,r9,1
 1806964:	99 2b a4 01 	stb     r9,-23551(r11)
 1806968:	3d 20 01 82 	lis     r9,386
 180696c:	38 00 00 01 	li      r0,1
 1806970:	98 09 a3 5c 	stb     r0,-23716(r9)
 1806974:	3d 60 01 82 	lis     r11,386
 1806978:	38 00 00 00 	li      r0,0
 180697c:	98 0b a4 03 	stb     r0,-23549(r11)
 1806980:	39 40 00 38 	li      r10,56
 1806984:	89 2a 00 00 	lbz     r9,0(r10)
 1806988:	39 60 00 2d 	li      r11,45
 180698c:	61 29 00 01 	ori     r9,r9,1
 1806990:	99 2a 00 00 	stb     r9,0(r10)
 1806994:	88 0b 00 00 	lbz     r0,0(r11)
 1806998:	54 00 06 7e 	clrlwi  r0,r0,25
 180699c:	98 0b 00 00 	stb     r0,0(r11)
 18069a0:	89 2b 00 00 	lbz     r9,0(r11)
 18069a4:	71 29 00 bf 	andi.   r9,r9,191
 18069a8:	99 2b 00 00 	stb     r9,0(r11)
 18069ac:	4e 80 00 20 	blr
 18069b0:	28 08 00 15 	cmplwi  r8,21
 18069b4:	41 81 00 2c 	bgt-    18069e0 <__vector_12+0xec>
 18069b8:	3d 20 01 82 	lis     r9,386
 18069bc:	39 29 a9 b4 	addi    r9,r9,-22092
 18069c0:	3d 60 01 82 	lis     r11,386
 18069c4:	7c e8 48 ae 	lbzx    r7,r8,r9
 18069c8:	88 0b a3 ff 	lbz     r0,-23553(r11)
 18069cc:	39 20 00 2f 	li      r9,47
 18069d0:	7c e0 02 78 	xor     r0,r7,r0
 18069d4:	98 0b a3 ff 	stb     r0,-23553(r11)
 18069d8:	98 e9 00 00 	stb     r7,0(r9)
 18069dc:	48 00 00 14 	b       18069f0 <__vector_12+0xfc>
 18069e0:	3d 20 01 82 	lis     r9,386
 18069e4:	88 09 a3 ff 	lbz     r0,-23553(r9)
 18069e8:	39 60 00 2f 	li      r11,47
 18069ec:	98 0b 00 00 	stb     r0,0(r11)
 18069f0:	39 20 00 2f 	li      r9,47
 18069f4:	88 e9 00 00 	lbz     r7,0(r9)
 18069f8:	3d 00 01 82 	lis     r8,386
 18069fc:	3d 60 01 82 	lis     r11,386
 1806a00:	88 08 a3 fe 	lbz     r0,-23554(r8)
 1806a04:	89 4b a3 fd 	lbz     r10,-23555(r11)
 1806a08:	3d 20 01 82 	lis     r9,386
 1806a0c:	39 29 a9 c9 	addi    r9,r9,-22071
 1806a10:	7c e0 02 78 	xor     r0,r7,r0
 1806a14:	7c ea 49 ae 	stbx    r7,r10,r9
 1806a18:	98 08 a3 fe 	stb     r0,-23554(r8)
 1806a1c:	4e 80 00 20 	blr

01806a20 <spi_init>:
 1806a20:	39 60 00 37 	li      r11,55
 1806a24:	88 0b 00 00 	lbz     r0,0(r11)
 1806a28:	3c e0 01 82 	lis     r7,386
 1806a2c:	60 00 00 06 	ori     r0,r0,6
 1806a30:	98 0b 00 00 	stb     r0,0(r11)
 1806a34:	89 2b 00 00 	lbz     r9,0(r11)
 1806a38:	39 00 00 00 	li      r8,0
 1806a3c:	61 29 00 01 	ori     r9,r9,1
 1806a40:	99 2b 00 00 	stb     r9,0(r11)
 1806a44:	99 07 a4 03 	stb     r8,-23549(r7)
 1806a48:	39 60 00 38 	li      r11,56
 1806a4c:	88 0b 00 00 	lbz     r0,0(r11)
 1806a50:	39 40 00 22 	li      r10,34
 1806a54:	60 00 00 01 	ori     r0,r0,1
 1806a58:	98 0b 00 00 	stb     r0,0(r11)
 1806a5c:	89 2a 00 00 	lbz     r9,0(r10)
 1806a60:	39 60 00 23 	li      r11,35
 1806a64:	61 29 00 80 	ori     r9,r9,128
 1806a68:	99 2a 00 00 	stb     r9,0(r10)
 1806a6c:	99 07 a4 03 	stb     r8,-23549(r7)
 1806a70:	88 0b 00 00 	lbz     r0,0(r11)
 1806a74:	60 00 00 80 	ori     r0,r0,128
 1806a78:	98 0b 00 00 	stb     r0,0(r11)
 1806a7c:	99 07 a4 03 	stb     r8,-23549(r7)
 1806a80:	4e 80 00 20 	blr

01806a84 <__vector_17>:
 1806a84:	94 21 ff f0 	stwu    r1,-16(r1)
 1806a88:	7c 08 02 a6 	mflr    r0
 1806a8c:	90 01 00 14 	stw     r0,20(r1)
 1806a90:	3d 20 01 82 	lis     r9,386
 1806a94:	88 09 a4 03 	lbz     r0,-23549(r9)
 1806a98:	2c 00 00 01 	cmpwi   r0,1
 1806a9c:	40 82 00 0c 	bne-    1806aa8 <__vector_17+0x24>
 1806aa0:	4b ff fe 1d 	bl      18068bc <link_fbw_on_spi_it>
 1806aa4:	48 00 00 14 	b       1806ab8 <__vector_17+0x34>
 1806aa8:	3d 60 01 82 	lis     r11,386
 1806aac:	89 2b a3 40 	lbz     r9,-23744(r11)
 1806ab0:	39 29 00 01 	addi    r9,r9,1
 1806ab4:	99 2b a3 40 	stb     r9,-23744(r11)
 1806ab8:	80 01 00 14 	lwz     r0,20(r1)
 1806abc:	7c 08 03 a6 	mtlr    r0
 1806ac0:	38 21 00 10 	addi    r1,r1,16
 1806ac4:	4e 80 00 20 	blr

01806ac8 <adc_buf_channel>:
 1806ac8:	3d 20 01 82 	lis     r9,386
 1806acc:	39 29 a5 0c 	addi    r9,r9,-23284
 1806ad0:	54 63 10 3a 	rlwinm  r3,r3,2,0,29
 1806ad4:	7c 89 19 2e 	stwx    r4,r9,r3
 1806ad8:	4e 80 00 20 	blr

01806adc <adc_init>:
 1806adc:	38 00 00 00 	li      r0,0
 1806ae0:	39 20 00 62 	li      r9,98
 1806ae4:	98 09 00 00 	stb     r0,0(r9)
 1806ae8:	39 60 00 61 	li      r11,97
 1806aec:	98 0b 00 00 	stb     r0,0(r11)
 1806af0:	39 20 00 27 	li      r9,39
 1806af4:	38 00 00 40 	li      r0,64
 1806af8:	98 09 00 00 	stb     r0,0(r9)
 1806afc:	39 60 00 28 	li      r11,40
 1806b00:	88 0b 00 00 	lbz     r0,0(r11)
 1806b04:	39 40 00 cf 	li      r10,207
 1806b08:	60 00 00 80 	ori     r0,r0,128
 1806b0c:	98 0b 00 00 	stb     r0,0(r11)
 1806b10:	39 00 00 26 	li      r8,38
 1806b14:	3d 20 01 82 	lis     r9,386
 1806b18:	99 48 00 00 	stb     r10,0(r8)
 1806b1c:	38 e9 a5 0c 	addi    r7,r9,-23284
 1806b20:	39 60 00 00 	li      r11,0
 1806b24:	39 40 00 00 	li      r10,0
 1806b28:	55 69 10 3a 	rlwinm  r9,r11,2,0,29
 1806b2c:	38 0b 00 01 	addi    r0,r11,1
 1806b30:	54 0b 06 3e 	clrlwi  r11,r0,24
 1806b34:	28 0b 00 07 	cmplwi  r11,7
 1806b38:	7d 47 49 2e 	stwx    r10,r7,r9
 1806b3c:	40 81 ff ec 	ble+    1806b28 <adc_init+0x4c>
 1806b40:	4e 80 00 20 	blr

01806b44 <__vector_21>:
 1806b44:	38 80 00 27 	li      r4,39
 1806b48:	88 04 00 00 	lbz     r0,0(r4)
 1806b4c:	3d 20 01 82 	lis     r9,386
 1806b50:	54 06 07 7e 	clrlwi  r6,r0,29
 1806b54:	39 29 a5 0c 	addi    r9,r9,-23284
 1806b58:	54 c0 10 3a 	rlwinm  r0,r6,2,0,29
 1806b5c:	7c e9 00 2e 	lwzx    r7,r9,r0
 1806b60:	39 60 00 24 	li      r11,36
 1806b64:	a0 ab 00 00 	lhz     r5,0(r11)
 1806b68:	3d 20 01 82 	lis     r9,386
 1806b6c:	2c 07 00 00 	cmpwi   r7,0
 1806b70:	39 29 a9 e0 	addi    r9,r9,-22048
 1806b74:	7c 06 32 14 	add     r0,r6,r6
 1806b78:	7c a9 03 2e 	sthx    r5,r9,r0
 1806b7c:	41 82 00 4c 	beq-    1806bc8 <__vector_21+0x84>
 1806b80:	89 27 00 42 	lbz     r9,66(r7)
 1806b84:	39 07 00 02 	addi    r8,r7,2
 1806b88:	39 29 00 01 	addi    r9,r9,1
 1806b8c:	55 29 06 3e 	clrlwi  r9,r9,24
 1806b90:	20 09 00 1f 	subfic  r0,r9,31
 1806b94:	7c 00 01 10 	subfe   r0,r0,r0
 1806b98:	7c 00 03 b8 	nand    r0,r0,r0
 1806b9c:	7d 29 00 38 	and     r9,r9,r0
 1806ba0:	7d 49 4a 14 	add     r10,r9,r9
 1806ba4:	7d 68 52 2e 	lhzx    r11,r8,r10
 1806ba8:	a0 07 00 00 	lhz     r0,0(r7)
 1806bac:	7c 0b 00 50 	subf    r0,r11,r0
 1806bb0:	b0 07 00 00 	sth     r0,0(r7)
 1806bb4:	7c a8 53 2e 	sthx    r5,r8,r10
 1806bb8:	a0 07 00 00 	lhz     r0,0(r7)
 1806bbc:	99 27 00 42 	stb     r9,66(r7)
 1806bc0:	7c 05 02 14 	add     r0,r5,r0
 1806bc4:	b0 07 00 00 	sth     r0,0(r7)
 1806bc8:	38 06 00 01 	addi    r0,r6,1
 1806bcc:	54 06 06 3e 	clrlwi  r6,r0,24
 1806bd0:	21 26 00 07 	subfic  r9,r6,7
 1806bd4:	7d 29 49 10 	subfe   r9,r9,r9
 1806bd8:	7d 29 4b b8 	nand    r9,r9,r9
 1806bdc:	7c c6 48 38 	and     r6,r6,r9
 1806be0:	60 c0 00 40 	ori     r0,r6,64
 1806be4:	98 04 00 00 	stb     r0,0(r4)
 1806be8:	39 20 00 26 	li      r9,38
 1806bec:	88 09 00 00 	lbz     r0,0(r9)
 1806bf0:	60 00 00 40 	ori     r0,r0,64
 1806bf4:	98 09 00 00 	stb     r0,0(r9)
 1806bf8:	4e 80 00 20 	blr

01806bfc <gps_init>:
 1806bfc:	94 21 ff f0 	stwu    r1,-16(r1)
 1806c00:	7c 08 02 a6 	mflr    r0
 1806c04:	90 01 00 14 	stw     r0,20(r1)
 1806c08:	48 00 27 25 	bl      180932c <uart1_init>
 1806c0c:	3d 20 01 82 	lis     r9,386
 1806c10:	38 00 00 00 	li      r0,0
 1806c14:	98 09 a4 04 	stb     r0,-23548(r9)
 1806c18:	80 01 00 14 	lwz     r0,20(r1)
 1806c1c:	7c 08 03 a6 	mtlr    r0
 1806c20:	38 21 00 10 	addi    r1,r1,16
 1806c24:	4e 80 00 20 	blr

01806c28 <parse_gps_msg>:
 1806c28:	94 21 ff f0 	stwu    r1,-16(r1)
 1806c2c:	3d 20 01 82 	lis     r9,386
 1806c30:	88 89 a4 0c 	lbz     r4,-23540(r9)
 1806c34:	2c 04 00 01 	cmpwi   r4,1
 1806c38:	40 82 02 58 	bne-    1806e90 <parse_gps_msg+0x268>
 1806c3c:	3d 20 01 82 	lis     r9,386
 1806c40:	88 09 a4 0b 	lbz     r0,-23541(r9)
 1806c44:	2c 00 00 08 	cmpwi   r0,8
 1806c48:	40 82 00 74 	bne-    1806cbc <parse_gps_msg+0x94>
 1806c4c:	3d 00 01 82 	lis     r8,386
 1806c50:	38 e8 a5 30 	addi    r7,r8,-23248
 1806c54:	80 07 00 08 	lwz     r0,8(r7)
 1806c58:	6c 00 80 00 	xoris   r0,r0,32768
 1806c5c:	90 01 00 0c 	stw     r0,12(r1)
 1806c60:	3d 20 43 30 	lis     r9,17200
 1806c64:	91 21 00 08 	stw     r9,8(r1)
 1806c68:	3d 20 01 81 	lis     r9,385
 1806c6c:	39 29 9f 80 	addi    r9,r9,-24704
 1806c70:	c8 09 00 00 	lfd     f0,0(r9)
 1806c74:	c9 a1 00 08 	lfd     f13,8(r1)
 1806c78:	3d 20 01 81 	lis     r9,385
 1806c7c:	39 29 9f 88 	addi    r9,r9,-24696
 1806c80:	fd ad 00 28 	fsub    f13,f13,f0
 1806c84:	c9 89 00 00 	lfd     f12,0(r9)
 1806c88:	81 47 00 04 	lwz     r10,4(r7)
 1806c8c:	80 08 a5 30 	lwz     r0,-23248(r8)
 1806c90:	3d 20 01 82 	lis     r9,386
 1806c94:	fd a0 68 18 	frsp    f13,f13
 1806c98:	3d 60 01 82 	lis     r11,386
 1806c9c:	3d 00 01 82 	lis     r8,386
 1806ca0:	90 09 a4 24 	stw     r0,-23516(r9)
 1806ca4:	91 4b a4 20 	stw     r10,-23520(r11)
 1806ca8:	fc 00 68 90 	fmr     f0,f13
 1806cac:	fc 00 60 24 	fdiv    f0,f0,f12
 1806cb0:	fc 00 00 18 	frsp    f0,f0
 1806cb4:	d0 08 a4 14 	stfs    f0,-23532(r8)
 1806cb8:	48 00 01 d8 	b       1806e90 <parse_gps_msg+0x268>
 1806cbc:	2c 00 00 03 	cmpwi   r0,3
 1806cc0:	40 82 00 18 	bne-    1806cd8 <parse_gps_msg+0xb0>
 1806cc4:	3d 20 01 82 	lis     r9,386
 1806cc8:	88 09 a5 30 	lbz     r0,-23248(r9)
 1806ccc:	3d 60 01 82 	lis     r11,386
 1806cd0:	98 0b a4 38 	stb     r0,-23496(r11)
 1806cd4:	48 00 01 bc 	b       1806e90 <parse_gps_msg+0x268>
 1806cd8:	2c 00 00 12 	cmpwi   r0,18
 1806cdc:	40 82 01 b4 	bne-    1806e90 <parse_gps_msg+0x268>
 1806ce0:	3d 40 01 82 	lis     r10,386
 1806ce4:	80 0a a5 40 	lwz     r0,-23232(r10)
 1806ce8:	39 4a a5 40 	addi    r10,r10,-23232
 1806cec:	90 01 00 0c 	stw     r0,12(r1)
 1806cf0:	80 0a ff f8 	lwz     r0,-8(r10)
 1806cf4:	3c e0 43 30 	lis     r7,17200
 1806cf8:	90 e1 00 08 	stw     r7,8(r1)
 1806cfc:	c8 e1 00 08 	lfd     f7,8(r1)
 1806d00:	6c 00 80 00 	xoris   r0,r0,32768
 1806d04:	81 6a 00 04 	lwz     r11,4(r10)
 1806d08:	90 01 00 0c 	stw     r0,12(r1)
 1806d0c:	90 e1 00 08 	stw     r7,8(r1)
 1806d10:	c9 81 00 08 	lfd     f12,8(r1)
 1806d14:	6d 6b 80 00 	xoris   r11,r11,32768
 1806d18:	91 61 00 0c 	stw     r11,12(r1)
 1806d1c:	90 e1 00 08 	stw     r7,8(r1)
 1806d20:	c8 01 00 08 	lfd     f0,8(r1)
 1806d24:	3d 20 01 81 	lis     r9,385
 1806d28:	39 29 9f 80 	addi    r9,r9,-24704
 1806d2c:	c8 a9 00 00 	lfd     f5,0(r9)
 1806d30:	3d 20 01 81 	lis     r9,385
 1806d34:	c9 49 9f 60 	lfd     f10,-24736(r9)
 1806d38:	fc 00 28 28 	fsub    f0,f0,f5
 1806d3c:	80 0a ff ec 	lwz     r0,-20(r10)
 1806d40:	fd 8c 28 28 	fsub    f12,f12,f5
 1806d44:	90 01 00 0c 	stw     r0,12(r1)
 1806d48:	90 e1 00 08 	stw     r7,8(r1)
 1806d4c:	fc 00 00 18 	frsp    f0,f0
 1806d50:	c9 21 00 08 	lfd     f9,8(r1)
 1806d54:	3d 20 01 81 	lis     r9,385
 1806d58:	fd 80 60 18 	frsp    f12,f12
 1806d5c:	39 29 9f 90 	addi    r9,r9,-24688
 1806d60:	c9 a9 00 00 	lfd     f13,0(r9)
 1806d64:	fd 60 00 90 	fmr     f11,f0
 1806d68:	3d 20 01 81 	lis     r9,385
 1806d6c:	c8 c9 9f 68 	lfd     f6,-24728(r9)
 1806d70:	fd 00 60 90 	fmr     f8,f12
 1806d74:	fc e7 68 28 	fsub    f7,f7,f13
 1806d78:	3d 20 01 81 	lis     r9,385
 1806d7c:	fd 29 68 28 	fsub    f9,f9,f13
 1806d80:	c8 49 9f 78 	lfd     f2,-24712(r9)
 1806d84:	fd 6b 50 24 	fdiv    f11,f11,f10
 1806d88:	3d 20 01 81 	lis     r9,385
 1806d8c:	39 29 9f 88 	addi    r9,r9,-24696
 1806d90:	c8 69 00 00 	lfd     f3,0(r9)
 1806d94:	3d 20 01 81 	lis     r9,385
 1806d98:	39 29 9f 98 	addi    r9,r9,-24680
 1806d9c:	c8 89 00 00 	lfd     f4,0(r9)
 1806da0:	3d 60 01 82 	lis     r11,386
 1806da4:	80 0b a4 24 	lwz     r0,-23516(r11)
 1806da8:	3d 20 51 eb 	lis     r9,20971
 1806dac:	61 29 85 1f 	ori     r9,r9,34079
 1806db0:	7d 60 48 96 	mulhw   r11,r0,r9
 1806db4:	3d 40 01 82 	lis     r10,386
 1806db8:	81 0a a4 20 	lwz     r8,-23520(r10)
 1806dbc:	7d 6b 2e 70 	srawi   r11,r11,5
 1806dc0:	7d 28 48 96 	mulhw   r9,r8,r9
 1806dc4:	7c 00 fe 70 	srawi   r0,r0,31
 1806dc8:	7d 60 58 50 	subf    r11,r0,r11
 1806dcc:	3d 6b ff f7 	addis   r11,r11,-9
 1806dd0:	7d 08 fe 70 	srawi   r8,r8,31
 1806dd4:	39 6b c2 a6 	addi    r11,r11,-15706
 1806dd8:	7d 29 2e 70 	srawi   r9,r9,5
 1806ddc:	7d 28 48 50 	subf    r9,r8,r9
 1806de0:	fc e0 38 18 	frsp    f7,f7
 1806de4:	6d 6b 80 00 	xoris   r11,r11,32768
 1806de8:	fd 20 48 18 	frsp    f9,f9
 1806dec:	91 61 00 0c 	stw     r11,12(r1)
 1806df0:	fd 6b 30 24 	fdiv    f11,f11,f6
 1806df4:	3d 29 ff a8 	addis   r9,r9,-88
 1806df8:	90 e1 00 08 	stw     r7,8(r1)
 1806dfc:	39 29 8a 1a 	addi    r9,r9,-30182
 1806e00:	7d 4b 53 78 	mr      r11,r10
 1806e04:	c9 41 00 08 	lfd     f10,8(r1)
 1806e08:	6d 29 80 00 	xoris   r9,r9,32768
 1806e0c:	91 21 00 0c 	stw     r9,12(r1)
 1806e10:	3d 20 01 81 	lis     r9,385
 1806e14:	90 e1 00 08 	stw     r7,8(r1)
 1806e18:	c8 c9 9f 70 	lfd     f6,-24720(r9)
 1806e1c:	c9 81 00 08 	lfd     f12,8(r1)
 1806e20:	3d 60 01 82 	lis     r11,386
 1806e24:	3d 40 01 82 	lis     r10,386
 1806e28:	3d 00 01 82 	lis     r8,386
 1806e2c:	3c e0 01 82 	lis     r7,386
 1806e30:	3c c0 01 82 	lis     r6,386
 1806e34:	3c a0 01 82 	lis     r5,386
 1806e38:	3d 20 01 82 	lis     r9,386
 1806e3c:	98 89 a4 31 	stb     r4,-23503(r9)
 1806e40:	fc 00 38 90 	fmr     f0,f7
 1806e44:	fd a0 48 90 	fmr     f13,f9
 1806e48:	fd 08 20 24 	fdiv    f8,f8,f4
 1806e4c:	fc 00 18 24 	fdiv    f0,f0,f3
 1806e50:	fd ad 10 24 	fdiv    f13,f13,f2
 1806e54:	fd 6b 01 b2 	fmul    f11,f11,f6
 1806e58:	fd 8c 28 28 	fsub    f12,f12,f5
 1806e5c:	fd 4a 28 28 	fsub    f10,f10,f5
 1806e60:	fc 00 00 18 	frsp    f0,f0
 1806e64:	fd 00 40 18 	frsp    f8,f8
 1806e68:	fd 60 58 18 	frsp    f11,f11
 1806e6c:	fd a0 68 18 	frsp    f13,f13
 1806e70:	fd 40 50 18 	frsp    f10,f10
 1806e74:	fd 80 60 18 	frsp    f12,f12
 1806e78:	d0 0b a4 2c 	stfs    f0,-23508(r11)
 1806e7c:	d1 0a a4 3c 	stfs    f8,-23492(r10)
 1806e80:	d1 68 a4 28 	stfs    f11,-23512(r8)
 1806e84:	d1 a7 a4 34 	stfs    f13,-23500(r7)
 1806e88:	d1 46 a4 10 	stfs    f10,-23536(r6)
 1806e8c:	d1 85 a4 1c 	stfs    f12,-23524(r5)
 1806e90:	38 21 00 10 	addi    r1,r1,16
 1806e94:	4e 80 00 20 	blr

01806e98 <parse_ubx>:
 1806e98:	3d 20 01 82 	lis     r9,386
 1806e9c:	88 e9 a4 04 	lbz     r7,-23548(r9)
 1806ea0:	3c a0 01 82 	lis     r5,386
 1806ea4:	54 e8 06 3e 	clrlwi  r8,r7,24
 1806ea8:	28 08 00 06 	cmplwi  r8,6
 1806eac:	41 81 00 24 	bgt-    1806ed0 <parse_ubx+0x38>
 1806eb0:	3d 40 01 82 	lis     r10,386
 1806eb4:	89 2a a4 09 	lbz     r9,-23543(r10)
 1806eb8:	3d 60 01 82 	lis     r11,386
 1806ebc:	88 0b a4 0a 	lbz     r0,-23542(r11)
 1806ec0:	7d 23 4a 14 	add     r9,r3,r9
 1806ec4:	7c 00 4a 14 	add     r0,r0,r9
 1806ec8:	98 0b a4 0a 	stb     r0,-23542(r11)
 1806ecc:	99 2a a4 09 	stb     r9,-23543(r10)
 1806ed0:	7d 00 43 79 	mr.     r0,r8
 1806ed4:	7c e6 3b 78 	mr      r6,r7
 1806ed8:	40 82 00 18 	bne-    1806ef0 <parse_ubx+0x58>
 1806edc:	2c 03 00 b5 	cmpwi   r3,181
 1806ee0:	4c 82 00 20 	bnelr   
 1806ee4:	38 06 00 01 	addi    r0,r6,1
 1806ee8:	98 05 a4 04 	stb     r0,-23548(r5)
 1806eec:	4e 80 00 20 	blr
 1806ef0:	2c 00 00 01 	cmpwi   r0,1
 1806ef4:	40 82 00 2c 	bne-    1806f20 <parse_ubx+0x88>
 1806ef8:	2c 03 00 62 	cmpwi   r3,98
 1806efc:	40 82 01 60 	bne-    180705c <parse_ubx+0x1c4>
 1806f00:	38 00 00 00 	li      r0,0
 1806f04:	39 46 00 01 	addi    r10,r6,1
 1806f08:	3d 60 01 82 	lis     r11,386
 1806f0c:	3d 20 01 82 	lis     r9,386
 1806f10:	98 09 a4 0a 	stb     r0,-23542(r9)
 1806f14:	99 45 a4 04 	stb     r10,-23548(r5)
 1806f18:	98 0b a4 09 	stb     r0,-23543(r11)
 1806f1c:	4e 80 00 20 	blr
 1806f20:	2c 00 00 02 	cmpwi   r0,2
 1806f24:	40 82 00 3c 	bne-    1806f60 <parse_ubx+0xc8>
 1806f28:	3d 20 01 82 	lis     r9,386
 1806f2c:	88 09 a4 18 	lbz     r0,-23528(r9)
 1806f30:	2c 00 00 00 	cmpwi   r0,0
 1806f34:	41 82 00 18 	beq-    1806f4c <parse_ubx+0xb4>
 1806f38:	3d 60 01 82 	lis     r11,386
 1806f3c:	89 2b a4 30 	lbz     r9,-23504(r11)
 1806f40:	39 29 00 01 	addi    r9,r9,1
 1806f44:	99 2b a4 30 	stb     r9,-23504(r11)
 1806f48:	48 00 01 14 	b       180705c <parse_ubx+0x1c4>
 1806f4c:	38 06 00 01 	addi    r0,r6,1
 1806f50:	3d 20 01 82 	lis     r9,386
 1806f54:	98 69 a4 0c 	stb     r3,-23540(r9)
 1806f58:	98 05 a4 04 	stb     r0,-23548(r5)
 1806f5c:	4e 80 00 20 	blr
 1806f60:	2c 00 00 03 	cmpwi   r0,3
 1806f64:	40 82 00 18 	bne-    1806f7c <parse_ubx+0xe4>
 1806f68:	38 06 00 01 	addi    r0,r6,1
 1806f6c:	3d 20 01 82 	lis     r9,386
 1806f70:	98 69 a4 0b 	stb     r3,-23541(r9)
 1806f74:	98 05 a4 04 	stb     r0,-23548(r5)
 1806f78:	4e 80 00 20 	blr
 1806f7c:	2c 00 00 04 	cmpwi   r0,4
 1806f80:	40 82 00 18 	bne-    1806f98 <parse_ubx+0x100>
 1806f84:	38 06 00 01 	addi    r0,r6,1
 1806f88:	3d 20 01 82 	lis     r9,386
 1806f8c:	b0 69 a4 06 	sth     r3,-23546(r9)
 1806f90:	98 05 a4 04 	stb     r0,-23548(r5)
 1806f94:	4e 80 00 20 	blr
 1806f98:	2c 00 00 05 	cmpwi   r0,5
 1806f9c:	40 82 00 38 	bne-    1806fd4 <parse_ubx+0x13c>
 1806fa0:	3d 20 01 82 	lis     r9,386
 1806fa4:	a0 09 a4 06 	lhz     r0,-23546(r9)
 1806fa8:	54 6b 40 2e 	rlwinm  r11,r3,8,0,23
 1806fac:	7c 00 5b 78 	or      r0,r0,r11
 1806fb0:	28 00 00 ff 	cmplwi  r0,255
 1806fb4:	b0 09 a4 06 	sth     r0,-23546(r9)
 1806fb8:	41 81 00 a4 	bgt-    180705c <parse_ubx+0x1c4>
 1806fbc:	39 66 00 01 	addi    r11,r6,1
 1806fc0:	3d 20 01 82 	lis     r9,386
 1806fc4:	38 00 00 00 	li      r0,0
 1806fc8:	98 09 a4 08 	stb     r0,-23544(r9)
 1806fcc:	99 65 a4 04 	stb     r11,-23548(r5)
 1806fd0:	4e 80 00 20 	blr
 1806fd4:	2c 00 00 06 	cmpwi   r0,6
 1806fd8:	40 82 00 3c 	bne-    1807014 <parse_ubx+0x17c>
 1806fdc:	3c e0 01 82 	lis     r7,386
 1806fe0:	89 67 a4 08 	lbz     r11,-23544(r7)
 1806fe4:	3d 20 01 82 	lis     r9,386
 1806fe8:	39 0b 00 01 	addi    r8,r11,1
 1806fec:	a1 49 a4 06 	lhz     r10,-23546(r9)
 1806ff0:	55 00 06 3e 	clrlwi  r0,r8,24
 1806ff4:	3d 20 01 82 	lis     r9,386
 1806ff8:	39 29 a5 2c 	addi    r9,r9,-23252
 1806ffc:	55 6b 06 3e 	clrlwi  r11,r11,24
 1807000:	7c 00 50 40 	cmplw   r0,r10
 1807004:	7c 69 59 ae 	stbx    r3,r9,r11
 1807008:	99 07 a4 08 	stb     r8,-23544(r7)
 180700c:	4d 80 00 20 	bltlr   
 1807010:	4b ff fe d4 	b       1806ee4 <parse_ubx+0x4c>
 1807014:	2c 00 00 07 	cmpwi   r0,7
 1807018:	40 82 00 20 	bne-    1807038 <parse_ubx+0x1a0>
 180701c:	3d 20 01 82 	lis     r9,386
 1807020:	88 09 a4 09 	lbz     r0,-23543(r9)
 1807024:	7c 03 00 00 	cmpw    r3,r0
 1807028:	40 82 00 34 	bne-    180705c <parse_ubx+0x1c4>
 180702c:	38 07 00 01 	addi    r0,r7,1
 1807030:	98 05 a4 04 	stb     r0,-23548(r5)
 1807034:	4e 80 00 20 	blr
 1807038:	2c 08 00 08 	cmpwi   r8,8
 180703c:	4c 82 00 20 	bnelr   
 1807040:	3d 20 01 82 	lis     r9,386
 1807044:	88 09 a4 0a 	lbz     r0,-23542(r9)
 1807048:	7c 03 00 00 	cmpw    r3,r0
 180704c:	40 82 00 10 	bne-    180705c <parse_ubx+0x1c4>
 1807050:	3d 20 01 82 	lis     r9,386
 1807054:	38 00 00 01 	li      r0,1
 1807058:	98 09 a4 18 	stb     r0,-23528(r9)
 180705c:	3d 20 01 82 	lis     r9,386
 1807060:	38 00 00 00 	li      r0,0
 1807064:	98 09 a4 04 	stb     r0,-23548(r9)
 1807068:	4e 80 00 20 	blr

0180706c <__vector_30>:
 180706c:	94 21 ff f0 	stwu    r1,-16(r1)
 1807070:	7c 08 02 a6 	mflr    r0
 1807074:	90 01 00 14 	stw     r0,20(r1)
 1807078:	39 20 00 9c 	li      r9,156
 180707c:	88 69 00 00 	lbz     r3,0(r9)
 1807080:	4b ff fe 19 	bl      1806e98 <parse_ubx>
 1807084:	80 01 00 14 	lwz     r0,20(r1)
 1807088:	7c 08 03 a6 	mtlr    r0
 180708c:	38 21 00 10 	addi    r1,r1,16
 1807090:	4e 80 00 20 	blr

01807094 <ir_init>:
 1807094:	94 21 ff f0 	stwu    r1,-16(r1)
 1807098:	7c 08 02 a6 	mflr    r0
 180709c:	90 01 00 14 	stw     r0,20(r1)
 18070a0:	3d 20 01 81 	lis     r9,385
 18070a4:	c0 09 9f a0 	lfs     f0,-24672(r9)
 18070a8:	3d 60 01 82 	lis     r11,386
 18070ac:	3c 80 01 82 	lis     r4,386
 18070b0:	38 84 a6 2c 	addi    r4,r4,-22996
 18070b4:	38 60 00 01 	li      r3,1
 18070b8:	d0 0b a3 70 	stfs    f0,-23696(r11)
 18070bc:	4b ff fa 0d 	bl      1806ac8 <adc_buf_channel>
 18070c0:	3c 80 01 82 	lis     r4,386
 18070c4:	38 84 a6 70 	addi    r4,r4,-22928
 18070c8:	38 60 00 02 	li      r3,2
 18070cc:	4b ff f9 fd 	bl      1806ac8 <adc_buf_channel>
 18070d0:	80 01 00 14 	lwz     r0,20(r1)
 18070d4:	7c 08 03 a6 	mtlr    r0
 18070d8:	38 21 00 10 	addi    r1,r1,16
 18070dc:	4e 80 00 20 	blr

018070e0 <ir_update>:
 18070e0:	3d 20 01 82 	lis     r9,386
 18070e4:	3d 40 01 82 	lis     r10,386
 18070e8:	a1 69 a6 2c 	lhz     r11,-22996(r9)
 18070ec:	a0 0a a6 70 	lhz     r0,-22928(r10)
 18070f0:	3d 20 01 82 	lis     r9,386
 18070f4:	55 6b d9 7e 	rlwinm  r11,r11,27,5,31
 18070f8:	54 00 d9 7e 	rlwinm  r0,r0,27,5,31
 18070fc:	3d 40 01 82 	lis     r10,386
 1807100:	a1 09 a3 6a 	lhz     r8,-23702(r9)
 1807104:	7d 2b 02 14 	add     r9,r11,r0
 1807108:	a0 ea a3 6c 	lhz     r7,-23700(r10)
 180710c:	7c 0b 00 50 	subf    r0,r11,r0
 1807110:	7d 29 00 d0 	neg     r9,r9
 1807114:	7d 28 48 50 	subf    r9,r8,r9
 1807118:	7c 07 00 50 	subf    r0,r7,r0
 180711c:	3d 60 01 82 	lis     r11,386
 1807120:	3d 40 01 82 	lis     r10,386
 1807124:	b1 2b a4 42 	sth     r9,-23486(r11)
 1807128:	b0 0a a4 40 	sth     r0,-23488(r10)
 180712c:	4e 80 00 20 	blr

01807130 <ir_gain_calib>:
 1807130:	94 21 ff f0 	stwu    r1,-16(r1)
 1807134:	3d 20 01 82 	lis     r9,386
 1807138:	a1 49 a4 40 	lhz     r10,-23488(r9)
 180713c:	7d 4a 00 d0 	neg     r10,r10
 1807140:	7d 40 07 34 	extsh   r0,r10
 1807144:	6c 00 80 00 	xoris   r0,r0,32768
 1807148:	90 01 00 0c 	stw     r0,12(r1)
 180714c:	3d 20 43 30 	lis     r9,17200
 1807150:	91 21 00 08 	stw     r9,8(r1)
 1807154:	3d 20 01 81 	lis     r9,385
 1807158:	39 29 9f a8 	addi    r9,r9,-24664
 180715c:	c9 a1 00 08 	lfd     f13,8(r1)
 1807160:	c9 89 00 00 	lfd     f12,0(r9)
 1807164:	3d 20 01 81 	lis     r9,385
 1807168:	39 29 9f b0 	addi    r9,r9,-24656
 180716c:	fd ad 60 28 	fsub    f13,f13,f12
 1807170:	c8 09 00 00 	lfd     f0,0(r9)
 1807174:	3d 20 01 82 	lis     r9,386
 1807178:	3d 60 01 82 	lis     r11,386
 180717c:	b1 49 a3 68 	sth     r10,-23704(r9)
 1807180:	fc 00 68 24 	fdiv    f0,f0,f13
 1807184:	fc 00 00 18 	frsp    f0,f0
 1807188:	d0 0b a3 70 	stfs    f0,-23696(r11)
 180718c:	38 21 00 10 	addi    r1,r1,16
 1807190:	4e 80 00 20 	blr

01807194 <roll_pitch_pid_run>:
 1807194:	94 21 ff f0 	stwu    r1,-16(r1)
 1807198:	3d 20 01 82 	lis     r9,386
 180719c:	3d 60 01 82 	lis     r11,386
 18071a0:	c0 0b a3 74 	lfs     f0,-23692(r11)
 18071a4:	c1 a9 a4 d8 	lfs     f13,-23336(r9)
 18071a8:	3d 20 01 82 	lis     r9,386
 18071ac:	c1 89 a3 7c 	lfs     f12,-23684(r9)
 18071b0:	ed 6d 00 28 	fsubs   f11,f13,f0
 18071b4:	3d 00 01 81 	lis     r8,385
 18071b8:	39 08 9f b8 	addi    r8,r8,-24648
 18071bc:	c0 08 00 00 	lfs     f0,0(r8)
 18071c0:	3d 20 01 82 	lis     r9,386
 18071c4:	ed 8c 02 f2 	fmuls   f12,f12,f11
 18071c8:	39 69 a4 46 	addi    r11,r9,-23482
 18071cc:	fc 0c 00 00 	fcmpu   cr0,f12,f0
 18071d0:	40 80 00 0c 	bge-    18071dc <roll_pitch_pid_run+0x48>
 18071d4:	39 20 da 80 	li      r9,-9600
 18071d8:	48 00 00 30 	b       1807208 <roll_pitch_pid_run+0x74>
 18071dc:	3d 20 01 81 	lis     r9,385
 18071e0:	39 29 9f bc 	addi    r9,r9,-24644
 18071e4:	c0 09 00 00 	lfs     f0,0(r9)
 18071e8:	fc 0c 00 00 	fcmpu   cr0,f12,f0
 18071ec:	40 81 00 0c 	ble-    18071f8 <roll_pitch_pid_run+0x64>
 18071f0:	39 20 25 80 	li      r9,9600
 18071f4:	48 00 00 14 	b       1807208 <roll_pitch_pid_run+0x74>
 18071f8:	fc 00 60 90 	fmr     f0,f12
 18071fc:	fd a0 00 1e 	fctiwz  f13,f0
 1807200:	d9 a1 00 08 	stfd    f13,8(r1)
 1807204:	81 21 00 0c 	lwz     r9,12(r1)
 1807208:	3d 40 01 82 	lis     r10,386
 180720c:	c0 0a a3 84 	lfs     f0,-23676(r10)
 1807210:	3d 00 01 81 	lis     r8,385
 1807214:	39 08 9f c0 	addi    r8,r8,-24640
 1807218:	c9 48 00 00 	lfd     f10,0(r8)
 180721c:	b1 2b 00 00 	sth     r9,0(r11)
 1807220:	fc 00 50 00 	fcmpu   cr0,f0,f10
 1807224:	40 80 00 0c 	bge-    1807230 <roll_pitch_pid_run+0x9c>
 1807228:	38 00 00 00 	li      r0,0
 180722c:	90 0a a3 84 	stw     r0,-23676(r10)
 1807230:	3d 20 01 82 	lis     r9,386
 1807234:	c1 69 a4 d8 	lfs     f11,-23336(r9)
 1807238:	3d 60 01 82 	lis     r11,386
 180723c:	3d 20 01 82 	lis     r9,386
 1807240:	fc 00 58 90 	fmr     f0,f11
 1807244:	c1 8b a4 cc 	lfs     f12,-23348(r11)
 1807248:	c1 a9 a3 78 	lfs     f13,-23688(r9)
 180724c:	fc 00 50 00 	fcmpu   cr0,f0,f10
 1807250:	ed 8c 68 28 	fsubs   f12,f12,f13
 1807254:	40 80 00 14 	bge-    1807268 <roll_pitch_pid_run+0xd4>
 1807258:	fd a0 58 50 	fneg    f13,f11
 180725c:	c0 0a a3 84 	lfs     f0,-23676(r10)
 1807260:	ec 00 03 72 	fmuls   f0,f0,f13
 1807264:	48 00 00 0c 	b       1807270 <roll_pitch_pid_run+0xdc>
 1807268:	c0 0a a3 84 	lfs     f0,-23676(r10)
 180726c:	ec 00 02 f2 	fmuls   f0,f0,f11
 1807270:	ec 0c 00 28 	fsubs   f0,f12,f0
 1807274:	fd 60 00 50 	fneg    f11,f0
 1807278:	3d 20 01 82 	lis     r9,386
 180727c:	c0 09 a3 80 	lfs     f0,-23680(r9)
 1807280:	3d 20 01 81 	lis     r9,385
 1807284:	39 29 9f b8 	addi    r9,r9,-24648
 1807288:	ed 80 02 f2 	fmuls   f12,f0,f11
 180728c:	c1 a9 00 00 	lfs     f13,0(r9)
 1807290:	3d 20 01 82 	lis     r9,386
 1807294:	39 69 a4 48 	addi    r11,r9,-23480
 1807298:	fc 0c 68 00 	fcmpu   cr0,f12,f13
 180729c:	40 80 00 0c 	bge-    18072a8 <roll_pitch_pid_run+0x114>
 18072a0:	39 20 da 80 	li      r9,-9600
 18072a4:	48 00 00 30 	b       18072d4 <roll_pitch_pid_run+0x140>
 18072a8:	3d 00 01 81 	lis     r8,385
 18072ac:	39 08 9f bc 	addi    r8,r8,-24644
 18072b0:	c0 08 00 00 	lfs     f0,0(r8)
 18072b4:	fc 0c 00 00 	fcmpu   cr0,f12,f0
 18072b8:	40 81 00 0c 	ble-    18072c4 <roll_pitch_pid_run+0x130>
 18072bc:	39 20 25 80 	li      r9,9600
 18072c0:	48 00 00 14 	b       18072d4 <roll_pitch_pid_run+0x140>
 18072c4:	fc 00 60 90 	fmr     f0,f12
 18072c8:	fd a0 00 1e 	fctiwz  f13,f0
 18072cc:	d9 a1 00 08 	stfd    f13,8(r1)
 18072d0:	81 21 00 0c 	lwz     r9,12(r1)
 18072d4:	b1 2b 00 00 	sth     r9,0(r11)
 18072d8:	38 21 00 10 	addi    r1,r1,16
 18072dc:	4e 80 00 20 	blr

018072e0 <course_pid_run>:
 18072e0:	3d 20 01 82 	lis     r9,386
 18072e4:	3d 60 01 82 	lis     r11,386
 18072e8:	c1 a9 a4 ec 	lfs     f13,-23316(r9)
 18072ec:	c0 0b a3 94 	lfs     f0,-23660(r11)
 18072f0:	3d 20 01 81 	lis     r9,385
 18072f4:	c9 89 9f c8 	lfd     f12,-24632(r9)
 18072f8:	ed ad 00 28 	fsubs   f13,f13,f0
 18072fc:	3d 40 01 82 	lis     r10,386
 1807300:	fc 00 68 90 	fmr     f0,f13
 1807304:	fc 00 60 00 	fcmpu   cr0,f0,f12
 1807308:	40 81 00 20 	ble-    1807328 <course_pid_run+0x48>
 180730c:	3d 20 01 81 	lis     r9,385
 1807310:	c9 69 9f d0 	lfd     f11,-24624(r9)
 1807314:	fc 00 58 28 	fsub    f0,f0,f11
 1807318:	fd a0 00 18 	frsp    f13,f0
 180731c:	fc 00 68 90 	fmr     f0,f13
 1807320:	fc 00 60 00 	fcmpu   cr0,f0,f12
 1807324:	41 81 ff f0 	bgt+    1807314 <course_pid_run+0x34>
 1807328:	fc 00 68 90 	fmr     f0,f13
 180732c:	3d 20 01 81 	lis     r9,385
 1807330:	c9 89 9f d8 	lfd     f12,-24616(r9)
 1807334:	fc 00 60 00 	fcmpu   cr0,f0,f12
 1807338:	40 80 00 20 	bge-    1807358 <course_pid_run+0x78>
 180733c:	3d 20 01 81 	lis     r9,385
 1807340:	c9 69 9f d0 	lfd     f11,-24624(r9)
 1807344:	fc 00 58 2a 	fadd    f0,f0,f11
 1807348:	fd a0 00 18 	frsp    f13,f0
 180734c:	fc 00 68 90 	fmr     f0,f13
 1807350:	fc 00 60 00 	fcmpu   cr0,f0,f12
 1807354:	41 80 ff f0 	blt+    1807344 <course_pid_run+0x64>
 1807358:	3d 20 01 82 	lis     r9,386
 180735c:	c0 09 a3 90 	lfs     f0,-23664(r9)
 1807360:	3d 60 01 82 	lis     r11,386
 1807364:	c1 8b a3 98 	lfs     f12,-23656(r11)
 1807368:	ec 00 03 72 	fmuls   f0,f0,f13
 180736c:	3d 20 01 82 	lis     r9,386
 1807370:	fc 00 60 00 	fcmpu   cr0,f0,f12
 1807374:	d0 09 a4 84 	stfs    f0,-23420(r9)
 1807378:	40 81 00 0c 	ble-    1807384 <course_pid_run+0xa4>
 180737c:	d1 8a a4 84 	stfs    f12,-23420(r10)
 1807380:	4e 80 00 20 	blr
 1807384:	fd a0 60 50 	fneg    f13,f12
 1807388:	fc 00 68 00 	fcmpu   cr0,f0,f13
 180738c:	4c 80 00 20 	bgelr   
 1807390:	d1 aa a4 84 	stfs    f13,-23420(r10)
 1807394:	4e 80 00 20 	blr

01807398 <climb_pid_run>:
 1807398:	94 21 ff f0 	stwu    r1,-16(r1)
 180739c:	3d 20 01 82 	lis     r9,386
 18073a0:	88 09 a3 4a 	lbz     r0,-23734(r9)
 18073a4:	3d 60 01 82 	lis     r11,386
 18073a8:	3d 20 01 82 	lis     r9,386
 18073ac:	c1 a9 a3 a4 	lfs     f13,-23644(r9)
 18073b0:	c0 0b a4 b0 	lfs     f0,-23376(r11)
 18073b4:	2c 00 00 00 	cmpwi   r0,0
 18073b8:	ed 40 68 28 	fsubs   f10,f0,f13
 18073bc:	41 82 00 a8 	beq-    1807464 <climb_pid_run+0xcc>
 18073c0:	3d 20 01 82 	lis     r9,386
 18073c4:	3d 40 01 82 	lis     r10,386
 18073c8:	c0 09 a3 b8 	lfs     f0,-23624(r9)
 18073cc:	c1 6a a3 bc 	lfs     f11,-23620(r10)
 18073d0:	3d 60 01 82 	lis     r11,386
 18073d4:	c1 ab a3 b4 	lfs     f13,-23628(r11)
 18073d8:	ec 00 52 fa 	fmadds  f0,f0,f11,f10
 18073dc:	3d 20 01 82 	lis     r9,386
 18073e0:	c1 89 a3 c0 	lfs     f12,-23616(r9)
 18073e4:	3d 60 01 82 	lis     r11,386
 18073e8:	a0 0b a4 80 	lhz     r0,-23424(r11)
 18073ec:	ed ad 00 32 	fmuls   f13,f13,f0
 18073f0:	3d 20 01 82 	lis     r9,386
 18073f4:	3d 60 01 82 	lis     r11,386
 18073f8:	b0 09 a4 44 	sth     r0,-23484(r9)
 18073fc:	fc 0d 60 00 	fcmpu   cr0,f13,f12
 1807400:	d1 ab a3 78 	stfs    f13,-23688(r11)
 1807404:	40 81 00 08 	ble-    180740c <climb_pid_run+0x74>
 1807408:	d1 8b a3 78 	stfs    f12,-23688(r11)
 180740c:	3d 20 01 82 	lis     r9,386
 1807410:	c1 a9 a3 c4 	lfs     f13,-23612(r9)
 1807414:	c0 0b a3 78 	lfs     f0,-23688(r11)
 1807418:	fc 00 68 00 	fcmpu   cr0,f0,f13
 180741c:	40 80 00 08 	bge-    1807424 <climb_pid_run+0x8c>
 1807420:	d1 ab a3 78 	stfs    f13,-23688(r11)
 1807424:	3d 20 01 81 	lis     r9,385
 1807428:	ec 0b 50 2a 	fadds   f0,f11,f10
 180742c:	39 29 9f f8 	addi    r9,r9,-24584
 1807430:	c1 a9 00 00 	lfs     f13,0(r9)
 1807434:	d0 0a a3 bc 	stfs    f0,-23620(r10)
 1807438:	fc 00 68 00 	fcmpu   cr0,f0,f13
 180743c:	40 81 00 08 	ble-    1807444 <climb_pid_run+0xac>
 1807440:	d1 aa a3 bc 	stfs    f13,-23620(r10)
 1807444:	3d 20 01 81 	lis     r9,385
 1807448:	39 29 9f fc 	addi    r9,r9,-24580
 180744c:	c0 0a a3 bc 	lfs     f0,-23620(r10)
 1807450:	c1 a9 00 00 	lfs     f13,0(r9)
 1807454:	fc 00 68 00 	fcmpu   cr0,f0,f13
 1807458:	40 80 01 40 	bge-    1807598 <climb_pid_run+0x200>
 180745c:	d1 aa a3 bc 	stfs    f13,-23620(r10)
 1807460:	48 00 01 38 	b       1807598 <climb_pid_run+0x200>
 1807464:	3d 20 01 81 	lis     r9,385
 1807468:	39 29 a0 00 	addi    r9,r9,-24576
 180746c:	c0 09 00 00 	lfs     f0,0(r9)
 1807470:	3d 20 01 82 	lis     r9,386
 1807474:	38 e9 a3 8c 	addi    r7,r9,-23668
 1807478:	fc 0d 00 00 	fcmpu   cr0,f13,f0
 180747c:	40 81 00 14 	ble-    1807490 <climb_pid_run+0xf8>
 1807480:	3d 20 01 82 	lis     r9,386
 1807484:	c0 09 a3 88 	lfs     f0,-23672(r9)
 1807488:	ed 0d 00 32 	fmuls   f8,f13,f0
 180748c:	48 00 00 10 	b       180749c <climb_pid_run+0x104>
 1807490:	3d 20 01 81 	lis     r9,385
 1807494:	39 29 a0 00 	addi    r9,r9,-24576
 1807498:	c1 09 00 00 	lfs     f8,0(r9)
 180749c:	3d 00 01 82 	lis     r8,386
 18074a0:	3d 20 01 81 	lis     r9,385
 18074a4:	c1 88 a3 b0 	lfs     f12,-23632(r8)
 18074a8:	c0 09 9f e0 	lfs     f0,-24608(r9)
 18074ac:	3d 20 01 81 	lis     r9,385
 18074b0:	c1 69 9f e4 	lfs     f11,-24604(r9)
 18074b4:	ec 0c 50 3a 	fmadds  f0,f12,f0,f10
 18074b8:	3d 60 01 81 	lis     r11,385
 18074bc:	ed 8c 50 2a 	fadds   f12,f12,f10
 18074c0:	3d 40 01 82 	lis     r10,386
 18074c4:	c1 aa a3 a4 	lfs     f13,-23644(r10)
 18074c8:	c9 4b 9f e8 	lfd     f10,-24600(r11)
 18074cc:	ec 00 02 f2 	fmuls   f0,f0,f11
 18074d0:	3d 20 01 81 	lis     r9,385
 18074d4:	c9 69 9f f0 	lfd     f11,-24592(r9)
 18074d8:	3d 20 01 81 	lis     r9,385
 18074dc:	39 29 9f f8 	addi    r9,r9,-24584
 18074e0:	c1 29 00 00 	lfs     f9,0(r9)
 18074e4:	d1 07 00 00 	stfs    f8,0(r7)
 18074e8:	d1 88 a3 b0 	stfs    f12,-23632(r8)
 18074ec:	fc 0c 48 00 	fcmpu   cr0,f12,f9
 18074f0:	fc 00 50 2a 	fadd    f0,f0,f10
 18074f4:	fd ad 02 fa 	fmadd   f13,f13,f11,f0
 18074f8:	fd a0 68 18 	frsp    f13,f13
 18074fc:	40 81 00 08 	ble-    1807504 <climb_pid_run+0x16c>
 1807500:	d1 28 a3 b0 	stfs    f9,-23632(r8)
 1807504:	3d 20 01 81 	lis     r9,385
 1807508:	39 29 9f fc 	addi    r9,r9,-24580
 180750c:	c0 08 a3 b0 	lfs     f0,-23632(r8)
 1807510:	c1 89 00 00 	lfs     f12,0(r9)
 1807514:	fc 00 60 00 	fcmpu   cr0,f0,f12
 1807518:	40 80 00 08 	bge-    1807520 <climb_pid_run+0x188>
 180751c:	d1 88 a3 b0 	stfs    f12,-23632(r8)
 1807520:	3d 20 01 81 	lis     r9,385
 1807524:	39 29 a0 04 	addi    r9,r9,-24572
 1807528:	c1 89 00 00 	lfs     f12,0(r9)
 180752c:	3d 20 01 81 	lis     r9,385
 1807530:	39 29 a0 00 	addi    r9,r9,-24576
 1807534:	ed ad 03 32 	fmuls   f13,f13,f12
 1807538:	c0 09 00 00 	lfs     f0,0(r9)
 180753c:	3d 60 01 82 	lis     r11,386
 1807540:	fc 0d 00 00 	fcmpu   cr0,f13,f0
 1807544:	40 80 00 10 	bge-    1807554 <climb_pid_run+0x1bc>
 1807548:	38 00 00 00 	li      r0,0
 180754c:	b0 0b a4 44 	sth     r0,-23484(r11)
 1807550:	48 00 00 2c 	b       180757c <climb_pid_run+0x1e4>
 1807554:	fc 0d 60 00 	fcmpu   cr0,f13,f12
 1807558:	40 81 00 10 	ble-    1807568 <climb_pid_run+0x1d0>
 180755c:	38 00 25 80 	li      r0,9600
 1807560:	b0 0b a4 44 	sth     r0,-23484(r11)
 1807564:	48 00 00 18 	b       180757c <climb_pid_run+0x1e4>
 1807568:	fc 00 68 90 	fmr     f0,f13
 180756c:	fd a0 00 1e 	fctiwz  f13,f0
 1807570:	d9 a1 00 08 	stfd    f13,8(r1)
 1807574:	81 21 00 0c 	lwz     r9,12(r1)
 1807578:	b1 2b a4 44 	sth     r9,-23484(r11)
 180757c:	3d 20 01 82 	lis     r9,386
 1807580:	3d 60 01 82 	lis     r11,386
 1807584:	c0 09 a3 d8 	lfs     f0,-23592(r9)
 1807588:	c1 ab a3 8c 	lfs     f13,-23668(r11)
 180758c:	3d 20 01 82 	lis     r9,386
 1807590:	ec 00 68 2a 	fadds   f0,f0,f13
 1807594:	d0 09 a3 78 	stfs    f0,-23688(r9)
 1807598:	38 21 00 10 	addi    r1,r1,16
 180759c:	4e 80 00 20 	blr

018075a0 <altitude_pid_run>:
 18075a0:	3d 20 01 82 	lis     r9,386
 18075a4:	3d 60 01 82 	lis     r11,386
 18075a8:	c0 09 a4 c0 	lfs     f0,-23360(r9)
 18075ac:	c1 ab a3 d4 	lfs     f13,-23596(r11)
 18075b0:	3d 20 01 82 	lis     r9,386
 18075b4:	3d 40 01 82 	lis     r10,386
 18075b8:	ec 00 68 28 	fsubs   f0,f0,f13
 18075bc:	c1 8a a3 a8 	lfs     f12,-23640(r10)
 18075c0:	c1 a9 a3 c8 	lfs     f13,-23608(r9)
 18075c4:	3d 20 01 81 	lis     r9,385
 18075c8:	39 29 a0 08 	addi    r9,r9,-24568
 18075cc:	ed ad 60 3a 	fmadds  f13,f13,f0,f12
 18075d0:	c9 69 00 00 	lfd     f11,0(r9)
 18075d4:	3d 20 01 82 	lis     r9,386
 18075d8:	fc 00 68 90 	fmr     f0,f13
 18075dc:	d1 a9 a3 a4 	stfs    f13,-23644(r9)
 18075e0:	fc 00 58 00 	fcmpu   cr0,f0,f11
 18075e4:	40 80 00 0c 	bge-    18075f0 <altitude_pid_run+0x50>
 18075e8:	3c 00 bf 80 	lis     r0,-16512
 18075ec:	90 09 a3 a4 	stw     r0,-23644(r9)
 18075f0:	c0 09 a3 a4 	lfs     f0,-23644(r9)
 18075f4:	3d 60 01 81 	lis     r11,385
 18075f8:	39 6b a0 10 	addi    r11,r11,-24560
 18075fc:	c9 ab 00 00 	lfd     f13,0(r11)
 1807600:	fc 00 68 00 	fcmpu   cr0,f0,f13
 1807604:	4c 81 00 20 	blelr   
 1807608:	3c 00 3f 80 	lis     r0,16256
 180760c:	90 09 a3 a4 	stw     r0,-23644(r9)
 1807610:	4e 80 00 20 	blr

01807614 <approaching>:
 1807614:	3d 20 01 82 	lis     r9,386
 1807618:	3d 60 01 82 	lis     r11,386
 180761c:	54 60 08 3c 	rlwinm  r0,r3,1,0,30
 1807620:	39 6b a2 e0 	addi    r11,r11,-23840
 1807624:	c0 09 a4 d4 	lfs     f0,-23340(r9)
 1807628:	7c 00 1a 14 	add     r0,r0,r3
 180762c:	39 2b 00 04 	addi    r9,r11,4
 1807630:	54 00 10 3a 	rlwinm  r0,r0,2,0,29
 1807634:	7d 09 04 2e 	lfsx    f8,r9,r0
 1807638:	3d 20 01 82 	lis     r9,386
 180763c:	c1 89 a4 f8 	lfs     f12,-23304(r9)
 1807640:	3d 20 01 81 	lis     r9,385
 1807644:	39 29 a0 18 	addi    r9,r9,-24552
 1807648:	c9 a9 00 00 	lfd     f13,0(r9)
 180764c:	ed 28 60 28 	fsubs   f9,f8,f12
 1807650:	3d 20 01 82 	lis     r9,386
 1807654:	7c eb 04 2e 	lfsx    f7,r11,r0
 1807658:	fc 00 03 72 	fmul    f0,f0,f13
 180765c:	c1 89 a4 e4 	lfs     f12,-23324(r9)
 1807660:	3d 20 01 81 	lis     r9,385
 1807664:	39 29 a0 20 	addi    r9,r9,-24544
 1807668:	ed a9 02 72 	fmuls   f13,f9,f9
 180766c:	ed 47 60 28 	fsubs   f10,f7,f12
 1807670:	c1 69 00 00 	lfs     f11,0(r9)
 1807674:	3d 20 01 82 	lis     r9,386
 1807678:	fc 00 00 18 	frsp    f0,f0
 180767c:	3d 60 01 82 	lis     r11,386
 1807680:	ed 8a 6a ba 	fmadds  f12,f10,f10,f13
 1807684:	fc 00 58 00 	fcmpu   cr0,f0,f11
 1807688:	fd a0 00 90 	fmr     f13,f0
 180768c:	d1 89 a4 70 	stfs    f12,-23440(r9)
 1807690:	d0 0b a4 64 	stfs    f0,-23452(r11)
 1807694:	40 80 00 10 	bge-    18076a4 <approaching+0x90>
 1807698:	3d 20 01 81 	lis     r9,385
 180769c:	39 29 a0 20 	addi    r9,r9,-24544
 18076a0:	c1 a9 00 00 	lfs     f13,0(r9)
 18076a4:	ec 0d 03 72 	fmuls   f0,f13,f13
 18076a8:	d1 ab a4 64 	stfs    f13,-23452(r11)
 18076ac:	fc 0c 00 00 	fcmpu   cr0,f12,f0
 18076b0:	41 80 00 40 	blt-    18076f0 <approaching+0xdc>
 18076b4:	3d 20 01 82 	lis     r9,386
 18076b8:	c1 a9 a4 58 	lfs     f13,-23464(r9)
 18076bc:	3d 60 01 82 	lis     r11,386
 18076c0:	c0 0b a4 54 	lfs     f0,-23468(r11)
 18076c4:	ed a8 68 28 	fsubs   f13,f8,f13
 18076c8:	3d 20 01 81 	lis     r9,385
 18076cc:	39 29 a0 24 	addi    r9,r9,-24540
 18076d0:	ec 07 00 28 	fsubs   f0,f7,f0
 18076d4:	c1 89 00 00 	lfs     f12,0(r9)
 18076d8:	ed ad 02 72 	fmuls   f13,f13,f9
 18076dc:	ec 00 6a ba 	fmadds  f0,f0,f10,f13
 18076e0:	ff 80 60 00 	fcmpu   cr7,f0,f12
 18076e4:	7c 60 00 26 	mfcr    r3
 18076e8:	54 63 ef fe 	rlwinm  r3,r3,29,31,31
 18076ec:	4e 80 00 20 	blr
 18076f0:	38 60 00 01 	li      r3,1
 18076f4:	4e 80 00 20 	blr

018076f8 <fly_to>:
 18076f8:	94 21 ff e0 	stwu    r1,-32(r1)
 18076fc:	7c 08 02 a6 	mflr    r0
 1807700:	93 a1 00 14 	stw     r29,20(r1)
 1807704:	93 c1 00 18 	stw     r30,24(r1)
 1807708:	93 e1 00 1c 	stw     r31,28(r1)
 180770c:	90 01 00 24 	stw     r0,36(r1)
 1807710:	54 60 08 3c 	rlwinm  r0,r3,1,0,30
 1807714:	3d 20 01 82 	lis     r9,386
 1807718:	39 29 a2 e0 	addi    r9,r9,-23840
 180771c:	7c 00 1a 14 	add     r0,r0,r3
 1807720:	39 69 00 04 	addi    r11,r9,4
 1807724:	54 00 10 3a 	rlwinm  r0,r0,2,0,29
 1807728:	3d 40 01 82 	lis     r10,386
 180772c:	3d 00 01 82 	lis     r8,386
 1807730:	7c 09 04 2e 	lfsx    f0,r9,r0
 1807734:	7d ab 04 2e 	lfsx    f13,r11,r0
 1807738:	c0 2a a4 f8 	lfs     f1,-23304(r10)
 180773c:	c0 48 a4 e4 	lfs     f2,-23324(r8)
 1807740:	3d 20 01 82 	lis     r9,386
 1807744:	ec 2d 08 28 	fsubs   f1,f13,f1
 1807748:	3d 60 01 82 	lis     r11,386
 180774c:	ec 40 10 28 	fsubs   f2,f0,f2
 1807750:	3f a0 01 82 	lis     r29,386
 1807754:	d0 0b a4 74 	stfs    f0,-23436(r11)
 1807758:	d1 a9 a4 7c 	stfs    f13,-23428(r9)
 180775c:	48 00 25 01 	bl      1809c5c <pp_atan2>
 1807760:	3d 20 01 81 	lis     r9,385
 1807764:	c8 09 a0 28 	lfd     f0,-24536(r9)
 1807768:	fc 00 08 28 	fsub    f0,f0,f1
 180776c:	fc 00 00 18 	frsp    f0,f0
 1807770:	d0 1d a3 94 	stfs    f0,-23660(r29)
 1807774:	80 01 00 24 	lwz     r0,36(r1)
 1807778:	7c 08 03 a6 	mtlr    r0
 180777c:	83 a1 00 14 	lwz     r29,20(r1)
 1807780:	83 c1 00 18 	lwz     r30,24(r1)
 1807784:	83 e1 00 1c 	lwz     r31,28(r1)
 1807788:	38 21 00 20 	addi    r1,r1,32
 180778c:	4e 80 00 20 	blr

01807790 <route_to>:
 1807790:	94 21 ff b0 	stwu    r1,-80(r1)
 1807794:	7c 08 02 a6 	mflr    r0
 1807798:	db 61 00 28 	stfd    f27,40(r1)
 180779c:	db 81 00 30 	stfd    f28,48(r1)
 18077a0:	db a1 00 38 	stfd    f29,56(r1)
 18077a4:	db c1 00 40 	stfd    f30,64(r1)
 18077a8:	db e1 00 48 	stfd    f31,72(r1)
 18077ac:	93 a1 00 1c 	stw     r29,28(r1)
 18077b0:	93 c1 00 20 	stw     r30,32(r1)
 18077b4:	93 e1 00 24 	stw     r31,36(r1)
 18077b8:	90 01 00 54 	stw     r0,84(r1)
 18077bc:	3d 00 01 82 	lis     r8,386
 18077c0:	54 60 08 3c 	rlwinm  r0,r3,1,0,30
 18077c4:	54 8a 08 3c 	rlwinm  r10,r4,1,0,30
 18077c8:	39 08 a2 e0 	addi    r8,r8,-23840
 18077cc:	7c 00 1a 14 	add     r0,r0,r3
 18077d0:	7d 4a 22 14 	add     r10,r10,r4
 18077d4:	54 00 10 3a 	rlwinm  r0,r0,2,0,29
 18077d8:	39 28 00 04 	addi    r9,r8,4
 18077dc:	55 4a 10 3a 	rlwinm  r10,r10,2,0,29
 18077e0:	7f a9 04 2e 	lfsx    f29,r9,r0
 18077e4:	7c 09 54 2e 	lfsx    f0,r9,r10
 18077e8:	3d 60 01 82 	lis     r11,386
 18077ec:	c1 8b a4 f8 	lfs     f12,-23304(r11)
 18077f0:	ef c0 e8 28 	fsubs   f30,f0,f29
 18077f4:	7f 88 04 2e 	lfsx    f28,r8,r0
 18077f8:	7c 08 54 2e 	lfsx    f0,r8,r10
 18077fc:	3d 20 01 82 	lis     r9,386
 1807800:	ed 8c e8 28 	fsubs   f12,f12,f29
 1807804:	c1 a9 a4 e4 	lfs     f13,-23324(r9)
 1807808:	ef e0 e0 28 	fsubs   f31,f0,f28
 180780c:	3d 20 01 81 	lis     r9,385
 1807810:	ec 1e 07 b2 	fmuls   f0,f30,f30
 1807814:	39 29 a0 38 	addi    r9,r9,-24520
 1807818:	ed ad e0 28 	fsubs   f13,f13,f28
 180781c:	cb 69 00 00 	lfd     f27,0(r9)
 1807820:	ed 8c 07 b2 	fmuls   f12,f12,f30
 1807824:	3d 20 01 82 	lis     r9,386
 1807828:	3b c9 a4 68 	addi    r30,r9,-23448
 180782c:	ec 3f 07 fa 	fmadds  f1,f31,f31,f0
 1807830:	3f e0 01 82 	lis     r31,386
 1807834:	38 00 00 00 	li      r0,0
 1807838:	ed ad 67 fa 	fmadds  f13,f13,f31,f12
 180783c:	ed ad 08 24 	fdivs   f13,f13,f1
 1807840:	fc 00 68 90 	fmr     f0,f13
 1807844:	d1 a9 a4 68 	stfs    f13,-23448(r9)
 1807848:	fc 00 d8 00 	fcmpu   cr0,f0,f27
 180784c:	4c 62 0b 82 	cror    so,eq,gt
 1807850:	40 83 00 0c 	bns-    180785c <route_to+0xcc>
 1807854:	d1 a1 00 08 	stfs    f13,8(r1)
 1807858:	80 01 00 08 	lwz     r0,8(r1)
 180785c:	90 1f a4 68 	stw     r0,-23448(r31)
 1807860:	3f a0 01 82 	lis     r29,386
 1807864:	48 00 25 6d 	bl      1809dd0 <pp_sqrt>
 1807868:	fc 20 08 18 	frsp    f1,f1
 180786c:	3d 20 01 82 	lis     r9,386
 1807870:	c0 09 a4 64 	lfs     f0,-23452(r9)
 1807874:	3d 20 01 81 	lis     r9,385
 1807878:	39 29 a0 38 	addi    r9,r9,-24520
 180787c:	ec 00 08 24 	fdivs   f0,f0,f1
 1807880:	c9 a9 00 00 	lfd     f13,0(r9)
 1807884:	c1 9f a4 68 	lfs     f12,-23448(r31)
 1807888:	7f cb f3 78 	mr      r11,r30
 180788c:	fd 60 00 90 	fmr     f11,f0
 1807890:	d0 3d a4 6c 	stfs    f1,-23444(r29)
 1807894:	fc 00 60 90 	fmr     f0,f12
 1807898:	fc 0b 68 00 	fcmpu   cr0,f11,f13
 180789c:	4c 62 0b 82 	cror    so,eq,gt
 18078a0:	40 83 00 0c 	bns-    18078ac <route_to+0x11c>
 18078a4:	fc 00 58 2a 	fadd    f0,f0,f11
 18078a8:	48 00 00 08 	b       18078b0 <route_to+0x120>
 18078ac:	fc 00 d8 2a 	fadd    f0,f0,f27
 18078b0:	fc 00 00 18 	frsp    f0,f0
 18078b4:	3d 40 01 82 	lis     r10,386
 18078b8:	3d 20 01 81 	lis     r9,385
 18078bc:	39 29 a0 40 	addi    r9,r9,-24512
 18078c0:	c9 89 00 00 	lfd     f12,0(r9)
 18078c4:	d0 0b 00 00 	stfs    f0,0(r11)
 18078c8:	c1 aa a4 68 	lfs     f13,-23448(r10)
 18078cc:	fc 00 68 90 	fmr     f0,f13
 18078d0:	fd 60 68 90 	fmr     f11,f13
 18078d4:	fc 00 60 00 	fcmpu   cr0,f0,f12
 18078d8:	4c 62 0b 82 	cror    so,eq,gt
 18078dc:	40 83 00 10 	bns-    18078ec <route_to+0x15c>
 18078e0:	3d 20 01 81 	lis     r9,385
 18078e4:	39 29 a0 48 	addi    r9,r9,-24504
 18078e8:	c1 69 00 00 	lfs     f11,0(r9)
 18078ec:	ec 0b e7 fa 	fmadds  f0,f11,f31,f28
 18078f0:	3d 60 01 82 	lis     r11,386
 18078f4:	ed ab ef ba 	fmadds  f13,f11,f30,f29
 18078f8:	3d 20 01 82 	lis     r9,386
 18078fc:	c0 2b a4 f8 	lfs     f1,-23304(r11)
 1807900:	c0 49 a4 e4 	lfs     f2,-23324(r9)
 1807904:	3d 20 01 82 	lis     r9,386
 1807908:	ec 2d 08 28 	fsubs   f1,f13,f1
 180790c:	3d 60 01 82 	lis     r11,386
 1807910:	ec 40 10 28 	fsubs   f2,f0,f2
 1807914:	3f a0 01 82 	lis     r29,386
 1807918:	d0 09 a4 74 	stfs    f0,-23436(r9)
 180791c:	d1 6a a4 68 	stfs    f11,-23448(r10)
 1807920:	d1 ab a4 7c 	stfs    f13,-23428(r11)
 1807924:	48 00 23 39 	bl      1809c5c <pp_atan2>
 1807928:	3d 20 01 81 	lis     r9,385
 180792c:	c8 09 a0 30 	lfd     f0,-24528(r9)
 1807930:	fc 00 08 28 	fsub    f0,f0,f1
 1807934:	fc 00 00 18 	frsp    f0,f0
 1807938:	d0 1d a3 94 	stfs    f0,-23660(r29)
 180793c:	80 01 00 54 	lwz     r0,84(r1)
 1807940:	7c 08 03 a6 	mtlr    r0
 1807944:	83 a1 00 1c 	lwz     r29,28(r1)
 1807948:	83 c1 00 20 	lwz     r30,32(r1)
 180794c:	83 e1 00 24 	lwz     r31,36(r1)
 1807950:	cb 61 00 28 	lfd     f27,40(r1)
 1807954:	cb 81 00 30 	lfd     f28,48(r1)
 1807958:	cb a1 00 38 	lfd     f29,56(r1)
 180795c:	cb c1 00 40 	lfd     f30,64(r1)
 1807960:	cb e1 00 48 	lfd     f31,72(r1)
 1807964:	38 21 00 50 	addi    r1,r1,80
 1807968:	4e 80 00 20 	blr

0180796c <nav_home>:
 180796c:	94 21 ff b0 	stwu    r1,-80(r1)
 1807970:	7c 08 02 a6 	mflr    r0
 1807974:	db 81 00 30 	stfd    f28,48(r1)
 1807978:	db a1 00 38 	stfd    f29,56(r1)
 180797c:	db c1 00 40 	stfd    f30,64(r1)
 1807980:	db e1 00 48 	stfd    f31,72(r1)
 1807984:	93 21 00 14 	stw     r25,20(r1)
 1807988:	93 41 00 18 	stw     r26,24(r1)
 180798c:	93 61 00 1c 	stw     r27,28(r1)
 1807990:	93 81 00 20 	stw     r28,32(r1)
 1807994:	93 a1 00 24 	stw     r29,36(r1)
 1807998:	93 c1 00 28 	stw     r30,40(r1)
 180799c:	93 e1 00 2c 	stw     r31,44(r1)
 18079a0:	90 01 00 54 	stw     r0,84(r1)
 18079a4:	3f a0 01 82 	lis     r29,386
 18079a8:	3f 60 01 82 	lis     r27,386
 18079ac:	3b 9d a2 e0 	addi    r28,r29,-23840
 18079b0:	3f 40 01 82 	lis     r26,386
 18079b4:	c0 1c 00 04 	lfs     f0,4(r28)
 18079b8:	c1 bd a2 e0 	lfs     f13,-23840(r29)
 18079bc:	c0 3b a4 f8 	lfs     f1,-23304(r27)
 18079c0:	c0 5a a4 e4 	lfs     f2,-23324(r26)
 18079c4:	3d 20 01 81 	lis     r9,385
 18079c8:	ec 21 00 28 	fsubs   f1,f1,f0
 18079cc:	39 29 a0 70 	addi    r9,r9,-24464
 18079d0:	ec 42 68 28 	fsubs   f2,f2,f13
 18079d4:	cb 89 00 00 	lfd     f28,0(r9)
 18079d8:	3f 20 01 82 	lis     r25,386
 18079dc:	48 00 22 81 	bl      1809c5c <pp_atan2>
 18079e0:	3d 20 01 82 	lis     r9,386
 18079e4:	fc 20 08 18 	frsp    f1,f1
 18079e8:	c0 09 a4 d4 	lfs     f0,-23340(r9)
 18079ec:	3d 20 01 81 	lis     r9,385
 18079f0:	39 29 a0 78 	addi    r9,r9,-24456
 18079f4:	c1 89 00 00 	lfs     f12,0(r9)
 18079f8:	3d 20 01 81 	lis     r9,385
 18079fc:	39 29 a0 80 	addi    r9,r9,-24448
 1807a00:	ec 00 03 32 	fmuls   f0,f0,f12
 1807a04:	c9 a9 00 00 	lfd     f13,0(r9)
 1807a08:	3d 20 01 81 	lis     r9,385
 1807a0c:	cb a9 a0 50 	lfd     f29,-24496(r9)
 1807a10:	fd ad 00 24 	fdiv    f13,f13,f0
 1807a14:	fc 21 68 2a 	fadd    f1,f1,f13
 1807a18:	fc 20 08 18 	frsp    f1,f1
 1807a1c:	ff c0 08 90 	fmr     f30,f1
 1807a20:	fc 3e e8 2a 	fadd    f1,f30,f29
 1807a24:	48 00 22 e5 	bl      1809d08 <pp_sin>
 1807a28:	c0 1d a2 e0 	lfs     f0,-23840(r29)
 1807a2c:	ff e1 07 3a 	fmadd   f31,f1,f28,f0
 1807a30:	fc 20 f0 90 	fmr     f1,f30
 1807a34:	ff e0 f8 18 	frsp    f31,f31
 1807a38:	48 00 22 d1 	bl      1809d08 <pp_sin>
 1807a3c:	c0 1c 00 04 	lfs     f0,4(r28)
 1807a40:	c1 bb a4 f8 	lfs     f13,-23304(r27)
 1807a44:	c0 5a a4 e4 	lfs     f2,-23324(r26)
 1807a48:	3d 60 01 82 	lis     r11,386
 1807a4c:	3d 20 01 82 	lis     r9,386
 1807a50:	ec 5f 10 28 	fsubs   f2,f31,f2
 1807a54:	d3 e9 a4 74 	stfs    f31,-23436(r9)
 1807a58:	fc 21 07 3a 	fmadd   f1,f1,f28,f0
 1807a5c:	fc 20 08 18 	frsp    f1,f1
 1807a60:	ed a1 68 28 	fsubs   f13,f1,f13
 1807a64:	d0 2b a4 7c 	stfs    f1,-23428(r11)
 1807a68:	fc 20 68 90 	fmr     f1,f13
 1807a6c:	48 00 21 f1 	bl      1809c5c <pp_atan2>
 1807a70:	ff dd f0 28 	fsub    f30,f29,f30
 1807a74:	3d 20 01 81 	lis     r9,385
 1807a78:	c8 09 a0 58 	lfd     f0,-24488(r9)
 1807a7c:	ff bd 08 28 	fsub    f29,f29,f1
 1807a80:	3d 20 01 81 	lis     r9,385
 1807a84:	c9 a9 a0 60 	lfd     f13,-24480(r9)
 1807a88:	ff de 00 24 	fdiv    f30,f30,f0
 1807a8c:	3d 20 01 81 	lis     r9,385
 1807a90:	39 29 a0 88 	addi    r9,r9,-24440
 1807a94:	c1 89 00 00 	lfs     f12,0(r9)
 1807a98:	3d 20 01 82 	lis     r9,386
 1807a9c:	ff de 03 72 	fmul    f30,f30,f13
 1807aa0:	ff a0 e8 18 	frsp    f29,f29
 1807aa4:	ff c0 f0 18 	frsp    f30,f30
 1807aa8:	d3 b9 a3 94 	stfs    f29,-23660(r25)
 1807aac:	fc 1e 60 00 	fcmpu   cr0,f30,f12
 1807ab0:	d3 c9 a4 60 	stfs    f30,-23456(r9)
 1807ab4:	40 80 00 30 	bge-    1807ae4 <nav_home+0x178>
 1807ab8:	3d 20 01 81 	lis     r9,385
 1807abc:	39 29 a0 8c 	addi    r9,r9,-24436
 1807ac0:	c1 a9 00 00 	lfs     f13,0(r9)
 1807ac4:	3d 20 01 81 	lis     r9,385
 1807ac8:	39 29 a0 88 	addi    r9,r9,-24440
 1807acc:	c0 09 00 00 	lfs     f0,0(r9)
 1807ad0:	ef de 68 2a 	fadds   f30,f30,f13
 1807ad4:	fc 1e 00 00 	fcmpu   cr0,f30,f0
 1807ad8:	41 80 ff f8 	blt+    1807ad0 <nav_home+0x164>
 1807adc:	3d 20 01 82 	lis     r9,386
 1807ae0:	d3 c9 a4 60 	stfs    f30,-23456(r9)
 1807ae4:	3d 20 01 82 	lis     r9,386
 1807ae8:	c1 a9 a4 60 	lfs     f13,-23456(r9)
 1807aec:	3d 20 01 81 	lis     r9,385
 1807af0:	39 29 a0 8c 	addi    r9,r9,-24436
 1807af4:	c0 09 00 00 	lfs     f0,0(r9)
 1807af8:	fc 0d 00 00 	fcmpu   cr0,f13,f0
 1807afc:	4c 62 0b 82 	cror    so,eq,gt
 1807b00:	40 83 00 2c 	bns-    1807b2c <nav_home+0x1c0>
 1807b04:	3d 20 01 81 	lis     r9,385
 1807b08:	fc 00 68 90 	fmr     f0,f13
 1807b0c:	39 29 a0 8c 	addi    r9,r9,-24436
 1807b10:	c1 a9 00 00 	lfs     f13,0(r9)
 1807b14:	ec 00 68 28 	fsubs   f0,f0,f13
 1807b18:	fc 00 68 00 	fcmpu   cr0,f0,f13
 1807b1c:	4c 62 0b 82 	cror    so,eq,gt
 1807b20:	41 83 ff f4 	bso+    1807b14 <nav_home+0x1a8>
 1807b24:	3d 20 01 82 	lis     r9,386
 1807b28:	d0 09 a4 60 	stfs    f0,-23456(r9)
 1807b2c:	3d 00 01 82 	lis     r8,386
 1807b30:	39 28 a2 e0 	addi    r9,r8,-23840
 1807b34:	3d 60 01 82 	lis     r11,386
 1807b38:	c1 a9 00 04 	lfs     f13,4(r9)
 1807b3c:	c1 8b a4 f8 	lfs     f12,-23304(r11)
 1807b40:	3d 40 01 82 	lis     r10,386
 1807b44:	c0 08 a2 e0 	lfs     f0,-23840(r8)
 1807b48:	ed ad 60 28 	fsubs   f13,f13,f12
 1807b4c:	3d 20 01 81 	lis     r9,385
 1807b50:	c1 8a a4 e4 	lfs     f12,-23324(r10)
 1807b54:	c9 69 a0 68 	lfd     f11,-24472(r9)
 1807b58:	3c 00 43 2f 	lis     r0,17199
 1807b5c:	ed ad 03 72 	fmuls   f13,f13,f13
 1807b60:	3d 60 01 82 	lis     r11,386
 1807b64:	ec 00 60 28 	fsubs   f0,f0,f12
 1807b68:	90 0b a3 d4 	stw     r0,-23596(r11)
 1807b6c:	3c 80 01 82 	lis     r4,386
 1807b70:	38 e0 00 00 	li      r7,0
 1807b74:	3c c0 01 82 	lis     r6,386
 1807b78:	ec 00 68 3a 	fmadds  f0,f0,f0,f13
 1807b7c:	39 40 00 03 	li      r10,3
 1807b80:	3d 00 01 82 	lis     r8,386
 1807b84:	3c a0 01 82 	lis     r5,386
 1807b88:	3d 20 01 82 	lis     r9,386
 1807b8c:	fd a0 00 90 	fmr     f13,f0
 1807b90:	90 e4 a3 d8 	stw     r7,-23592(r4)
 1807b94:	99 46 a3 47 	stb     r10,-23737(r6)
 1807b98:	d0 09 a4 70 	stfs    f0,-23440(r9)
 1807b9c:	d0 08 a4 90 	stfs    f0,-23408(r8)
 1807ba0:	ff 8d 58 00 	fcmpu   cr7,f13,f11
 1807ba4:	7c 00 00 26 	mfcr    r0
 1807ba8:	54 00 f7 fe 	rlwinm  r0,r0,30,31,31
 1807bac:	98 05 a4 89 	stb     r0,-23415(r5)
 1807bb0:	80 01 00 54 	lwz     r0,84(r1)
 1807bb4:	7c 08 03 a6 	mtlr    r0
 1807bb8:	83 21 00 14 	lwz     r25,20(r1)
 1807bbc:	83 41 00 18 	lwz     r26,24(r1)
 1807bc0:	83 61 00 1c 	lwz     r27,28(r1)
 1807bc4:	83 81 00 20 	lwz     r28,32(r1)
 1807bc8:	83 a1 00 24 	lwz     r29,36(r1)
 1807bcc:	83 c1 00 28 	lwz     r30,40(r1)
 1807bd0:	83 e1 00 2c 	lwz     r31,44(r1)
 1807bd4:	cb 81 00 30 	lfd     f28,48(r1)
 1807bd8:	cb a1 00 38 	lfd     f29,56(r1)
 1807bdc:	cb c1 00 40 	lfd     f30,64(r1)
 1807be0:	cb e1 00 48 	lfd     f31,72(r1)
 1807be4:	38 21 00 50 	addi    r1,r1,80
 1807be8:	4e 80 00 20 	blr

01807bec <nav_update>:
 1807bec:	94 21 ff 90 	stwu    r1,-112(r1)
 1807bf0:	7c 08 02 a6 	mflr    r0
 1807bf4:	db 61 00 48 	stfd    f27,72(r1)
 1807bf8:	db 81 00 50 	stfd    f28,80(r1)
 1807bfc:	db a1 00 58 	stfd    f29,88(r1)
 1807c00:	db c1 00 60 	stfd    f30,96(r1)
 1807c04:	db e1 00 68 	stfd    f31,104(r1)
 1807c08:	93 21 00 2c 	stw     r25,44(r1)
 1807c0c:	93 41 00 30 	stw     r26,48(r1)
 1807c10:	93 61 00 34 	stw     r27,52(r1)
 1807c14:	93 81 00 38 	stw     r28,56(r1)
 1807c18:	93 a1 00 3c 	stw     r29,60(r1)
 1807c1c:	93 c1 00 40 	stw     r30,64(r1)
 1807c20:	93 e1 00 44 	stw     r31,68(r1)
 1807c24:	90 01 00 74 	stw     r0,116(r1)
 1807c28:	3f a0 01 82 	lis     r29,386
 1807c2c:	3d 20 01 82 	lis     r9,386
 1807c30:	3b dd a2 e0 	addi    r30,r29,-23840
 1807c34:	c0 3e 00 04 	lfs     f1,4(r30)
 1807c38:	c1 49 a4 f8 	lfs     f10,-23304(r9)
 1807c3c:	3d 60 01 82 	lis     r11,386
 1807c40:	c1 6b a4 e4 	lfs     f11,-23324(r11)
 1807c44:	ec 01 50 28 	fsubs   f0,f1,f10
 1807c48:	c0 5d a2 e0 	lfs     f2,-23840(r29)
 1807c4c:	3d 20 01 81 	lis     r9,385
 1807c50:	c9 89 a0 90 	lfd     f12,-24432(r9)
 1807c54:	ed a2 58 28 	fsubs   f13,f2,f11
 1807c58:	3d 80 01 82 	lis     r12,386
 1807c5c:	ec 00 00 32 	fmuls   f0,f0,f0
 1807c60:	88 ec a4 88 	lbz     r7,-23416(r12)
 1807c64:	3d 20 01 82 	lis     r9,386
 1807c68:	54 fc 06 3e 	clrlwi  r28,r7,24
 1807c6c:	2c 1c 00 00 	cmpwi   r28,0
 1807c70:	ed ad 03 7a 	fmadds  f13,f13,f13,f0
 1807c74:	3d 60 01 82 	lis     r11,386
 1807c78:	38 6c a4 88 	addi    r3,r12,-23416
 1807c7c:	3f 60 01 82 	lis     r27,386
 1807c80:	3f 40 01 82 	lis     r26,386
 1807c84:	fc 00 68 90 	fmr     f0,f13
 1807c88:	d1 a9 a4 90 	stfs    f13,-23408(r9)
 1807c8c:	ff 80 60 00 	fcmpu   cr7,f0,f12
 1807c90:	7c 00 00 26 	mfcr    r0
 1807c94:	54 00 f7 fe 	rlwinm  r0,r0,30,31,31
 1807c98:	98 0b a4 89 	stb     r0,-23415(r11)
 1807c9c:	40 82 01 f4 	bne-    1807e90 <nav_update+0x2a4>
 1807ca0:	3d 20 01 82 	lis     r9,386
 1807ca4:	88 09 a4 94 	lbz     r0,-23404(r9)
 1807ca8:	3f 20 01 82 	lis     r25,386
 1807cac:	2c 00 00 00 	cmpwi   r0,0
 1807cb0:	40 82 00 60 	bne-    1807d10 <nav_update+0x124>
 1807cb4:	3d 20 01 82 	lis     r9,386
 1807cb8:	a0 c9 a4 b4 	lhz     r6,-23372(r9)
 1807cbc:	3d 60 01 82 	lis     r11,386
 1807cc0:	2c 06 00 00 	cmpwi   r6,0
 1807cc4:	38 00 00 00 	li      r0,0
 1807cc8:	98 0b a4 94 	stb     r0,-23404(r11)
 1807ccc:	40 82 00 54 	bne-    1807d20 <nav_update+0x134>
 1807cd0:	3d 20 01 82 	lis     r9,386
 1807cd4:	3d 60 01 82 	lis     r11,386
 1807cd8:	c0 09 a4 e4 	lfs     f0,-23324(r9)
 1807cdc:	c1 ab a4 f8 	lfs     f13,-23304(r11)
 1807ce0:	39 20 00 01 	li      r9,1
 1807ce4:	3d 60 01 82 	lis     r11,386
 1807ce8:	3d 40 01 82 	lis     r10,386
 1807cec:	3d 00 01 82 	lis     r8,386
 1807cf0:	3c e0 01 82 	lis     r7,386
 1807cf4:	38 00 00 00 	li      r0,0
 1807cf8:	99 39 a4 94 	stb     r9,-23404(r25)
 1807cfc:	d0 0b a4 54 	stfs    f0,-23468(r11)
 1807d00:	d1 aa a4 58 	stfs    f13,-23464(r10)
 1807d04:	b0 c8 a4 96 	sth     r6,-23402(r8)
 1807d08:	90 07 a4 78 	stw     r0,-23432(r7)
 1807d0c:	48 00 12 c4 	b       1808fd0 <nav_update+0x13e4>
 1807d10:	2c 00 00 01 	cmpwi   r0,1
 1807d14:	41 82 ff a0 	beq+    1807cb4 <nav_update+0xc8>
 1807d18:	2c 00 00 02 	cmpwi   r0,2
 1807d1c:	40 82 00 9c 	bne-    1807db8 <nav_update+0x1cc>
 1807d20:	3d 20 01 82 	lis     r9,386
 1807d24:	a1 69 a4 b4 	lhz     r11,-23372(r9)
 1807d28:	3d 40 01 82 	lis     r10,386
 1807d2c:	28 0b 00 08 	cmplwi  r11,8
 1807d30:	38 00 00 02 	li      r0,2
 1807d34:	98 0a a4 94 	stb     r0,-23404(r10)
 1807d38:	40 81 00 38 	ble-    1807d70 <nav_update+0x184>
 1807d3c:	3d 20 01 82 	lis     r9,386
 1807d40:	3d 60 01 82 	lis     r11,386
 1807d44:	c0 09 a4 e4 	lfs     f0,-23324(r9)
 1807d48:	c1 ab a4 f8 	lfs     f13,-23304(r11)
 1807d4c:	39 40 00 03 	li      r10,3
 1807d50:	3d 00 01 82 	lis     r8,386
 1807d54:	3c e0 01 82 	lis     r7,386
 1807d58:	3c c0 01 82 	lis     r6,386
 1807d5c:	39 20 00 00 	li      r9,0
 1807d60:	3d 60 01 82 	lis     r11,386
 1807d64:	38 00 00 00 	li      r0,0
 1807d68:	99 59 a4 94 	stb     r10,-23404(r25)
 1807d6c:	48 00 11 ec 	b       1808f58 <nav_update+0x136c>
 1807d70:	3d 20 01 81 	lis     r9,385
 1807d74:	3d 60 01 81 	lis     r11,385
 1807d78:	c0 09 a0 98 	lfs     f0,-24424(r9)
 1807d7c:	c1 ab a0 9c 	lfs     f13,-24420(r11)
 1807d80:	3c c0 01 82 	lis     r6,386
 1807d84:	3c a0 01 82 	lis     r5,386
 1807d88:	39 40 00 00 	li      r10,0
 1807d8c:	3d 00 01 82 	lis     r8,386
 1807d90:	3c e0 01 82 	lis     r7,386
 1807d94:	39 20 00 01 	li      r9,1
 1807d98:	3d 60 01 82 	lis     r11,386
 1807d9c:	38 00 1e 00 	li      r0,7680
 1807da0:	d0 06 a3 94 	stfs    f0,-23660(r6)
 1807da4:	99 45 a3 4a 	stb     r10,-23734(r5)
 1807da8:	d1 a8 a3 d8 	stfs    f13,-23592(r8)
 1807dac:	99 27 a3 47 	stb     r9,-23737(r7)
 1807db0:	b0 0b a4 80 	sth     r0,-23424(r11)
 1807db4:	48 00 12 1c 	b       1808fd0 <nav_update+0x13e4>
 1807db8:	2c 00 00 03 	cmpwi   r0,3
 1807dbc:	40 82 00 90 	bne-    1807e4c <nav_update+0x260>
 1807dc0:	3d 20 01 82 	lis     r9,386
 1807dc4:	c0 09 a4 c0 	lfs     f0,-23360(r9)
 1807dc8:	3d 60 01 81 	lis     r11,385
 1807dcc:	c9 ab a0 a0 	lfd     f13,-24416(r11)
 1807dd0:	98 19 a4 94 	stb     r0,-23404(r25)
 1807dd4:	fc 00 68 00 	fcmpu   cr0,f0,f13
 1807dd8:	40 81 00 34 	ble-    1807e0c <nav_update+0x220>
 1807ddc:	39 20 00 04 	li      r9,4
 1807de0:	3d 60 01 82 	lis     r11,386
 1807de4:	3d 40 01 82 	lis     r10,386
 1807de8:	3d 00 01 82 	lis     r8,386
 1807dec:	3c e0 01 82 	lis     r7,386
 1807df0:	38 00 00 00 	li      r0,0
 1807df4:	99 39 a4 94 	stb     r9,-23404(r25)
 1807df8:	d1 6b a4 54 	stfs    f11,-23468(r11)
 1807dfc:	d1 4a a4 58 	stfs    f10,-23464(r10)
 1807e00:	b3 88 a4 96 	sth     r28,-23402(r8)
 1807e04:	90 07 a4 78 	stw     r0,-23432(r7)
 1807e08:	48 00 11 c8 	b       1808fd0 <nav_update+0x13e4>
 1807e0c:	3d 20 01 81 	lis     r9,385
 1807e10:	c0 09 a0 98 	lfs     f0,-24424(r9)
 1807e14:	3c e0 01 82 	lis     r7,386
 1807e18:	3c c0 01 82 	lis     r6,386
 1807e1c:	3c a0 01 82 	lis     r5,386
 1807e20:	39 40 00 00 	li      r10,0
 1807e24:	3d 00 01 82 	lis     r8,386
 1807e28:	39 20 00 02 	li      r9,2
 1807e2c:	3d 60 01 82 	lis     r11,386
 1807e30:	3c 00 41 00 	lis     r0,16640
 1807e34:	d0 07 a3 94 	stfs    f0,-23660(r7)
 1807e38:	9b 86 a3 4a 	stb     r28,-23734(r6)
 1807e3c:	91 45 a3 d8 	stw     r10,-23592(r5)
 1807e40:	99 28 a3 47 	stb     r9,-23737(r8)
 1807e44:	90 0b a3 a4 	stw     r0,-23644(r11)
 1807e48:	48 00 11 88 	b       1808fd0 <nav_update+0x13e4>
 1807e4c:	2c 00 00 04 	cmpwi   r0,4
 1807e50:	40 82 11 80 	bne-    1808fd0 <nav_update+0x13e4>
 1807e54:	38 e7 00 01 	addi    r7,r7,1
 1807e58:	3c c0 01 82 	lis     r6,386
 1807e5c:	3d 20 01 82 	lis     r9,386
 1807e60:	3d 60 01 82 	lis     r11,386
 1807e64:	3d 40 01 82 	lis     r10,386
 1807e68:	3d 00 01 82 	lis     r8,386
 1807e6c:	38 00 00 00 	li      r0,0
 1807e70:	98 ec a4 88 	stb     r7,-23416(r12)
 1807e74:	d1 69 a4 54 	stfs    f11,-23468(r9)
 1807e78:	d1 4b a4 58 	stfs    f10,-23464(r11)
 1807e7c:	b3 8a a4 96 	sth     r28,-23402(r10)
 1807e80:	90 08 a4 78 	stw     r0,-23432(r8)
 1807e84:	9b 99 a4 94 	stb     r28,-23404(r25)
 1807e88:	b3 86 a4 98 	sth     r28,-23400(r6)
 1807e8c:	48 00 11 44 	b       1808fd0 <nav_update+0x13e4>
 1807e90:	2c 1c 00 01 	cmpwi   r28,1
 1807e94:	40 82 01 b4 	bne-    1808048 <nav_update+0x45c>
 1807e98:	3f e0 01 82 	lis     r31,386
 1807e9c:	8b bf a3 e8 	lbz     r29,-23576(r31)
 1807ea0:	9b 8c a4 88 	stb     r28,-23416(r12)
 1807ea4:	2c 1d 00 00 	cmpwi   r29,0
 1807ea8:	41 82 00 14 	beq-    1807ebc <nav_update+0x2d0>
 1807eac:	38 a0 00 00 	li      r5,0
 1807eb0:	38 80 00 00 	li      r4,0
 1807eb4:	38 e0 00 02 	li      r7,2
 1807eb8:	48 00 0c 5c 	b       1808b14 <nav_update+0xf28>
 1807ebc:	3d 20 01 82 	lis     r9,386
 1807ec0:	88 09 a4 94 	lbz     r0,-23404(r9)
 1807ec4:	3f 20 01 82 	lis     r25,386
 1807ec8:	2c 00 00 00 	cmpwi   r0,0
 1807ecc:	41 82 10 54 	beq-    1808f20 <nav_update+0x1334>
 1807ed0:	2c 00 00 01 	cmpwi   r0,1
 1807ed4:	40 82 00 8c 	bne-    1807f60 <nav_update+0x374>
 1807ed8:	9b 99 a4 94 	stb     r28,-23404(r25)
 1807edc:	38 60 00 01 	li      r3,1
 1807ee0:	4b ff f7 35 	bl      1807614 <approaching>
 1807ee4:	2c 03 00 00 	cmpwi   r3,0
 1807ee8:	41 82 00 48 	beq-    1807f30 <nav_update+0x344>
 1807eec:	89 39 a4 94 	lbz     r9,-23404(r25)
 1807ef0:	c0 1b a4 e4 	lfs     f0,-23324(r27)
 1807ef4:	c1 ba a4 f8 	lfs     f13,-23304(r26)
 1807ef8:	39 29 00 01 	addi    r9,r9,1
 1807efc:	3d 60 01 82 	lis     r11,386
 1807f00:	3d 40 01 82 	lis     r10,386
 1807f04:	3d 00 01 82 	lis     r8,386
 1807f08:	3c e0 01 82 	lis     r7,386
 1807f0c:	3c c0 01 82 	lis     r6,386
 1807f10:	38 00 00 00 	li      r0,0
 1807f14:	9b 8b a4 5c 	stb     r28,-23460(r11)
 1807f18:	99 39 a4 94 	stb     r9,-23404(r25)
 1807f1c:	d0 0a a4 54 	stfs    f0,-23468(r10)
 1807f20:	d1 a8 a4 58 	stfs    f13,-23464(r8)
 1807f24:	b3 a7 a4 96 	sth     r29,-23402(r7)
 1807f28:	90 06 a4 78 	stw     r0,-23432(r6)
 1807f2c:	48 00 10 a4 	b       1808fd0 <nav_update+0x13e4>
 1807f30:	38 60 00 01 	li      r3,1
 1807f34:	4b ff f7 c5 	bl      18076f8 <fly_to>
 1807f38:	c0 1e 00 14 	lfs     f0,20(r30)
 1807f3c:	38 e0 00 00 	li      r7,0
 1807f40:	3d 00 01 82 	lis     r8,386
 1807f44:	3c c0 01 82 	lis     r6,386
 1807f48:	3d 40 01 82 	lis     r10,386
 1807f4c:	38 00 00 03 	li      r0,3
 1807f50:	3d 20 01 82 	lis     r9,386
 1807f54:	3d 60 01 82 	lis     r11,386
 1807f58:	9b a8 a3 4a 	stb     r29,-23734(r8)
 1807f5c:	48 00 04 a0 	b       18083fc <nav_update+0x810>
 1807f60:	2c 00 00 02 	cmpwi   r0,2
 1807f64:	40 82 00 90 	bne-    1807ff4 <nav_update+0x408>
 1807f68:	98 19 a4 94 	stb     r0,-23404(r25)
 1807f6c:	38 60 00 04 	li      r3,4
 1807f70:	4b ff f6 a5 	bl      1807614 <approaching>
 1807f74:	2c 03 00 00 	cmpwi   r3,0
 1807f78:	41 82 00 4c 	beq-    1807fc4 <nav_update+0x3d8>
 1807f7c:	89 39 a4 94 	lbz     r9,-23404(r25)
 1807f80:	c0 1b a4 e4 	lfs     f0,-23324(r27)
 1807f84:	c1 ba a4 f8 	lfs     f13,-23304(r26)
 1807f88:	39 29 00 01 	addi    r9,r9,1
 1807f8c:	3d 40 01 82 	lis     r10,386
 1807f90:	38 00 00 04 	li      r0,4
 1807f94:	3d 00 01 82 	lis     r8,386
 1807f98:	3c e0 01 82 	lis     r7,386
 1807f9c:	3c c0 01 82 	lis     r6,386
 1807fa0:	3c a0 01 82 	lis     r5,386
 1807fa4:	39 60 00 00 	li      r11,0
 1807fa8:	98 0a a4 5c 	stb     r0,-23460(r10)
 1807fac:	99 39 a4 94 	stb     r9,-23404(r25)
 1807fb0:	d0 08 a4 54 	stfs    f0,-23468(r8)
 1807fb4:	d1 a7 a4 58 	stfs    f13,-23464(r7)
 1807fb8:	b3 a6 a4 96 	sth     r29,-23402(r6)
 1807fbc:	91 65 a4 78 	stw     r11,-23432(r5)
 1807fc0:	48 00 10 10 	b       1808fd0 <nav_update+0x13e4>
 1807fc4:	38 60 00 04 	li      r3,4
 1807fc8:	4b ff f7 31 	bl      18076f8 <fly_to>
 1807fcc:	c0 1e 00 38 	lfs     f0,56(r30)
 1807fd0:	38 e0 00 00 	li      r7,0
 1807fd4:	3d 00 01 82 	lis     r8,386
 1807fd8:	3c c0 01 82 	lis     r6,386
 1807fdc:	3d 40 01 82 	lis     r10,386
 1807fe0:	38 00 00 03 	li      r0,3
 1807fe4:	3d 20 01 82 	lis     r9,386
 1807fe8:	3d 60 01 82 	lis     r11,386
 1807fec:	9b a8 a3 4a 	stb     r29,-23734(r8)
 1807ff0:	48 00 04 0c 	b       18083fc <nav_update+0x810>
 1807ff4:	2c 00 00 03 	cmpwi   r0,3
 1807ff8:	40 82 00 0c 	bne-    1808004 <nav_update+0x418>
 1807ffc:	98 19 a4 94 	stb     r0,-23404(r25)
 1808000:	48 00 0f 20 	b       1808f20 <nav_update+0x1334>
 1808004:	2c 00 00 04 	cmpwi   r0,4
 1808008:	40 82 0f c8 	bne-    1808fd0 <nav_update+0x13e4>
 180800c:	38 e0 00 02 	li      r7,2
 1808010:	3c c0 01 82 	lis     r6,386
 1808014:	3d 20 01 82 	lis     r9,386
 1808018:	3d 60 01 82 	lis     r11,386
 180801c:	3d 40 01 82 	lis     r10,386
 1808020:	3d 00 01 82 	lis     r8,386
 1808024:	38 00 00 00 	li      r0,0
 1808028:	98 ec a4 88 	stb     r7,-23416(r12)
 180802c:	d1 69 a4 54 	stfs    f11,-23468(r9)
 1808030:	d1 4b a4 58 	stfs    f10,-23464(r11)
 1808034:	b3 aa a4 96 	sth     r29,-23402(r10)
 1808038:	90 08 a4 78 	stw     r0,-23432(r8)
 180803c:	9b b9 a4 94 	stb     r29,-23404(r25)
 1808040:	b3 a6 a4 98 	sth     r29,-23400(r6)
 1808044:	48 00 0f 8c 	b       1808fd0 <nav_update+0x13e4>
 1808048:	2c 1c 00 02 	cmpwi   r28,2
 180804c:	40 82 04 38 	bne-    1808484 <nav_update+0x898>
 1808050:	3f a0 01 82 	lis     r29,386
 1808054:	8b fd a3 e8 	lbz     r31,-23576(r29)
 1808058:	9b 8c a4 88 	stb     r28,-23416(r12)
 180805c:	2c 1f 00 00 	cmpwi   r31,0
 1808060:	41 82 00 50 	beq-    18080b0 <nav_update+0x4c4>
 1808064:	38 a0 00 00 	li      r5,0
 1808068:	38 80 00 00 	li      r4,0
 180806c:	38 e0 00 03 	li      r7,3
 1808070:	3c c0 01 82 	lis     r6,386
 1808074:	3c 60 01 82 	lis     r3,386
 1808078:	3d 20 01 82 	lis     r9,386
 180807c:	3d 60 01 82 	lis     r11,386
 1808080:	3d 40 01 82 	lis     r10,386
 1808084:	3d 00 01 82 	lis     r8,386
 1808088:	38 00 00 00 	li      r0,0
 180808c:	98 ec a4 88 	stb     r7,-23416(r12)
 1808090:	98 a6 a4 94 	stb     r5,-23404(r6)
 1808094:	d1 69 a4 54 	stfs    f11,-23468(r9)
 1808098:	d1 4b a4 58 	stfs    f10,-23464(r11)
 180809c:	b0 8a a4 96 	sth     r4,-23402(r10)
 18080a0:	90 08 a4 78 	stw     r0,-23432(r8)
 18080a4:	98 bd a3 e8 	stb     r5,-23576(r29)
 18080a8:	b0 83 a4 98 	sth     r4,-23400(r3)
 18080ac:	48 00 0f 24 	b       1808fd0 <nav_update+0x13e4>
 18080b0:	3d 20 01 82 	lis     r9,386
 18080b4:	8b a9 a4 94 	lbz     r29,-23404(r9)
 18080b8:	3f 20 01 82 	lis     r25,386
 18080bc:	2c 1d 00 00 	cmpwi   r29,0
 18080c0:	40 82 00 20 	bne-    18080e0 <nav_update+0x4f4>
 18080c4:	3d 20 01 82 	lis     r9,386
 18080c8:	3d 60 01 82 	lis     r11,386
 18080cc:	c0 09 a4 e4 	lfs     f0,-23324(r9)
 18080d0:	c1 ab a4 f8 	lfs     f13,-23304(r11)
 18080d4:	3c a0 01 82 	lis     r5,386
 18080d8:	39 40 00 01 	li      r10,1
 18080dc:	48 00 0e 60 	b       1808f3c <nav_update+0x1350>
 18080e0:	2c 1d 00 01 	cmpwi   r29,1
 18080e4:	40 82 00 64 	bne-    1808148 <nav_update+0x55c>
 18080e8:	9b b9 a4 94 	stb     r29,-23404(r25)
 18080ec:	38 60 00 06 	li      r3,6
 18080f0:	4b ff f5 25 	bl      1807614 <approaching>
 18080f4:	2c 03 00 00 	cmpwi   r3,0
 18080f8:	41 82 00 20 	beq-    1808118 <nav_update+0x52c>
 18080fc:	89 39 a4 94 	lbz     r9,-23404(r25)
 1808100:	c0 1b a4 e4 	lfs     f0,-23324(r27)
 1808104:	c1 ba a4 f8 	lfs     f13,-23304(r26)
 1808108:	39 29 00 01 	addi    r9,r9,1
 180810c:	3d 40 01 82 	lis     r10,386
 1808110:	38 00 00 06 	li      r0,6
 1808114:	48 00 01 e0 	b       18082f4 <nav_update+0x708>
 1808118:	38 60 00 06 	li      r3,6
 180811c:	4b ff f5 dd 	bl      18076f8 <fly_to>
 1808120:	c0 1e 00 50 	lfs     f0,80(r30)
 1808124:	38 e0 00 00 	li      r7,0
 1808128:	3d 00 01 82 	lis     r8,386
 180812c:	3c c0 01 82 	lis     r6,386
 1808130:	3d 40 01 82 	lis     r10,386
 1808134:	38 00 00 03 	li      r0,3
 1808138:	3d 20 01 82 	lis     r9,386
 180813c:	3d 60 01 82 	lis     r11,386
 1808140:	9b e8 a3 4a 	stb     r31,-23734(r8)
 1808144:	48 00 02 b8 	b       18083fc <nav_update+0x810>
 1808148:	2c 1d 00 02 	cmpwi   r29,2
 180814c:	40 82 00 64 	bne-    18081b0 <nav_update+0x5c4>
 1808150:	9b 99 a4 94 	stb     r28,-23404(r25)
 1808154:	38 60 00 01 	li      r3,1
 1808158:	4b ff f4 bd 	bl      1807614 <approaching>
 180815c:	2c 03 00 00 	cmpwi   r3,0
 1808160:	41 82 00 20 	beq-    1808180 <nav_update+0x594>
 1808164:	89 39 a4 94 	lbz     r9,-23404(r25)
 1808168:	c0 1b a4 e4 	lfs     f0,-23324(r27)
 180816c:	c1 ba a4 f8 	lfs     f13,-23304(r26)
 1808170:	39 29 00 01 	addi    r9,r9,1
 1808174:	3d 40 01 82 	lis     r10,386
 1808178:	38 00 00 01 	li      r0,1
 180817c:	48 00 01 78 	b       18082f4 <nav_update+0x708>
 1808180:	38 60 00 01 	li      r3,1
 1808184:	4b ff f5 75 	bl      18076f8 <fly_to>
 1808188:	c0 1e 00 14 	lfs     f0,20(r30)
 180818c:	38 e0 00 00 	li      r7,0
 1808190:	3d 00 01 82 	lis     r8,386
 1808194:	3c c0 01 82 	lis     r6,386
 1808198:	3d 40 01 82 	lis     r10,386
 180819c:	38 00 00 03 	li      r0,3
 18081a0:	3d 20 01 82 	lis     r9,386
 18081a4:	3d 60 01 82 	lis     r11,386
 18081a8:	9b e8 a3 4a 	stb     r31,-23734(r8)
 18081ac:	48 00 02 50 	b       18083fc <nav_update+0x810>
 18081b0:	2c 1d 00 03 	cmpwi   r29,3
 18081b4:	40 82 00 a0 	bne-    1808254 <nav_update+0x668>
 18081b8:	9b b9 a4 94 	stb     r29,-23404(r25)
 18081bc:	38 60 00 02 	li      r3,2
 18081c0:	4b ff f4 55 	bl      1807614 <approaching>
 18081c4:	2c 03 00 00 	cmpwi   r3,0
 18081c8:	41 82 00 48 	beq-    1808210 <nav_update+0x624>
 18081cc:	89 39 a4 94 	lbz     r9,-23404(r25)
 18081d0:	c0 1b a4 e4 	lfs     f0,-23324(r27)
 18081d4:	c1 ba a4 f8 	lfs     f13,-23304(r26)
 18081d8:	39 29 00 01 	addi    r9,r9,1
 18081dc:	3d 60 01 82 	lis     r11,386
 18081e0:	3d 40 01 82 	lis     r10,386
 18081e4:	3d 00 01 82 	lis     r8,386
 18081e8:	3c e0 01 82 	lis     r7,386
 18081ec:	3c c0 01 82 	lis     r6,386
 18081f0:	38 00 00 00 	li      r0,0
 18081f4:	9b 8b a4 5c 	stb     r28,-23460(r11)
 18081f8:	99 39 a4 94 	stb     r9,-23404(r25)
 18081fc:	d0 0a a4 54 	stfs    f0,-23468(r10)
 1808200:	d1 a8 a4 58 	stfs    f13,-23464(r8)
 1808204:	b3 e7 a4 96 	sth     r31,-23402(r7)
 1808208:	90 06 a4 78 	stw     r0,-23432(r6)
 180820c:	48 00 0d c4 	b       1808fd0 <nav_update+0x13e4>
 1808210:	3d 20 01 82 	lis     r9,386
 1808214:	88 69 a4 5c 	lbz     r3,-23460(r9)
 1808218:	38 80 00 02 	li      r4,2
 180821c:	4b ff f5 75 	bl      1807790 <route_to>
 1808220:	c0 1e 00 20 	lfs     f0,32(r30)
 1808224:	38 00 00 00 	li      r0,0
 1808228:	3d 00 01 82 	lis     r8,386
 180822c:	3c e0 01 82 	lis     r7,386
 1808230:	3d 20 01 82 	lis     r9,386
 1808234:	3d 60 01 82 	lis     r11,386
 1808238:	3d 40 01 82 	lis     r10,386
 180823c:	9b e8 a3 4a 	stb     r31,-23734(r8)
 1808240:	9b a9 a3 47 	stb     r29,-23737(r9)
 1808244:	d0 0b a3 d4 	stfs    f0,-23596(r11)
 1808248:	90 0a a3 a8 	stw     r0,-23640(r10)
 180824c:	90 07 a3 d8 	stw     r0,-23592(r7)
 1808250:	48 00 0d 80 	b       1808fd0 <nav_update+0x13e4>
 1808254:	2c 1d 00 04 	cmpwi   r29,4
 1808258:	40 82 00 68 	bne-    18082c0 <nav_update+0x6d4>
 180825c:	9b b9 a4 94 	stb     r29,-23404(r25)
 1808260:	38 60 00 03 	li      r3,3
 1808264:	4b ff f3 b1 	bl      1807614 <approaching>
 1808268:	2c 03 00 00 	cmpwi   r3,0
 180826c:	41 82 00 20 	beq-    180828c <nav_update+0x6a0>
 1808270:	89 39 a4 94 	lbz     r9,-23404(r25)
 1808274:	c0 1b a4 e4 	lfs     f0,-23324(r27)
 1808278:	c1 ba a4 f8 	lfs     f13,-23304(r26)
 180827c:	39 29 00 01 	addi    r9,r9,1
 1808280:	3d 40 01 82 	lis     r10,386
 1808284:	38 00 00 03 	li      r0,3
 1808288:	48 00 00 6c 	b       18082f4 <nav_update+0x708>
 180828c:	38 60 00 03 	li      r3,3
 1808290:	4b ff f4 69 	bl      18076f8 <fly_to>
 1808294:	3d 20 01 82 	lis     r9,386
 1808298:	c0 09 a3 0c 	lfs     f0,-23796(r9)
 180829c:	38 e0 00 00 	li      r7,0
 18082a0:	3d 00 01 82 	lis     r8,386
 18082a4:	3c c0 01 82 	lis     r6,386
 18082a8:	3d 40 01 82 	lis     r10,386
 18082ac:	38 00 00 03 	li      r0,3
 18082b0:	3d 20 01 82 	lis     r9,386
 18082b4:	3d 60 01 82 	lis     r11,386
 18082b8:	9b e8 a3 4a 	stb     r31,-23734(r8)
 18082bc:	48 00 01 40 	b       18083fc <nav_update+0x810>
 18082c0:	2c 1d 00 05 	cmpwi   r29,5
 18082c4:	40 82 00 94 	bne-    1808358 <nav_update+0x76c>
 18082c8:	9b b9 a4 94 	stb     r29,-23404(r25)
 18082cc:	38 60 00 04 	li      r3,4
 18082d0:	4b ff f3 45 	bl      1807614 <approaching>
 18082d4:	2c 03 00 00 	cmpwi   r3,0
 18082d8:	41 82 00 4c 	beq-    1808324 <nav_update+0x738>
 18082dc:	89 39 a4 94 	lbz     r9,-23404(r25)
 18082e0:	c0 1b a4 e4 	lfs     f0,-23324(r27)
 18082e4:	c1 ba a4 f8 	lfs     f13,-23304(r26)
 18082e8:	39 29 00 01 	addi    r9,r9,1
 18082ec:	3d 40 01 82 	lis     r10,386
 18082f0:	38 00 00 04 	li      r0,4
 18082f4:	3d 00 01 82 	lis     r8,386
 18082f8:	3c e0 01 82 	lis     r7,386
 18082fc:	3c c0 01 82 	lis     r6,386
 1808300:	3c a0 01 82 	lis     r5,386
 1808304:	39 60 00 00 	li      r11,0
 1808308:	98 0a a4 5c 	stb     r0,-23460(r10)
 180830c:	99 39 a4 94 	stb     r9,-23404(r25)
 1808310:	d0 08 a4 54 	stfs    f0,-23468(r8)
 1808314:	d1 a7 a4 58 	stfs    f13,-23464(r7)
 1808318:	b3 e6 a4 96 	sth     r31,-23402(r6)
 180831c:	91 65 a4 78 	stw     r11,-23432(r5)
 1808320:	48 00 0c b0 	b       1808fd0 <nav_update+0x13e4>
 1808324:	38 60 00 04 	li      r3,4
 1808328:	4b ff f3 d1 	bl      18076f8 <fly_to>
 180832c:	3d 20 01 82 	lis     r9,386
 1808330:	c0 09 a3 18 	lfs     f0,-23784(r9)
 1808334:	38 e0 00 00 	li      r7,0
 1808338:	3d 00 01 82 	lis     r8,386
 180833c:	3c c0 01 82 	lis     r6,386
 1808340:	3d 40 01 82 	lis     r10,386
 1808344:	38 00 00 03 	li      r0,3
 1808348:	3d 20 01 82 	lis     r9,386
 180834c:	3d 60 01 82 	lis     r11,386
 1808350:	9b e8 a3 4a 	stb     r31,-23734(r8)
 1808354:	48 00 00 a8 	b       18083fc <nav_update+0x810>
 1808358:	2c 1d 00 06 	cmpwi   r29,6
 180835c:	40 82 00 b4 	bne-    1808410 <nav_update+0x824>
 1808360:	9b b9 a4 94 	stb     r29,-23404(r25)
 1808364:	38 60 00 05 	li      r3,5
 1808368:	4b ff f2 ad 	bl      1807614 <approaching>
 180836c:	7c 7e 1b 79 	mr.     r30,r3
 1808370:	41 82 00 54 	beq-    18083c4 <nav_update+0x7d8>
 1808374:	3d 20 01 82 	lis     r9,386
 1808378:	3d 60 01 82 	lis     r11,386
 180837c:	89 59 a4 94 	lbz     r10,-23404(r25)
 1808380:	c0 09 a4 e4 	lfs     f0,-23324(r9)
 1808384:	c1 ab a4 f8 	lfs     f13,-23304(r11)
 1808388:	39 4a 00 01 	addi    r10,r10,1
 180838c:	3d 60 01 82 	lis     r11,386
 1808390:	38 00 00 05 	li      r0,5
 1808394:	3d 00 01 82 	lis     r8,386
 1808398:	3c e0 01 82 	lis     r7,386
 180839c:	3c c0 01 82 	lis     r6,386
 18083a0:	3c a0 01 82 	lis     r5,386
 18083a4:	39 20 00 00 	li      r9,0
 18083a8:	98 0b a4 5c 	stb     r0,-23460(r11)
 18083ac:	99 59 a4 94 	stb     r10,-23404(r25)
 18083b0:	d0 08 a4 54 	stfs    f0,-23468(r8)
 18083b4:	d1 a7 a4 58 	stfs    f13,-23464(r7)
 18083b8:	b3 e6 a4 96 	sth     r31,-23402(r6)
 18083bc:	91 25 a4 78 	stw     r9,-23432(r5)
 18083c0:	48 00 0c 10 	b       1808fd0 <nav_update+0x13e4>
 18083c4:	3d 20 01 82 	lis     r9,386
 18083c8:	88 69 a4 5c 	lbz     r3,-23460(r9)
 18083cc:	38 80 00 05 	li      r4,5
 18083d0:	4b ff f3 c1 	bl      1807790 <route_to>
 18083d4:	3d 20 01 82 	lis     r9,386
 18083d8:	c0 09 a3 24 	lfs     f0,-23772(r9)
 18083dc:	38 e0 00 00 	li      r7,0
 18083e0:	3d 00 01 82 	lis     r8,386
 18083e4:	3c c0 01 82 	lis     r6,386
 18083e8:	3d 40 01 82 	lis     r10,386
 18083ec:	38 00 00 03 	li      r0,3
 18083f0:	3d 20 01 82 	lis     r9,386
 18083f4:	3d 60 01 82 	lis     r11,386
 18083f8:	9b c8 a3 4a 	stb     r30,-23734(r8)
 18083fc:	98 0a a3 47 	stb     r0,-23737(r10)
 1808400:	d0 09 a3 d4 	stfs    f0,-23596(r9)
 1808404:	90 eb a3 a8 	stw     r7,-23640(r11)
 1808408:	90 e6 a3 d8 	stw     r7,-23592(r6)
 180840c:	48 00 0b c4 	b       1808fd0 <nav_update+0x13e4>
 1808410:	2c 1d 00 07 	cmpwi   r29,7
 1808414:	40 82 00 0c 	bne-    1808420 <nav_update+0x834>
 1808418:	9b b9 a4 94 	stb     r29,-23404(r25)
 180841c:	4b ff fc a8 	b       18080c4 <nav_update+0x4d8>
 1808420:	2c 1d 00 08 	cmpwi   r29,8
 1808424:	40 82 0b ac 	bne-    1808fd0 <nav_update+0x13e4>
 1808428:	3c 80 01 82 	lis     r4,386
 180842c:	3d 20 01 82 	lis     r9,386
 1808430:	3d 60 01 82 	lis     r11,386
 1808434:	89 44 a4 88 	lbz     r10,-23416(r4)
 1808438:	c0 09 a4 e4 	lfs     f0,-23324(r9)
 180843c:	c1 ab a4 f8 	lfs     f13,-23304(r11)
 1808440:	38 a0 00 00 	li      r5,0
 1808444:	39 4a 00 01 	addi    r10,r10,1
 1808448:	38 c0 00 00 	li      r6,0
 180844c:	3c 60 01 82 	lis     r3,386
 1808450:	3d 20 01 82 	lis     r9,386
 1808454:	3d 60 01 82 	lis     r11,386
 1808458:	3d 00 01 82 	lis     r8,386
 180845c:	3c e0 01 82 	lis     r7,386
 1808460:	38 00 00 00 	li      r0,0
 1808464:	99 44 a4 88 	stb     r10,-23416(r4)
 1808468:	98 d9 a4 94 	stb     r6,-23404(r25)
 180846c:	d0 09 a4 54 	stfs    f0,-23468(r9)
 1808470:	d1 ab a4 58 	stfs    f13,-23464(r11)
 1808474:	b0 a8 a4 96 	sth     r5,-23402(r8)
 1808478:	90 07 a4 78 	stw     r0,-23432(r7)
 180847c:	b0 a3 a4 98 	sth     r5,-23400(r3)
 1808480:	48 00 0b 50 	b       1808fd0 <nav_update+0x13e4>
 1808484:	2c 1c 00 03 	cmpwi   r28,3
 1808488:	40 82 04 80 	bne-    1808908 <nav_update+0xd1c>
 180848c:	3f e0 01 82 	lis     r31,386
 1808490:	88 bf a3 e8 	lbz     r5,-23576(r31)
 1808494:	9b 8c a4 88 	stb     r28,-23416(r12)
 1808498:	2c 05 00 00 	cmpwi   r5,0
 180849c:	41 82 00 14 	beq-    18084b0 <nav_update+0x8c4>
 18084a0:	38 a0 00 00 	li      r5,0
 18084a4:	38 80 00 00 	li      r4,0
 18084a8:	38 e0 00 04 	li      r7,4
 18084ac:	48 00 06 68 	b       1808b14 <nav_update+0xf28>
 18084b0:	3c 80 01 82 	lis     r4,386
 18084b4:	88 04 a4 94 	lbz     r0,-23404(r4)
 18084b8:	2c 00 00 00 	cmpwi   r0,0
 18084bc:	40 82 04 10 	bne-    18088cc <nav_update+0xce0>
 18084c0:	3d 20 01 82 	lis     r9,386
 18084c4:	88 09 a3 46 	lbz     r0,-23738(r9)
 18084c8:	98 a4 a4 94 	stb     r5,-23404(r4)
 18084cc:	2c 00 00 02 	cmpwi   r0,2
 18084d0:	3d 40 01 82 	lis     r10,386
 18084d4:	40 82 02 a0 	bne-    1808774 <nav_update+0xb88>
 18084d8:	3d 20 01 82 	lis     r9,386
 18084dc:	a9 69 a9 d0 	lha     r11,-22064(r9)
 18084e0:	38 0b 01 e0 	addi    r0,r11,480
 18084e4:	54 00 04 3e 	clrlwi  r0,r0,16
 18084e8:	28 00 03 c0 	cmplwi  r0,960
 18084ec:	40 81 00 c4 	ble-    18085b0 <nav_update+0x9c4>
 18084f0:	6d 6b 80 00 	xoris   r11,r11,32768
 18084f4:	91 61 00 24 	stw     r11,36(r1)
 18084f8:	3c 00 43 30 	lis     r0,17200
 18084fc:	90 01 00 20 	stw     r0,32(r1)
 1808500:	c9 a1 00 20 	lfd     f13,32(r1)
 1808504:	3d 20 01 81 	lis     r9,385
 1808508:	39 29 a0 e8 	addi    r9,r9,-24344
 180850c:	c8 09 00 00 	lfd     f0,0(r9)
 1808510:	3d 60 01 81 	lis     r11,385
 1808514:	39 6b a0 f0 	addi    r11,r11,-24336
 1808518:	fd ad 00 28 	fsub    f13,f13,f0
 180851c:	c1 0b 00 00 	lfs     f8,0(r11)
 1808520:	3d 20 01 81 	lis     r9,385
 1808524:	3d 60 01 81 	lis     r11,385
 1808528:	39 29 a0 f8 	addi    r9,r9,-24328
 180852c:	fd a0 68 18 	frsp    f13,f13
 1808530:	39 6b a1 00 	addi    r11,r11,-24320
 1808534:	c9 49 00 00 	lfd     f10,0(r9)
 1808538:	c9 6b 00 00 	lfd     f11,0(r11)
 180853c:	c1 8a a4 4c 	lfs     f12,-23476(r10)
 1808540:	ed ad 40 24 	fdivs   f13,f13,f8
 1808544:	3d 20 01 81 	lis     r9,385
 1808548:	c9 29 a0 a8 	lfd     f9,-24408(r9)
 180854c:	39 6a a4 4c 	addi    r11,r10,-23476
 1808550:	3c 00 43 7a 	lis     r0,17274
 1808554:	fc 00 68 90 	fmr     f0,f13
 1808558:	fc 00 5a ba 	fmadd   f0,f0,f10,f11
 180855c:	fd 8c 00 2a 	fadd    f12,f12,f0
 1808560:	fd 80 60 18 	frsp    f12,f12
 1808564:	fc 00 60 90 	fmr     f0,f12
 1808568:	d1 8a a4 4c 	stfs    f12,-23476(r10)
 180856c:	fc 00 48 00 	fcmpu   cr0,f0,f9
 1808570:	4c 62 03 82 	cror    so,eq,lt
 1808574:	40 83 00 0c 	bns-    1808580 <nav_update+0x994>
 1808578:	d1 81 00 08 	stfs    f12,8(r1)
 180857c:	80 01 00 08 	lwz     r0,8(r1)
 1808580:	90 0b 00 00 	stw     r0,0(r11)
 1808584:	c1 8a a4 4c 	lfs     f12,-23476(r10)
 1808588:	3d 20 01 81 	lis     r9,385
 180858c:	c8 09 a0 b0 	lfd     f0,-24400(r9)
 1808590:	fd a0 60 90 	fmr     f13,f12
 1808594:	3c 00 c3 7a 	lis     r0,-15494
 1808598:	fc 0d 00 00 	fcmpu   cr0,f13,f0
 180859c:	4c 62 0b 82 	cror    so,eq,gt
 18085a0:	40 83 00 0c 	bns-    18085ac <nav_update+0x9c0>
 18085a4:	d1 81 00 08 	stfs    f12,8(r1)
 18085a8:	80 01 00 08 	lwz     r0,8(r1)
 18085ac:	90 0b 00 00 	stw     r0,0(r11)
 18085b0:	3d 20 01 82 	lis     r9,386
 18085b4:	a9 69 a9 ce 	lha     r11,-22066(r9)
 18085b8:	3d 40 01 82 	lis     r10,386
 18085bc:	38 0b 01 e0 	addi    r0,r11,480
 18085c0:	54 00 04 3e 	clrlwi  r0,r0,16
 18085c4:	28 00 03 c0 	cmplwi  r0,960
 18085c8:	40 81 00 c4 	ble-    180868c <nav_update+0xaa0>
 18085cc:	6d 6b 80 00 	xoris   r11,r11,32768
 18085d0:	91 61 00 24 	stw     r11,36(r1)
 18085d4:	3c 00 43 30 	lis     r0,17200
 18085d8:	90 01 00 20 	stw     r0,32(r1)
 18085dc:	c9 a1 00 20 	lfd     f13,32(r1)
 18085e0:	3d 20 01 81 	lis     r9,385
 18085e4:	39 29 a0 e8 	addi    r9,r9,-24344
 18085e8:	c8 09 00 00 	lfd     f0,0(r9)
 18085ec:	3d 60 01 81 	lis     r11,385
 18085f0:	39 6b a0 f0 	addi    r11,r11,-24336
 18085f4:	fd ad 00 28 	fsub    f13,f13,f0
 18085f8:	c1 0b 00 00 	lfs     f8,0(r11)
 18085fc:	3d 20 01 81 	lis     r9,385
 1808600:	3d 60 01 81 	lis     r11,385
 1808604:	39 29 a0 f8 	addi    r9,r9,-24328
 1808608:	fd a0 68 18 	frsp    f13,f13
 180860c:	39 6b a1 00 	addi    r11,r11,-24320
 1808610:	c9 49 00 00 	lfd     f10,0(r9)
 1808614:	c9 6b 00 00 	lfd     f11,0(r11)
 1808618:	c1 8a a4 50 	lfs     f12,-23472(r10)
 180861c:	ed ad 40 24 	fdivs   f13,f13,f8
 1808620:	3d 20 01 81 	lis     r9,385
 1808624:	c9 29 a0 a8 	lfd     f9,-24408(r9)
 1808628:	39 6a a4 50 	addi    r11,r10,-23472
 180862c:	3c 00 43 7a 	lis     r0,17274
 1808630:	fc 00 68 90 	fmr     f0,f13
 1808634:	fc 00 5a ba 	fmadd   f0,f0,f10,f11
 1808638:	fd 8c 00 2a 	fadd    f12,f12,f0
 180863c:	fd 80 60 18 	frsp    f12,f12
 1808640:	fc 00 60 90 	fmr     f0,f12
 1808644:	d1 8a a4 50 	stfs    f12,-23472(r10)
 1808648:	fc 00 48 00 	fcmpu   cr0,f0,f9
 180864c:	4c 62 03 82 	cror    so,eq,lt
 1808650:	40 83 00 0c 	bns-    180865c <nav_update+0xa70>
 1808654:	d1 81 00 08 	stfs    f12,8(r1)
 1808658:	80 01 00 08 	lwz     r0,8(r1)
 180865c:	90 0b 00 00 	stw     r0,0(r11)
 1808660:	c1 8a a4 50 	lfs     f12,-23472(r10)
 1808664:	3d 20 01 81 	lis     r9,385
 1808668:	c8 09 a0 b0 	lfd     f0,-24400(r9)
 180866c:	fd a0 60 90 	fmr     f13,f12
 1808670:	3c 00 c3 7a 	lis     r0,-15494
 1808674:	fc 0d 00 00 	fcmpu   cr0,f13,f0
 1808678:	4c 62 0b 82 	cror    so,eq,gt
 180867c:	40 83 00 0c 	bns-    1808688 <nav_update+0xa9c>
 1808680:	d1 81 00 08 	stfs    f12,8(r1)
 1808684:	80 01 00 08 	lwz     r0,8(r1)
 1808688:	90 0b 00 00 	stw     r0,0(r11)
 180868c:	3d 20 01 82 	lis     r9,386
 1808690:	a9 49 a9 cc 	lha     r10,-22068(r9)
 1808694:	3d 60 01 82 	lis     r11,386
 1808698:	38 0a 01 e0 	addi    r0,r10,480
 180869c:	54 00 04 3e 	clrlwi  r0,r0,16
 18086a0:	28 00 03 c0 	cmplwi  r0,960
 18086a4:	39 20 00 03 	li      r9,3
 18086a8:	99 2b a3 47 	stb     r9,-23737(r11)
 18086ac:	40 81 00 c8 	ble-    1808774 <nav_update+0xb88>
 18086b0:	6d 4b 80 00 	xoris   r11,r10,32768
 18086b4:	91 61 00 24 	stw     r11,36(r1)
 18086b8:	3c 00 43 30 	lis     r0,17200
 18086bc:	90 01 00 20 	stw     r0,32(r1)
 18086c0:	c9 a1 00 20 	lfd     f13,32(r1)
 18086c4:	3d 20 01 81 	lis     r9,385
 18086c8:	39 29 a0 e8 	addi    r9,r9,-24344
 18086cc:	c8 09 00 00 	lfd     f0,0(r9)
 18086d0:	3d 60 01 81 	lis     r11,385
 18086d4:	39 6b a0 f0 	addi    r11,r11,-24336
 18086d8:	fd ad 00 28 	fsub    f13,f13,f0
 18086dc:	c1 2b 00 00 	lfs     f9,0(r11)
 18086e0:	3d 20 01 81 	lis     r9,385
 18086e4:	3d 60 01 82 	lis     r11,386
 18086e8:	39 29 a1 00 	addi    r9,r9,-24320
 18086ec:	fd a0 68 18 	frsp    f13,f13
 18086f0:	c1 8b a3 d4 	lfs     f12,-23596(r11)
 18086f4:	c9 69 00 00 	lfd     f11,0(r9)
 18086f8:	3d 20 01 81 	lis     r9,385
 18086fc:	c9 49 a0 b8 	lfd     f10,-24392(r9)
 1808700:	ed ad 48 24 	fdivs   f13,f13,f9
 1808704:	3d 20 01 81 	lis     r9,385
 1808708:	39 29 a1 08 	addi    r9,r9,-24312
 180870c:	38 0b a3 d4 	addi    r0,r11,-23596
 1808710:	c1 09 00 00 	lfs     f8,0(r9)
 1808714:	fc 00 68 90 	fmr     f0,f13
 1808718:	fc 00 00 50 	fneg    f0,f0
 180871c:	fc 00 58 2a 	fadd    f0,f0,f11
 1808720:	fd 8c 00 2a 	fadd    f12,f12,f0
 1808724:	fd 80 60 18 	frsp    f12,f12
 1808728:	fc 00 60 90 	fmr     f0,f12
 180872c:	d1 8b a3 d4 	stfs    f12,-23596(r11)
 1808730:	fc 00 50 00 	fcmpu   cr0,f0,f10
 1808734:	4c 62 0b 82 	cror    so,eq,gt
 1808738:	40 83 00 08 	bns-    1808740 <nav_update+0xb54>
 180873c:	fd 00 60 90 	fmr     f8,f12
 1808740:	fc 00 40 90 	fmr     f0,f8
 1808744:	3d 20 01 81 	lis     r9,385
 1808748:	c9 a9 a0 c0 	lfd     f13,-24384(r9)
 180874c:	d1 0b a3 d4 	stfs    f8,-23596(r11)
 1808750:	7c 0b 03 78 	mr      r11,r0
 1808754:	fc 00 68 00 	fcmpu   cr0,f0,f13
 1808758:	4c 62 03 82 	cror    so,eq,lt
 180875c:	40 83 00 0c 	bns-    1808768 <nav_update+0xb7c>
 1808760:	fc 00 40 90 	fmr     f0,f8
 1808764:	48 00 00 0c 	b       1808770 <nav_update+0xb84>
 1808768:	3d 20 01 81 	lis     r9,385
 180876c:	c0 09 a0 c8 	lfs     f0,-24376(r9)
 1808770:	d0 0b 00 00 	stfs    f0,0(r11)
 1808774:	3d 20 01 82 	lis     r9,386
 1808778:	3f 80 01 82 	lis     r28,386
 180877c:	3f a0 01 82 	lis     r29,386
 1808780:	3d 60 01 82 	lis     r11,386
 1808784:	c0 29 a4 f8 	lfs     f1,-23304(r9)
 1808788:	c0 4b a4 e4 	lfs     f2,-23324(r11)
 180878c:	c0 1c a4 50 	lfs     f0,-23472(r28)
 1808790:	c1 bd a4 4c 	lfs     f13,-23476(r29)
 1808794:	3d 60 01 81 	lis     r11,385
 1808798:	ec 21 00 28 	fsubs   f1,f1,f0
 180879c:	39 6b a1 10 	addi    r11,r11,-24304
 18087a0:	ec 42 68 28 	fsubs   f2,f2,f13
 18087a4:	cb 8b 00 00 	lfd     f28,0(r11)
 18087a8:	48 00 14 b5 	bl      1809c5c <pp_atan2>
 18087ac:	3d 20 01 82 	lis     r9,386
 18087b0:	fc 20 08 18 	frsp    f1,f1
 18087b4:	c0 09 a4 d4 	lfs     f0,-23340(r9)
 18087b8:	3d 20 01 81 	lis     r9,385
 18087bc:	39 29 a1 18 	addi    r9,r9,-24296
 18087c0:	c1 89 00 00 	lfs     f12,0(r9)
 18087c4:	3d 60 01 81 	lis     r11,385
 18087c8:	39 6b a1 20 	addi    r11,r11,-24288
 18087cc:	ec 00 03 32 	fmuls   f0,f0,f12
 18087d0:	c9 ab 00 00 	lfd     f13,0(r11)
 18087d4:	3d 20 01 81 	lis     r9,385
 18087d8:	cb c9 a0 d0 	lfd     f30,-24368(r9)
 18087dc:	fd ad 00 24 	fdiv    f13,f13,f0
 18087e0:	fc 21 68 2a 	fadd    f1,f1,f13
 18087e4:	fc 20 08 18 	frsp    f1,f1
 18087e8:	ff a0 08 90 	fmr     f29,f1
 18087ec:	fc 3d f0 2a 	fadd    f1,f29,f30
 18087f0:	48 00 15 19 	bl      1809d08 <pp_sin>
 18087f4:	c0 1d a4 4c 	lfs     f0,-23476(r29)
 18087f8:	ff e1 07 3a 	fmadd   f31,f1,f28,f0
 18087fc:	fc 20 e8 90 	fmr     f1,f29
 1808800:	ff e0 f8 18 	frsp    f31,f31
 1808804:	48 00 15 05 	bl      1809d08 <pp_sin>
 1808808:	c0 1c a4 50 	lfs     f0,-23472(r28)
 180880c:	fc 41 07 3a 	fmadd   f2,f1,f28,f0
 1808810:	fc 20 f8 90 	fmr     f1,f31
 1808814:	fc 40 10 18 	frsp    f2,f2
 1808818:	48 00 08 11 	bl      1809028 <fly_to_xy>
 180881c:	3d 20 01 81 	lis     r9,385
 1808820:	ff de e8 28 	fsub    f30,f30,f29
 1808824:	c8 09 a0 d8 	lfd     f0,-24360(r9)
 1808828:	3d 60 01 81 	lis     r11,385
 180882c:	c9 ab a0 e0 	lfd     f13,-24352(r11)
 1808830:	ff de 00 24 	fdiv    f30,f30,f0
 1808834:	3d 20 01 81 	lis     r9,385
 1808838:	39 29 a1 28 	addi    r9,r9,-24280
 180883c:	c1 89 00 00 	lfs     f12,0(r9)
 1808840:	3d 20 01 82 	lis     r9,386
 1808844:	ff de 03 72 	fmul    f30,f30,f13
 1808848:	ff c0 f0 18 	frsp    f30,f30
 180884c:	fc 1e 60 00 	fcmpu   cr0,f30,f12
 1808850:	d3 c9 a4 60 	stfs    f30,-23456(r9)
 1808854:	40 80 00 30 	bge-    1808884 <nav_update+0xc98>
 1808858:	3d 60 01 81 	lis     r11,385
 180885c:	3d 20 01 81 	lis     r9,385
 1808860:	39 6b a1 2c 	addi    r11,r11,-24276
 1808864:	39 29 a1 28 	addi    r9,r9,-24280
 1808868:	c1 ab 00 00 	lfs     f13,0(r11)
 180886c:	c0 09 00 00 	lfs     f0,0(r9)
 1808870:	ef de 68 2a 	fadds   f30,f30,f13
 1808874:	fc 1e 00 00 	fcmpu   cr0,f30,f0
 1808878:	41 80 ff f8 	blt+    1808870 <nav_update+0xc84>
 180887c:	3d 20 01 82 	lis     r9,386
 1808880:	d3 c9 a4 60 	stfs    f30,-23456(r9)
 1808884:	3d 60 01 81 	lis     r11,385
 1808888:	3d 20 01 82 	lis     r9,386
 180888c:	39 6b a1 2c 	addi    r11,r11,-24276
 1808890:	c1 a9 a4 60 	lfs     f13,-23456(r9)
 1808894:	c0 0b 00 00 	lfs     f0,0(r11)
 1808898:	fc 0d 00 00 	fcmpu   cr0,f13,f0
 180889c:	4c 62 0b 82 	cror    so,eq,gt
 18088a0:	40 83 07 30 	bns-    1808fd0 <nav_update+0x13e4>
 18088a4:	3d 60 01 81 	lis     r11,385
 18088a8:	39 6b a1 2c 	addi    r11,r11,-24276
 18088ac:	c1 ab 00 00 	lfs     f13,0(r11)
 18088b0:	c0 09 a4 60 	lfs     f0,-23456(r9)
 18088b4:	ec 00 68 28 	fsubs   f0,f0,f13
 18088b8:	fc 00 68 00 	fcmpu   cr0,f0,f13
 18088bc:	d0 09 a4 60 	stfs    f0,-23456(r9)
 18088c0:	4c 62 0b 82 	cror    so,eq,gt
 18088c4:	41 83 ff ec 	bso+    18088b0 <nav_update+0xcc4>
 18088c8:	48 00 07 08 	b       1808fd0 <nav_update+0x13e4>
 18088cc:	2c 00 00 01 	cmpwi   r0,1
 18088d0:	40 82 07 00 	bne-    1808fd0 <nav_update+0x13e4>
 18088d4:	38 e0 00 04 	li      r7,4
 18088d8:	3c c0 01 82 	lis     r6,386
 18088dc:	3d 20 01 82 	lis     r9,386
 18088e0:	3d 60 01 82 	lis     r11,386
 18088e4:	3d 40 01 82 	lis     r10,386
 18088e8:	3d 00 01 82 	lis     r8,386
 18088ec:	38 00 00 00 	li      r0,0
 18088f0:	98 ec a4 88 	stb     r7,-23416(r12)
 18088f4:	d1 69 a4 54 	stfs    f11,-23468(r9)
 18088f8:	d1 4b a4 58 	stfs    f10,-23464(r11)
 18088fc:	b0 aa a4 96 	sth     r5,-23402(r10)
 1808900:	90 08 a4 78 	stw     r0,-23432(r8)
 1808904:	48 00 06 c4 	b       1808fc8 <nav_update+0x13dc>
 1808908:	2c 1c 00 04 	cmpwi   r28,4
 180890c:	40 82 01 e0 	bne-    1808aec <nav_update+0xf00>
 1808910:	3f e0 01 82 	lis     r31,386
 1808914:	88 bf a3 e8 	lbz     r5,-23576(r31)
 1808918:	9b 8c a4 88 	stb     r28,-23416(r12)
 180891c:	2c 05 00 00 	cmpwi   r5,0
 1808920:	41 82 00 14 	beq-    1808934 <nav_update+0xd48>
 1808924:	38 a0 00 00 	li      r5,0
 1808928:	38 80 00 00 	li      r4,0
 180892c:	38 e0 00 05 	li      r7,5
 1808930:	48 00 01 e4 	b       1808b14 <nav_update+0xf28>
 1808934:	3c 80 01 82 	lis     r4,386
 1808938:	88 04 a4 94 	lbz     r0,-23404(r4)
 180893c:	2c 00 00 00 	cmpwi   r0,0
 1808940:	40 82 01 70 	bne-    1808ab0 <nav_update+0xec4>
 1808944:	ec 2a 08 28 	fsubs   f1,f10,f1
 1808948:	3d 20 01 81 	lis     r9,385
 180894c:	ec 4b 10 28 	fsubs   f2,f11,f2
 1808950:	39 29 a1 28 	addi    r9,r9,-24280
 1808954:	c0 1e 00 08 	lfs     f0,8(r30)
 1808958:	c3 69 00 00 	lfs     f27,0(r9)
 180895c:	3d 00 01 82 	lis     r8,386
 1808960:	3c e0 01 82 	lis     r7,386
 1808964:	38 00 00 03 	li      r0,3
 1808968:	3d 40 01 82 	lis     r10,386
 180896c:	3d 60 01 82 	lis     r11,386
 1808970:	3d 20 01 82 	lis     r9,386
 1808974:	98 0b a3 47 	stb     r0,-23737(r11)
 1808978:	98 a8 a3 4a 	stb     r5,-23734(r8)
 180897c:	98 a4 a4 94 	stb     r5,-23404(r4)
 1808980:	d3 67 a3 d8 	stfs    f27,-23592(r7)
 1808984:	d3 6a a3 a8 	stfs    f27,-23640(r10)
 1808988:	d0 09 a3 d4 	stfs    f0,-23596(r9)
 180898c:	48 00 12 d1 	bl      1809c5c <pp_atan2>
 1808990:	3d 20 01 82 	lis     r9,386
 1808994:	fc 20 08 18 	frsp    f1,f1
 1808998:	c0 09 a4 d4 	lfs     f0,-23340(r9)
 180899c:	3d 20 01 81 	lis     r9,385
 18089a0:	39 29 a1 30 	addi    r9,r9,-24272
 18089a4:	c1 89 00 00 	lfs     f12,0(r9)
 18089a8:	3d 60 01 81 	lis     r11,385
 18089ac:	39 6b a1 20 	addi    r11,r11,-24288
 18089b0:	ec 00 03 32 	fmuls   f0,f0,f12
 18089b4:	c9 ab 00 00 	lfd     f13,0(r11)
 18089b8:	3d 20 01 81 	lis     r9,385
 18089bc:	cb c9 a0 d0 	lfd     f30,-24368(r9)
 18089c0:	fd ad 00 24 	fdiv    f13,f13,f0
 18089c4:	fc 21 68 2a 	fadd    f1,f1,f13
 18089c8:	fc 20 08 18 	frsp    f1,f1
 18089cc:	ff a0 08 90 	fmr     f29,f1
 18089d0:	fc 3d f0 2a 	fadd    f1,f29,f30
 18089d4:	48 00 13 35 	bl      1809d08 <pp_sin>
 18089d8:	c0 1d a2 e0 	lfs     f0,-23840(r29)
 18089dc:	3d 20 01 81 	lis     r9,385
 18089e0:	cb 89 a0 a0 	lfd     f28,-24416(r9)
 18089e4:	ff e1 07 3a 	fmadd   f31,f1,f28,f0
 18089e8:	fc 20 e8 90 	fmr     f1,f29
 18089ec:	ff e0 f8 18 	frsp    f31,f31
 18089f0:	48 00 13 19 	bl      1809d08 <pp_sin>
 18089f4:	c0 1e 00 04 	lfs     f0,4(r30)
 18089f8:	fc 41 07 3a 	fmadd   f2,f1,f28,f0
 18089fc:	fc 20 f8 90 	fmr     f1,f31
 1808a00:	fc 40 10 18 	frsp    f2,f2
 1808a04:	48 00 06 25 	bl      1809028 <fly_to_xy>
 1808a08:	3d 20 01 81 	lis     r9,385
 1808a0c:	ff de e8 28 	fsub    f30,f30,f29
 1808a10:	c8 09 a0 d8 	lfd     f0,-24360(r9)
 1808a14:	3d 60 01 81 	lis     r11,385
 1808a18:	c9 ab a0 e0 	lfd     f13,-24352(r11)
 1808a1c:	ff de 00 24 	fdiv    f30,f30,f0
 1808a20:	3d 20 01 82 	lis     r9,386
 1808a24:	ff de 03 72 	fmul    f30,f30,f13
 1808a28:	ff c0 f0 18 	frsp    f30,f30
 1808a2c:	fc 1e d8 00 	fcmpu   cr0,f30,f27
 1808a30:	d3 c9 a4 60 	stfs    f30,-23456(r9)
 1808a34:	40 80 00 30 	bge-    1808a64 <nav_update+0xe78>
 1808a38:	3d 20 01 81 	lis     r9,385
 1808a3c:	3d 60 01 81 	lis     r11,385
 1808a40:	39 29 a1 2c 	addi    r9,r9,-24276
 1808a44:	39 6b a1 28 	addi    r11,r11,-24280
 1808a48:	c1 a9 00 00 	lfs     f13,0(r9)
 1808a4c:	c0 0b 00 00 	lfs     f0,0(r11)
 1808a50:	ef de 68 2a 	fadds   f30,f30,f13
 1808a54:	fc 1e 00 00 	fcmpu   cr0,f30,f0
 1808a58:	41 80 ff f8 	blt+    1808a50 <nav_update+0xe64>
 1808a5c:	3d 20 01 82 	lis     r9,386
 1808a60:	d3 c9 a4 60 	stfs    f30,-23456(r9)
 1808a64:	3d 20 01 82 	lis     r9,386
 1808a68:	c1 a9 a4 60 	lfs     f13,-23456(r9)
 1808a6c:	3d 20 01 81 	lis     r9,385
 1808a70:	39 29 a1 2c 	addi    r9,r9,-24276
 1808a74:	c0 09 00 00 	lfs     f0,0(r9)
 1808a78:	fc 0d 00 00 	fcmpu   cr0,f13,f0
 1808a7c:	4c 62 0b 82 	cror    so,eq,gt
 1808a80:	40 83 05 50 	bns-    1808fd0 <nav_update+0x13e4>
 1808a84:	3d 60 01 81 	lis     r11,385
 1808a88:	39 6b a1 2c 	addi    r11,r11,-24276
 1808a8c:	c1 ab 00 00 	lfs     f13,0(r11)
 1808a90:	3d 20 01 82 	lis     r9,386
 1808a94:	c0 09 a4 60 	lfs     f0,-23456(r9)
 1808a98:	ec 00 68 28 	fsubs   f0,f0,f13
 1808a9c:	fc 00 68 00 	fcmpu   cr0,f0,f13
 1808aa0:	d0 09 a4 60 	stfs    f0,-23456(r9)
 1808aa4:	4c 62 0b 82 	cror    so,eq,gt
 1808aa8:	41 83 ff ec 	bso+    1808a94 <nav_update+0xea8>
 1808aac:	48 00 05 24 	b       1808fd0 <nav_update+0x13e4>
 1808ab0:	2c 00 00 01 	cmpwi   r0,1
 1808ab4:	40 82 05 1c 	bne-    1808fd0 <nav_update+0x13e4>
 1808ab8:	38 e0 00 05 	li      r7,5
 1808abc:	3c c0 01 82 	lis     r6,386
 1808ac0:	3d 20 01 82 	lis     r9,386
 1808ac4:	3d 60 01 82 	lis     r11,386
 1808ac8:	3d 40 01 82 	lis     r10,386
 1808acc:	3d 00 01 82 	lis     r8,386
 1808ad0:	38 00 00 00 	li      r0,0
 1808ad4:	98 ec a4 88 	stb     r7,-23416(r12)
 1808ad8:	d1 69 a4 54 	stfs    f11,-23468(r9)
 1808adc:	d1 4b a4 58 	stfs    f10,-23464(r11)
 1808ae0:	b0 aa a4 96 	sth     r5,-23402(r10)
 1808ae4:	90 08 a4 78 	stw     r0,-23432(r8)
 1808ae8:	48 00 04 e0 	b       1808fc8 <nav_update+0x13dc>
 1808aec:	2c 1c 00 05 	cmpwi   r28,5
 1808af0:	40 82 04 e0 	bne-    1808fd0 <nav_update+0x13e4>
 1808af4:	3f e0 01 82 	lis     r31,386
 1808af8:	88 bf a3 e8 	lbz     r5,-23576(r31)
 1808afc:	9b 8c a4 88 	stb     r28,-23416(r12)
 1808b00:	2c 05 00 00 	cmpwi   r5,0
 1808b04:	41 82 00 50 	beq-    1808b54 <nav_update+0xf68>
 1808b08:	38 a0 00 00 	li      r5,0
 1808b0c:	38 80 00 00 	li      r4,0
 1808b10:	38 e0 00 01 	li      r7,1
 1808b14:	3c c0 01 82 	lis     r6,386
 1808b18:	3c 60 01 82 	lis     r3,386
 1808b1c:	3d 20 01 82 	lis     r9,386
 1808b20:	3d 60 01 82 	lis     r11,386
 1808b24:	3d 40 01 82 	lis     r10,386
 1808b28:	3d 00 01 82 	lis     r8,386
 1808b2c:	38 00 00 00 	li      r0,0
 1808b30:	98 ec a4 88 	stb     r7,-23416(r12)
 1808b34:	98 a6 a4 94 	stb     r5,-23404(r6)
 1808b38:	d1 69 a4 54 	stfs    f11,-23468(r9)
 1808b3c:	d1 4b a4 58 	stfs    f10,-23464(r11)
 1808b40:	b0 8a a4 96 	sth     r4,-23402(r10)
 1808b44:	90 08 a4 78 	stw     r0,-23432(r8)
 1808b48:	98 bf a3 e8 	stb     r5,-23576(r31)
 1808b4c:	b0 83 a4 98 	sth     r4,-23400(r3)
 1808b50:	48 00 04 80 	b       1808fd0 <nav_update+0x13e4>
 1808b54:	3c 80 01 82 	lis     r4,386
 1808b58:	88 c4 a4 94 	lbz     r6,-23404(r4)
 1808b5c:	2c 06 00 00 	cmpwi   r6,0
 1808b60:	40 82 00 20 	bne-    1808b80 <nav_update+0xf94>
 1808b64:	3d 20 01 82 	lis     r9,386
 1808b68:	3d 60 01 82 	lis     r11,386
 1808b6c:	c0 09 a4 e4 	lfs     f0,-23324(r9)
 1808b70:	c1 ab a4 f8 	lfs     f13,-23304(r11)
 1808b74:	3c a0 01 82 	lis     r5,386
 1808b78:	39 40 00 01 	li      r10,1
 1808b7c:	48 00 03 c0 	b       1808f3c <nav_update+0x1350>
 1808b80:	2c 06 00 01 	cmpwi   r6,1
 1808b84:	40 82 01 f0 	bne-    1808d74 <nav_update+0x1188>
 1808b88:	c0 3e 00 10 	lfs     f1,16(r30)
 1808b8c:	c0 5e 00 0c 	lfs     f2,12(r30)
 1808b90:	3d 20 01 81 	lis     r9,385
 1808b94:	ec 2a 08 28 	fsubs   f1,f10,f1
 1808b98:	39 29 a1 28 	addi    r9,r9,-24280
 1808b9c:	ec 4b 10 28 	fsubs   f2,f11,f2
 1808ba0:	c0 1e 00 14 	lfs     f0,20(r30)
 1808ba4:	c3 69 00 00 	lfs     f27,0(r9)
 1808ba8:	3d 00 01 82 	lis     r8,386
 1808bac:	3c e0 01 82 	lis     r7,386
 1808bb0:	3d 40 01 82 	lis     r10,386
 1808bb4:	38 00 00 03 	li      r0,3
 1808bb8:	3d 20 01 82 	lis     r9,386
 1808bbc:	3d 60 01 82 	lis     r11,386
 1808bc0:	98 c4 a4 94 	stb     r6,-23404(r4)
 1808bc4:	98 a8 a3 4a 	stb     r5,-23734(r8)
 1808bc8:	98 0a a3 47 	stb     r0,-23737(r10)
 1808bcc:	d3 67 a3 d8 	stfs    f27,-23592(r7)
 1808bd0:	d0 09 a3 d4 	stfs    f0,-23596(r9)
 1808bd4:	d3 6b a3 a8 	stfs    f27,-23640(r11)
 1808bd8:	48 00 10 85 	bl      1809c5c <pp_atan2>
 1808bdc:	3d 20 01 81 	lis     r9,385
 1808be0:	fc 20 08 18 	frsp    f1,f1
 1808be4:	39 29 a1 38 	addi    r9,r9,-24264
 1808be8:	cb 89 00 00 	lfd     f28,0(r9)
 1808bec:	3d 60 01 81 	lis     r11,385
 1808bf0:	39 6b a1 40 	addi    r11,r11,-24256
 1808bf4:	3d 20 01 82 	lis     r9,386
 1808bf8:	c1 8b 00 00 	lfs     f12,0(r11)
 1808bfc:	c0 09 a4 d4 	lfs     f0,-23340(r9)
 1808c00:	3d 20 01 81 	lis     r9,385
 1808c04:	39 29 a1 20 	addi    r9,r9,-24288
 1808c08:	ec 00 03 32 	fmuls   f0,f0,f12
 1808c0c:	c9 a9 00 00 	lfd     f13,0(r9)
 1808c10:	3d 20 01 81 	lis     r9,385
 1808c14:	cb c9 a0 d0 	lfd     f30,-24368(r9)
 1808c18:	fd ad 00 24 	fdiv    f13,f13,f0
 1808c1c:	fc 21 68 2a 	fadd    f1,f1,f13
 1808c20:	fc 20 08 18 	frsp    f1,f1
 1808c24:	ff a0 08 90 	fmr     f29,f1
 1808c28:	fc 3d f0 2a 	fadd    f1,f29,f30
 1808c2c:	48 00 10 dd 	bl      1809d08 <pp_sin>
 1808c30:	c0 1e 00 0c 	lfs     f0,12(r30)
 1808c34:	ff e1 07 3a 	fmadd   f31,f1,f28,f0
 1808c38:	fc 20 e8 90 	fmr     f1,f29
 1808c3c:	ff e0 f8 18 	frsp    f31,f31
 1808c40:	48 00 10 c9 	bl      1809d08 <pp_sin>
 1808c44:	c0 1e 00 10 	lfs     f0,16(r30)
 1808c48:	fc 41 07 3a 	fmadd   f2,f1,f28,f0
 1808c4c:	fc 20 f8 90 	fmr     f1,f31
 1808c50:	fc 40 10 18 	frsp    f2,f2
 1808c54:	48 00 03 d5 	bl      1809028 <fly_to_xy>
 1808c58:	3d 20 01 81 	lis     r9,385
 1808c5c:	ff de e8 28 	fsub    f30,f30,f29
 1808c60:	c8 09 a0 d8 	lfd     f0,-24360(r9)
 1808c64:	3d 60 01 81 	lis     r11,385
 1808c68:	c9 ab a0 e0 	lfd     f13,-24352(r11)
 1808c6c:	ff de 00 24 	fdiv    f30,f30,f0
 1808c70:	3d 20 01 82 	lis     r9,386
 1808c74:	ff de 03 72 	fmul    f30,f30,f13
 1808c78:	ff c0 f0 18 	frsp    f30,f30
 1808c7c:	fc 1e d8 00 	fcmpu   cr0,f30,f27
 1808c80:	d3 c9 a4 60 	stfs    f30,-23456(r9)
 1808c84:	40 80 00 30 	bge-    1808cb4 <nav_update+0x10c8>
 1808c88:	3d 20 01 81 	lis     r9,385
 1808c8c:	3d 60 01 81 	lis     r11,385
 1808c90:	39 29 a1 2c 	addi    r9,r9,-24276
 1808c94:	39 6b a1 28 	addi    r11,r11,-24280
 1808c98:	c1 a9 00 00 	lfs     f13,0(r9)
 1808c9c:	c0 0b 00 00 	lfs     f0,0(r11)
 1808ca0:	ef de 68 2a 	fadds   f30,f30,f13
 1808ca4:	fc 1e 00 00 	fcmpu   cr0,f30,f0
 1808ca8:	41 80 ff f8 	blt+    1808ca0 <nav_update+0x10b4>
 1808cac:	3d 20 01 82 	lis     r9,386
 1808cb0:	d3 c9 a4 60 	stfs    f30,-23456(r9)
 1808cb4:	3d 20 01 82 	lis     r9,386
 1808cb8:	c1 a9 a4 60 	lfs     f13,-23456(r9)
 1808cbc:	3d 20 01 81 	lis     r9,385
 1808cc0:	39 29 a1 2c 	addi    r9,r9,-24276
 1808cc4:	c0 09 00 00 	lfs     f0,0(r9)
 1808cc8:	fc 0d 00 00 	fcmpu   cr0,f13,f0
 1808ccc:	4c 62 0b 82 	cror    so,eq,gt
 1808cd0:	40 83 00 2c 	bns-    1808cfc <nav_update+0x1110>
 1808cd4:	3d 60 01 81 	lis     r11,385
 1808cd8:	fc 00 68 90 	fmr     f0,f13
 1808cdc:	39 6b a1 2c 	addi    r11,r11,-24276
 1808ce0:	c1 ab 00 00 	lfs     f13,0(r11)
 1808ce4:	ec 00 68 28 	fsubs   f0,f0,f13
 1808ce8:	fc 00 68 00 	fcmpu   cr0,f0,f13
 1808cec:	4c 62 0b 82 	cror    so,eq,gt
 1808cf0:	41 83 ff f4 	bso+    1808ce4 <nav_update+0x10f8>
 1808cf4:	3d 20 01 82 	lis     r9,386
 1808cf8:	d0 09 a4 60 	stfs    f0,-23456(r9)
 1808cfc:	3d 20 01 82 	lis     r9,386
 1808d00:	c1 a9 a4 60 	lfs     f13,-23456(r9)
 1808d04:	3d 20 01 81 	lis     r9,385
 1808d08:	39 29 a1 28 	addi    r9,r9,-24280
 1808d0c:	c1 89 00 00 	lfs     f12,0(r9)
 1808d10:	fc 0d 60 00 	fcmpu   cr0,f13,f12
 1808d14:	40 81 02 bc 	ble-    1808fd0 <nav_update+0x13e4>
 1808d18:	3d 60 01 81 	lis     r11,385
 1808d1c:	39 6b a1 44 	addi    r11,r11,-24252
 1808d20:	c0 0b 00 00 	lfs     f0,0(r11)
 1808d24:	fc 0d 00 00 	fcmpu   cr0,f13,f0
 1808d28:	40 80 02 a8 	bge-    1808fd0 <nav_update+0x13e4>
 1808d2c:	3c c0 01 82 	lis     r6,386
 1808d30:	3d 20 01 82 	lis     r9,386
 1808d34:	3d 60 01 82 	lis     r11,386
 1808d38:	89 46 a4 94 	lbz     r10,-23404(r6)
 1808d3c:	c0 09 a4 e4 	lfs     f0,-23324(r9)
 1808d40:	c1 ab a4 f8 	lfs     f13,-23304(r11)
 1808d44:	39 4a 00 01 	addi    r10,r10,1
 1808d48:	3d 60 01 82 	lis     r11,386
 1808d4c:	3d 00 01 82 	lis     r8,386
 1808d50:	3c e0 01 82 	lis     r7,386
 1808d54:	38 00 00 00 	li      r0,0
 1808d58:	3d 20 01 82 	lis     r9,386
 1808d5c:	99 46 a4 94 	stb     r10,-23404(r6)
 1808d60:	d0 0b a4 54 	stfs    f0,-23468(r11)
 1808d64:	d1 a8 a4 58 	stfs    f13,-23464(r8)
 1808d68:	b0 07 a4 96 	sth     r0,-23402(r7)
 1808d6c:	d1 89 a4 78 	stfs    f12,-23432(r9)
 1808d70:	48 00 02 60 	b       1808fd0 <nav_update+0x13e4>
 1808d74:	2c 06 00 02 	cmpwi   r6,2
 1808d78:	40 82 01 f4 	bne-    1808f6c <nav_update+0x1380>
 1808d7c:	c0 3e 00 34 	lfs     f1,52(r30)
 1808d80:	c0 5e 00 30 	lfs     f2,48(r30)
 1808d84:	3d 20 01 81 	lis     r9,385
 1808d88:	ec 2a 08 28 	fsubs   f1,f10,f1
 1808d8c:	39 29 a1 28 	addi    r9,r9,-24280
 1808d90:	ec 4b 10 28 	fsubs   f2,f11,f2
 1808d94:	c0 1e 00 38 	lfs     f0,56(r30)
 1808d98:	c3 69 00 00 	lfs     f27,0(r9)
 1808d9c:	3d 00 01 82 	lis     r8,386
 1808da0:	3c e0 01 82 	lis     r7,386
 1808da4:	3d 40 01 82 	lis     r10,386
 1808da8:	38 00 00 03 	li      r0,3
 1808dac:	3d 20 01 82 	lis     r9,386
 1808db0:	3d 60 01 82 	lis     r11,386
 1808db4:	98 c4 a4 94 	stb     r6,-23404(r4)
 1808db8:	98 a8 a3 4a 	stb     r5,-23734(r8)
 1808dbc:	98 0a a3 47 	stb     r0,-23737(r10)
 1808dc0:	d3 67 a3 d8 	stfs    f27,-23592(r7)
 1808dc4:	d0 09 a3 d4 	stfs    f0,-23596(r9)
 1808dc8:	d3 6b a3 a8 	stfs    f27,-23640(r11)
 1808dcc:	48 00 0e 91 	bl      1809c5c <pp_atan2>
 1808dd0:	3d 20 01 81 	lis     r9,385
 1808dd4:	fc 20 08 18 	frsp    f1,f1
 1808dd8:	39 29 a1 38 	addi    r9,r9,-24264
 1808ddc:	cb 89 00 00 	lfd     f28,0(r9)
 1808de0:	3d 60 01 81 	lis     r11,385
 1808de4:	39 6b a1 40 	addi    r11,r11,-24256
 1808de8:	3d 20 01 82 	lis     r9,386
 1808dec:	c1 8b 00 00 	lfs     f12,0(r11)
 1808df0:	c0 09 a4 d4 	lfs     f0,-23340(r9)
 1808df4:	3d 20 01 81 	lis     r9,385
 1808df8:	39 29 a1 20 	addi    r9,r9,-24288
 1808dfc:	ec 00 03 32 	fmuls   f0,f0,f12
 1808e00:	c9 a9 00 00 	lfd     f13,0(r9)
 1808e04:	3d 20 01 81 	lis     r9,385
 1808e08:	cb c9 a0 d0 	lfd     f30,-24368(r9)
 1808e0c:	fd ad 00 24 	fdiv    f13,f13,f0
 1808e10:	fc 21 68 2a 	fadd    f1,f1,f13
 1808e14:	fc 20 08 18 	frsp    f1,f1
 1808e18:	ff a0 08 90 	fmr     f29,f1
 1808e1c:	fc 3d f0 2a 	fadd    f1,f29,f30
 1808e20:	48 00 0e e9 	bl      1809d08 <pp_sin>
 1808e24:	c0 1e 00 30 	lfs     f0,48(r30)
 1808e28:	ff e1 07 3a 	fmadd   f31,f1,f28,f0
 1808e2c:	fc 20 e8 90 	fmr     f1,f29
 1808e30:	ff e0 f8 18 	frsp    f31,f31
 1808e34:	48 00 0e d5 	bl      1809d08 <pp_sin>
 1808e38:	c0 1e 00 34 	lfs     f0,52(r30)
 1808e3c:	fc 41 07 3a 	fmadd   f2,f1,f28,f0
 1808e40:	fc 20 f8 90 	fmr     f1,f31
 1808e44:	fc 40 10 18 	frsp    f2,f2
 1808e48:	48 00 01 e1 	bl      1809028 <fly_to_xy>
 1808e4c:	3d 20 01 81 	lis     r9,385
 1808e50:	ff de e8 28 	fsub    f30,f30,f29
 1808e54:	c8 09 a0 d8 	lfd     f0,-24360(r9)
 1808e58:	3d 60 01 81 	lis     r11,385
 1808e5c:	c9 ab a0 e0 	lfd     f13,-24352(r11)
 1808e60:	ff de 00 24 	fdiv    f30,f30,f0
 1808e64:	3d 20 01 82 	lis     r9,386
 1808e68:	ff de 03 72 	fmul    f30,f30,f13
 1808e6c:	ff c0 f0 18 	frsp    f30,f30
 1808e70:	fc 1e d8 00 	fcmpu   cr0,f30,f27
 1808e74:	d3 c9 a4 60 	stfs    f30,-23456(r9)
 1808e78:	40 80 00 30 	bge-    1808ea8 <nav_update+0x12bc>
 1808e7c:	3d 20 01 81 	lis     r9,385
 1808e80:	3d 60 01 81 	lis     r11,385
 1808e84:	39 29 a1 2c 	addi    r9,r9,-24276
 1808e88:	39 6b a1 28 	addi    r11,r11,-24280
 1808e8c:	c1 a9 00 00 	lfs     f13,0(r9)
 1808e90:	c0 0b 00 00 	lfs     f0,0(r11)
 1808e94:	ef de 68 2a 	fadds   f30,f30,f13
 1808e98:	fc 1e 00 00 	fcmpu   cr0,f30,f0
 1808e9c:	41 80 ff f8 	blt+    1808e94 <nav_update+0x12a8>
 1808ea0:	3d 20 01 82 	lis     r9,386
 1808ea4:	d3 c9 a4 60 	stfs    f30,-23456(r9)
 1808ea8:	3d 20 01 82 	lis     r9,386
 1808eac:	c1 a9 a4 60 	lfs     f13,-23456(r9)
 1808eb0:	3d 20 01 81 	lis     r9,385
 1808eb4:	39 29 a1 2c 	addi    r9,r9,-24276
 1808eb8:	c0 09 00 00 	lfs     f0,0(r9)
 1808ebc:	fc 0d 00 00 	fcmpu   cr0,f13,f0
 1808ec0:	4c 62 0b 82 	cror    so,eq,gt
 1808ec4:	40 83 00 2c 	bns-    1808ef0 <nav_update+0x1304>
 1808ec8:	3d 60 01 81 	lis     r11,385
 1808ecc:	fc 00 68 90 	fmr     f0,f13
 1808ed0:	39 6b a1 2c 	addi    r11,r11,-24276
 1808ed4:	c1 ab 00 00 	lfs     f13,0(r11)
 1808ed8:	ec 00 68 28 	fsubs   f0,f0,f13
 1808edc:	fc 00 68 00 	fcmpu   cr0,f0,f13
 1808ee0:	4c 62 0b 82 	cror    so,eq,gt
 1808ee4:	41 83 ff f4 	bso+    1808ed8 <nav_update+0x12ec>
 1808ee8:	3d 20 01 82 	lis     r9,386
 1808eec:	d0 09 a4 60 	stfs    f0,-23456(r9)
 1808ef0:	3d 20 01 82 	lis     r9,386
 1808ef4:	c1 a9 a4 60 	lfs     f13,-23456(r9)
 1808ef8:	3d 20 01 81 	lis     r9,385
 1808efc:	39 29 a1 48 	addi    r9,r9,-24248
 1808f00:	c0 09 00 00 	lfs     f0,0(r9)
 1808f04:	fc 0d 00 00 	fcmpu   cr0,f13,f0
 1808f08:	40 81 00 c8 	ble-    1808fd0 <nav_update+0x13e4>
 1808f0c:	3d 60 01 81 	lis     r11,385
 1808f10:	39 6b a1 4c 	addi    r11,r11,-24244
 1808f14:	c0 0b 00 00 	lfs     f0,0(r11)
 1808f18:	fc 0d 00 00 	fcmpu   cr0,f13,f0
 1808f1c:	40 80 00 b4 	bge-    1808fd0 <nav_update+0x13e4>
 1808f20:	3c a0 01 82 	lis     r5,386
 1808f24:	3d 20 01 82 	lis     r9,386
 1808f28:	3d 60 01 82 	lis     r11,386
 1808f2c:	89 45 a4 94 	lbz     r10,-23404(r5)
 1808f30:	c0 09 a4 e4 	lfs     f0,-23324(r9)
 1808f34:	c1 ab a4 f8 	lfs     f13,-23304(r11)
 1808f38:	39 4a 00 01 	addi    r10,r10,1
 1808f3c:	3d 00 01 82 	lis     r8,386
 1808f40:	3c e0 01 82 	lis     r7,386
 1808f44:	3c c0 01 82 	lis     r6,386
 1808f48:	39 20 00 00 	li      r9,0
 1808f4c:	3d 60 01 82 	lis     r11,386
 1808f50:	38 00 00 00 	li      r0,0
 1808f54:	99 45 a4 94 	stb     r10,-23404(r5)
 1808f58:	d0 08 a4 54 	stfs    f0,-23468(r8)
 1808f5c:	d1 a7 a4 58 	stfs    f13,-23464(r7)
 1808f60:	b1 26 a4 96 	sth     r9,-23402(r6)
 1808f64:	90 0b a4 78 	stw     r0,-23432(r11)
 1808f68:	48 00 00 68 	b       1808fd0 <nav_update+0x13e4>
 1808f6c:	2c 06 00 03 	cmpwi   r6,3
 1808f70:	40 82 00 0c 	bne-    1808f7c <nav_update+0x1390>
 1808f74:	98 c4 a4 94 	stb     r6,-23404(r4)
 1808f78:	4b ff fb ec 	b       1808b64 <nav_update+0xf78>
 1808f7c:	2c 06 00 04 	cmpwi   r6,4
 1808f80:	40 82 00 50 	bne-    1808fd0 <nav_update+0x13e4>
 1808f84:	89 43 00 00 	lbz     r10,0(r3)
 1808f88:	3d 20 01 82 	lis     r9,386
 1808f8c:	3d 60 01 82 	lis     r11,386
 1808f90:	c0 09 a4 e4 	lfs     f0,-23324(r9)
 1808f94:	c1 ab a4 f8 	lfs     f13,-23304(r11)
 1808f98:	39 4a 00 01 	addi    r10,r10,1
 1808f9c:	99 43 00 00 	stb     r10,0(r3)
 1808fa0:	3c c0 01 82 	lis     r6,386
 1808fa4:	3d 20 01 82 	lis     r9,386
 1808fa8:	3d 60 01 82 	lis     r11,386
 1808fac:	3d 00 01 82 	lis     r8,386
 1808fb0:	3c e0 01 82 	lis     r7,386
 1808fb4:	38 00 00 00 	li      r0,0
 1808fb8:	d0 09 a4 54 	stfs    f0,-23468(r9)
 1808fbc:	d1 ab a4 58 	stfs    f13,-23464(r11)
 1808fc0:	b0 a8 a4 96 	sth     r5,-23402(r8)
 1808fc4:	90 07 a4 78 	stw     r0,-23432(r7)
 1808fc8:	98 a4 a4 94 	stb     r5,-23404(r4)
 1808fcc:	b0 a6 a4 98 	sth     r5,-23400(r6)
 1808fd0:	80 01 00 74 	lwz     r0,116(r1)
 1808fd4:	7c 08 03 a6 	mtlr    r0
 1808fd8:	83 21 00 2c 	lwz     r25,44(r1)
 1808fdc:	83 41 00 30 	lwz     r26,48(r1)
 1808fe0:	83 61 00 34 	lwz     r27,52(r1)
 1808fe4:	83 81 00 38 	lwz     r28,56(r1)
 1808fe8:	83 a1 00 3c 	lwz     r29,60(r1)
 1808fec:	83 c1 00 40 	lwz     r30,64(r1)
 1808ff0:	83 e1 00 44 	lwz     r31,68(r1)
 1808ff4:	cb 61 00 48 	lfd     f27,72(r1)
 1808ff8:	cb 81 00 50 	lfd     f28,80(r1)
 1808ffc:	cb a1 00 58 	lfd     f29,88(r1)
 1809000:	cb c1 00 60 	lfd     f30,96(r1)
 1809004:	cb e1 00 68 	lfd     f31,104(r1)
 1809008:	38 21 00 70 	addi    r1,r1,112
 180900c:	4e 80 00 20 	blr

01809010 <nav_init>:
 1809010:	38 00 00 00 	li      r0,0
 1809014:	3d 60 01 82 	lis     r11,386
 1809018:	3d 20 01 82 	lis     r9,386
 180901c:	98 09 a4 94 	stb     r0,-23404(r9)
 1809020:	98 0b a4 88 	stb     r0,-23416(r11)
 1809024:	4e 80 00 20 	blr

01809028 <fly_to_xy>:
 1809028:	94 21 ff e0 	stwu    r1,-32(r1)
 180902c:	7c 08 02 a6 	mflr    r0
 1809030:	93 a1 00 14 	stw     r29,20(r1)
 1809034:	93 c1 00 18 	stw     r30,24(r1)
 1809038:	93 e1 00 1c 	stw     r31,28(r1)
 180903c:	90 01 00 24 	stw     r0,36(r1)
 1809040:	3d 60 01 82 	lis     r11,386
 1809044:	3d 20 01 82 	lis     r9,386
 1809048:	c0 0b a4 f8 	lfs     f0,-23304(r11)
 180904c:	c1 a9 a4 e4 	lfs     f13,-23324(r9)
 1809050:	3d 20 01 82 	lis     r9,386
 1809054:	ec 02 00 28 	fsubs   f0,f2,f0
 1809058:	3d 60 01 82 	lis     r11,386
 180905c:	ed a1 68 28 	fsubs   f13,f1,f13
 1809060:	3f a0 01 82 	lis     r29,386
 1809064:	d0 49 a4 7c 	stfs    f2,-23428(r9)
 1809068:	d0 2b a4 74 	stfs    f1,-23436(r11)
 180906c:	fc 20 00 90 	fmr     f1,f0
 1809070:	fc 40 68 90 	fmr     f2,f13
 1809074:	48 00 0b e9 	bl      1809c5c <pp_atan2>
 1809078:	3d 20 01 81 	lis     r9,385
 180907c:	c8 09 a1 50 	lfd     f0,-24240(r9)
 1809080:	fc 00 08 28 	fsub    f0,f0,f1
 1809084:	fc 00 00 18 	frsp    f0,f0
 1809088:	d0 1d a3 94 	stfs    f0,-23660(r29)
 180908c:	80 01 00 24 	lwz     r0,36(r1)
 1809090:	7c 08 03 a6 	mtlr    r0
 1809094:	83 a1 00 14 	lwz     r29,20(r1)
 1809098:	83 c1 00 18 	lwz     r30,24(r1)
 180909c:	83 e1 00 1c 	lwz     r31,28(r1)
 18090a0:	38 21 00 20 	addi    r1,r1,32
 18090a4:	4e 80 00 20 	blr

018090a8 <uart0_transmit>:
 18090a8:	39 60 00 2a 	li      r11,42
 18090ac:	88 0b 00 00 	lbz     r0,0(r11)
 18090b0:	70 09 00 40 	andi.   r9,r0,64
 18090b4:	41 82 00 3c 	beq-    18090f0 <uart0_transmit+0x48>
 18090b8:	3c e0 01 82 	lis     r7,386
 18090bc:	89 07 a4 9a 	lbz     r8,-23398(r7)
 18090c0:	3d 20 01 82 	lis     r9,386
 18090c4:	55 0a 06 3e 	clrlwi  r10,r8,24
 18090c8:	89 69 a4 9b 	lbz     r11,-23397(r9)
 18090cc:	38 0a 00 01 	addi    r0,r10,1
 18090d0:	7c 0b 00 00 	cmpw    r11,r0
 18090d4:	4d 82 00 20 	beqlr   
 18090d8:	3d 20 01 82 	lis     r9,386
 18090dc:	39 29 a6 b4 	addi    r9,r9,-22860
 18090e0:	38 08 00 01 	addi    r0,r8,1
 18090e4:	7c 69 51 ae 	stbx    r3,r9,r10
 18090e8:	98 07 a4 9a 	stb     r0,-23398(r7)
 18090ec:	4e 80 00 20 	blr
 18090f0:	39 20 00 2c 	li      r9,44
 18090f4:	98 69 00 00 	stb     r3,0(r9)
 18090f8:	88 0b 00 00 	lbz     r0,0(r11)
 18090fc:	60 00 00 40 	ori     r0,r0,64
 1809100:	98 0b 00 00 	stb     r0,0(r11)
 1809104:	4e 80 00 20 	blr

01809108 <uart1_transmit>:
 1809108:	39 60 00 9a 	li      r11,154
 180910c:	88 0b 00 00 	lbz     r0,0(r11)
 1809110:	70 09 00 40 	andi.   r9,r0,64
 1809114:	41 82 00 3c 	beq-    1809150 <uart1_transmit+0x48>
 1809118:	3c e0 01 82 	lis     r7,386
 180911c:	89 07 a4 9c 	lbz     r8,-23396(r7)
 1809120:	3d 20 01 82 	lis     r9,386
 1809124:	55 0a 06 3e 	clrlwi  r10,r8,24
 1809128:	89 69 a4 9d 	lbz     r11,-23395(r9)
 180912c:	38 0a 00 01 	addi    r0,r10,1
 1809130:	7c 0b 00 00 	cmpw    r11,r0
 1809134:	4d 82 00 20 	beqlr   
 1809138:	3d 20 01 82 	lis     r9,386
 180913c:	39 29 a7 b4 	addi    r9,r9,-22604
 1809140:	38 08 00 01 	addi    r0,r8,1
 1809144:	7c 69 51 ae 	stbx    r3,r9,r10
 1809148:	98 07 a4 9c 	stb     r0,-23396(r7)
 180914c:	4e 80 00 20 	blr
 1809150:	39 20 00 9c 	li      r9,156
 1809154:	98 69 00 00 	stb     r3,0(r9)
 1809158:	88 0b 00 00 	lbz     r0,0(r11)
 180915c:	60 00 00 40 	ori     r0,r0,64
 1809160:	98 0b 00 00 	stb     r0,0(r11)
 1809164:	4e 80 00 20 	blr

01809168 <uart0_print_string>:
 1809168:	94 21 ff f0 	stwu    r1,-16(r1)
 180916c:	7c 08 02 a6 	mflr    r0
 1809170:	93 c1 00 08 	stw     r30,8(r1)
 1809174:	93 e1 00 0c 	stw     r31,12(r1)
 1809178:	90 01 00 14 	stw     r0,20(r1)
 180917c:	7c 7e 1b 78 	mr      r30,r3
 1809180:	3b e0 00 00 	li      r31,0
 1809184:	48 00 00 10 	b       1809194 <uart0_print_string+0x2c>
 1809188:	4b ff ff 21 	bl      18090a8 <uart0_transmit>
 180918c:	38 1f 00 01 	addi    r0,r31,1
 1809190:	54 1f 06 3e 	clrlwi  r31,r0,24
 1809194:	7c 7e f8 ae 	lbzx    r3,r30,r31
 1809198:	2c 03 00 00 	cmpwi   r3,0
 180919c:	40 82 ff ec 	bne+    1809188 <uart0_print_string+0x20>
 18091a0:	80 01 00 14 	lwz     r0,20(r1)
 18091a4:	7c 08 03 a6 	mtlr    r0
 18091a8:	83 c1 00 08 	lwz     r30,8(r1)
 18091ac:	83 e1 00 0c 	lwz     r31,12(r1)
 18091b0:	38 21 00 10 	addi    r1,r1,16
 18091b4:	4e 80 00 20 	blr

018091b8 <uart0_print_hex>:
 18091b8:	94 21 ff d0 	stwu    r1,-48(r1)
 18091bc:	7c 08 02 a6 	mflr    r0
 18091c0:	93 81 00 20 	stw     r28,32(r1)
 18091c4:	93 a1 00 24 	stw     r29,36(r1)
 18091c8:	93 c1 00 28 	stw     r30,40(r1)
 18091cc:	93 e1 00 2c 	stw     r31,44(r1)
 18091d0:	90 01 00 34 	stw     r0,52(r1)
 18091d4:	3d 20 01 81 	lis     r9,385
 18091d8:	80 09 a1 58 	lwz     r0,-24232(r9)
 18091dc:	39 29 a1 58 	addi    r9,r9,-24232
 18091e0:	81 09 00 0c 	lwz     r8,12(r9)
 18091e4:	81 69 00 04 	lwz     r11,4(r9)
 18091e8:	81 49 00 08 	lwz     r10,8(r9)
 18091ec:	90 01 00 08 	stw     r0,8(r1)
 18091f0:	3b a1 00 08 	addi    r29,r1,8
 18091f4:	7c 7c 1b 78 	mr      r28,r3
 18091f8:	57 80 e1 3e 	rlwinm  r0,r28,28,4,31
 18091fc:	91 7d 00 04 	stw     r11,4(r29)
 1809200:	91 5d 00 08 	stw     r10,8(r29)
 1809204:	91 1d 00 0c 	stw     r8,12(r29)
 1809208:	7c 7d 00 ae 	lbzx    r3,r29,r0
 180920c:	57 9c 07 3e 	clrlwi  r28,r28,28
 1809210:	4b ff fe 99 	bl      18090a8 <uart0_transmit>
 1809214:	7c 7d e0 ae 	lbzx    r3,r29,r28
 1809218:	4b ff fe 91 	bl      18090a8 <uart0_transmit>
 180921c:	80 01 00 34 	lwz     r0,52(r1)
 1809220:	7c 08 03 a6 	mtlr    r0
 1809224:	83 81 00 20 	lwz     r28,32(r1)
 1809228:	83 a1 00 24 	lwz     r29,36(r1)
 180922c:	83 c1 00 28 	lwz     r30,40(r1)
 1809230:	83 e1 00 2c 	lwz     r31,44(r1)
 1809234:	38 21 00 30 	addi    r1,r1,48
 1809238:	4e 80 00 20 	blr

0180923c <__vector_20>:
 180923c:	3d 20 01 82 	lis     r9,386
 1809240:	3d 00 01 82 	lis     r8,386
 1809244:	89 69 a4 9a 	lbz     r11,-23398(r9)
 1809248:	88 08 a4 9b 	lbz     r0,-23397(r8)
 180924c:	7c 0b 00 00 	cmpw    r11,r0
 1809250:	40 82 00 18 	bne-    1809268 <__vector_20+0x2c>
 1809254:	39 20 00 2a 	li      r9,42
 1809258:	88 09 00 00 	lbz     r0,0(r9)
 180925c:	70 00 00 bf 	andi.   r0,r0,191
 1809260:	98 09 00 00 	stb     r0,0(r9)
 1809264:	4e 80 00 20 	blr
 1809268:	89 48 a4 9b 	lbz     r10,-23397(r8)
 180926c:	3d 20 01 82 	lis     r9,386
 1809270:	39 29 a6 b4 	addi    r9,r9,-22860
 1809274:	7c 09 50 ae 	lbzx    r0,r9,r10
 1809278:	39 60 00 2c 	li      r11,44
 180927c:	98 0b 00 00 	stb     r0,0(r11)
 1809280:	89 28 a4 9b 	lbz     r9,-23397(r8)
 1809284:	39 29 00 01 	addi    r9,r9,1
 1809288:	99 28 a4 9b 	stb     r9,-23397(r8)
 180928c:	4e 80 00 20 	blr

01809290 <__vector_32>:
 1809290:	3d 20 01 82 	lis     r9,386
 1809294:	3d 00 01 82 	lis     r8,386
 1809298:	89 69 a4 9c 	lbz     r11,-23396(r9)
 180929c:	88 08 a4 9d 	lbz     r0,-23395(r8)
 18092a0:	7c 0b 00 00 	cmpw    r11,r0
 18092a4:	40 82 00 18 	bne-    18092bc <__vector_32+0x2c>
 18092a8:	39 20 00 9a 	li      r9,154
 18092ac:	88 09 00 00 	lbz     r0,0(r9)
 18092b0:	70 00 00 bf 	andi.   r0,r0,191
 18092b4:	98 09 00 00 	stb     r0,0(r9)
 18092b8:	4e 80 00 20 	blr
 18092bc:	89 48 a4 9d 	lbz     r10,-23395(r8)
 18092c0:	3d 20 01 82 	lis     r9,386
 18092c4:	39 29 a7 b4 	addi    r9,r9,-22604
 18092c8:	7c 09 50 ae 	lbzx    r0,r9,r10
 18092cc:	39 60 00 9c 	li      r11,156
 18092d0:	98 0b 00 00 	stb     r0,0(r11)
 18092d4:	89 28 a4 9d 	lbz     r9,-23395(r8)
 18092d8:	39 29 00 01 	addi    r9,r9,1
 18092dc:	99 28 a4 9d 	stb     r9,-23395(r8)
 18092e0:	4e 80 00 20 	blr

018092e4 <uart0_init>:
 18092e4:	39 40 00 00 	li      r10,0
 18092e8:	39 20 00 90 	li      r9,144
 18092ec:	99 49 00 00 	stb     r10,0(r9)
 18092f0:	39 60 00 29 	li      r11,41
 18092f4:	38 00 00 19 	li      r0,25
 18092f8:	98 0b 00 00 	stb     r0,0(r11)
 18092fc:	39 20 00 2b 	li      r9,43
 1809300:	99 49 00 00 	stb     r10,0(r9)
 1809304:	39 60 00 2a 	li      r11,42
 1809308:	38 00 00 18 	li      r0,24
 180930c:	98 0b 00 00 	stb     r0,0(r11)
 1809310:	39 40 00 95 	li      r10,149
 1809314:	39 20 00 06 	li      r9,6
 1809318:	99 2a 00 00 	stb     r9,0(r10)
 180931c:	88 0b 00 00 	lbz     r0,0(r11)
 1809320:	60 00 00 80 	ori     r0,r0,128
 1809324:	98 0b 00 00 	stb     r0,0(r11)
 1809328:	4e 80 00 20 	blr

0180932c <uart1_init>:
 180932c:	39 40 00 00 	li      r10,0
 1809330:	39 20 00 98 	li      r9,152
 1809334:	99 49 00 00 	stb     r10,0(r9)
 1809338:	39 60 00 99 	li      r11,153
 180933c:	38 00 00 19 	li      r0,25
 1809340:	98 0b 00 00 	stb     r0,0(r11)
 1809344:	39 20 00 9b 	li      r9,155
 1809348:	99 49 00 00 	stb     r10,0(r9)
 180934c:	39 60 00 9a 	li      r11,154
 1809350:	38 00 00 18 	li      r0,24
 1809354:	98 0b 00 00 	stb     r0,0(r11)
 1809358:	39 40 00 9d 	li      r10,157
 180935c:	39 20 00 06 	li      r9,6
 1809360:	99 2a 00 00 	stb     r9,0(r10)
 1809364:	88 0b 00 00 	lbz     r0,0(r11)
 1809368:	60 00 00 80 	ori     r0,r0,128
 180936c:	98 0b 00 00 	stb     r0,0(r11)
 1809370:	4e 80 00 20 	blr

01809374 <estimator_init>:
 1809374:	94 21 ff d0 	stwu    r1,-48(r1)
 1809378:	93 01 00 10 	stw     r24,16(r1)
 180937c:	93 21 00 14 	stw     r25,20(r1)
 1809380:	93 41 00 18 	stw     r26,24(r1)
 1809384:	93 61 00 1c 	stw     r27,28(r1)
 1809388:	93 81 00 20 	stw     r28,32(r1)
 180938c:	93 a1 00 24 	stw     r29,36(r1)
 1809390:	93 c1 00 28 	stw     r30,40(r1)
 1809394:	93 e1 00 2c 	stw     r31,44(r1)
 1809398:	3d 20 01 82 	lis     r9,386
 180939c:	c0 09 a3 70 	lfs     f0,-23696(r9)
 18093a0:	38 00 00 00 	li      r0,0
 18093a4:	3c e0 01 82 	lis     r7,386
 18093a8:	3c c0 01 82 	lis     r6,386
 18093ac:	3c a0 01 82 	lis     r5,386
 18093b0:	3c 80 01 82 	lis     r4,386
 18093b4:	3c 60 01 82 	lis     r3,386
 18093b8:	3f a0 01 82 	lis     r29,386
 18093bc:	3f 80 01 82 	lis     r28,386
 18093c0:	3f 60 01 82 	lis     r27,386
 18093c4:	3f 40 01 82 	lis     r26,386
 18093c8:	3f 20 01 82 	lis     r25,386
 18093cc:	3f 00 01 82 	lis     r24,386
 18093d0:	3d 40 01 82 	lis     r10,386
 18093d4:	3d 00 01 82 	lis     r8,386
 18093d8:	39 20 00 00 	li      r9,0
 18093dc:	3d 60 01 82 	lis     r11,386
 18093e0:	90 0a a4 f4 	stw     r0,-23308(r10)
 18093e4:	b1 28 a4 b4 	sth     r9,-23372(r8)
 18093e8:	d0 0b a4 c8 	stfs    f0,-23352(r11)
 18093ec:	90 07 a4 e4 	stw     r0,-23324(r7)
 18093f0:	90 06 a4 f8 	stw     r0,-23304(r6)
 18093f4:	90 05 a4 c0 	stw     r0,-23360(r5)
 18093f8:	90 04 a4 d8 	stw     r0,-23336(r4)
 18093fc:	90 03 a4 bc 	stw     r0,-23364(r3)
 1809400:	90 1d a4 cc 	stw     r0,-23348(r29)
 1809404:	90 1c a4 d4 	stw     r0,-23340(r28)
 1809408:	90 1b a4 ec 	stw     r0,-23316(r27)
 180940c:	90 1a a4 b0 	stw     r0,-23376(r26)
 1809410:	90 19 a4 dc 	stw     r0,-23332(r25)
 1809414:	90 18 a4 b8 	stw     r0,-23368(r24)
 1809418:	83 01 00 10 	lwz     r24,16(r1)
 180941c:	83 21 00 14 	lwz     r25,20(r1)
 1809420:	83 41 00 18 	lwz     r26,24(r1)
 1809424:	83 61 00 1c 	lwz     r27,28(r1)
 1809428:	83 81 00 20 	lwz     r28,32(r1)
 180942c:	83 a1 00 24 	lwz     r29,36(r1)
 1809430:	83 c1 00 28 	lwz     r30,40(r1)
 1809434:	83 e1 00 2c 	lwz     r31,44(r1)
 1809438:	38 21 00 30 	addi    r1,r1,48
 180943c:	4e 80 00 20 	blr

01809440 <estimator_update_state_infrared>:
 1809440:	94 21 ff f0 	stwu    r1,-16(r1)
 1809444:	3d 20 01 82 	lis     r9,386
 1809448:	88 09 a3 49 	lbz     r0,-23735(r9)
 180944c:	2c 00 00 01 	cmpwi   r0,1
 1809450:	40 82 00 10 	bne-    1809460 <estimator_update_state_infrared+0x20>
 1809454:	3d 20 01 82 	lis     r9,386
 1809458:	c1 69 a4 c8 	lfs     f11,-23352(r9)
 180945c:	48 00 00 0c 	b       1809468 <estimator_update_state_infrared+0x28>
 1809460:	3d 20 01 82 	lis     r9,386
 1809464:	c1 69 a3 70 	lfs     f11,-23696(r9)
 1809468:	3d 20 01 82 	lis     r9,386
 180946c:	a8 09 a4 42 	lha     r0,-23486(r9)
 1809470:	6c 00 80 00 	xoris   r0,r0,32768
 1809474:	3d 20 01 82 	lis     r9,386
 1809478:	90 01 00 0c 	stw     r0,12(r1)
 180947c:	a9 69 a4 40 	lha     r11,-23488(r9)
 1809480:	3c 00 43 30 	lis     r0,17200
 1809484:	90 01 00 08 	stw     r0,8(r1)
 1809488:	7d 49 53 78 	mr      r9,r10
 180948c:	c9 a1 00 08 	lfd     f13,8(r1)
 1809490:	6d 6b 80 00 	xoris   r11,r11,32768
 1809494:	91 61 00 0c 	stw     r11,12(r1)
 1809498:	90 01 00 08 	stw     r0,8(r1)
 180949c:	c8 01 00 08 	lfd     f0,8(r1)
 18094a0:	3d 20 01 81 	lis     r9,385
 18094a4:	39 29 a1 68 	addi    r9,r9,-24216
 18094a8:	c9 89 00 00 	lfd     f12,0(r9)
 18094ac:	3d 60 01 82 	lis     r11,386
 18094b0:	3d 20 01 82 	lis     r9,386
 18094b4:	fd ad 60 28 	fsub    f13,f13,f12
 18094b8:	fc 00 60 28 	fsub    f0,f0,f12
 18094bc:	fd a0 68 18 	frsp    f13,f13
 18094c0:	fc 00 00 18 	frsp    f0,f0
 18094c4:	ed ab 03 72 	fmuls   f13,f11,f13
 18094c8:	ec 0b 00 32 	fmuls   f0,f11,f0
 18094cc:	d1 ab a4 d8 	stfs    f13,-23336(r11)
 18094d0:	d0 09 a4 cc 	stfs    f0,-23348(r9)
 18094d4:	38 21 00 10 	addi    r1,r1,16
 18094d8:	4e 80 00 20 	blr

018094dc <estimator_update_ir_estim>:
 18094dc:	94 21 ff f0 	stwu    r1,-16(r1)
 18094e0:	3d 40 01 82 	lis     r10,386
 18094e4:	88 0a a3 e0 	lbz     r0,-23584(r10)
 18094e8:	2c 00 00 00 	cmpwi   r0,0
 18094ec:	41 82 02 2c 	beq-    1809718 <estimator_update_ir_estim+0x23c>
 18094f0:	3d 20 01 82 	lis     r9,386
 18094f4:	3d 60 01 82 	lis     r11,386
 18094f8:	c1 89 a4 34 	lfs     f12,-23500(r9)
 18094fc:	c0 0b a4 a4 	lfs     f0,-23388(r11)
 1809500:	3d 20 01 81 	lis     r9,385
 1809504:	c9 a9 a1 70 	lfd     f13,-24208(r9)
 1809508:	ed 6c 00 28 	fsubs   f11,f12,f0
 180950c:	fc 00 58 90 	fmr     f0,f11
 1809510:	fc 00 68 00 	fcmpu   cr0,f0,f13
 1809514:	40 81 02 7c 	ble-    1809790 <estimator_update_ir_estim+0x2b4>
 1809518:	3d 20 01 82 	lis     r9,386
 180951c:	3d 60 01 82 	lis     r11,386
 1809520:	c1 a9 a4 ec 	lfs     f13,-23316(r9)
 1809524:	c0 0b a4 a0 	lfs     f0,-23392(r11)
 1809528:	3d 20 01 81 	lis     r9,385
 180952c:	ed 4d 00 28 	fsubs   f10,f13,f0
 1809530:	c9 a9 a1 78 	lfd     f13,-24200(r9)
 1809534:	fc 00 50 90 	fmr     f0,f10
 1809538:	fc 00 68 00 	fcmpu   cr0,f0,f13
 180953c:	40 81 00 20 	ble-    180955c <estimator_update_ir_estim+0x80>
 1809540:	3d 20 01 81 	lis     r9,385
 1809544:	c9 29 a1 80 	lfd     f9,-24192(r9)
 1809548:	fc 00 48 28 	fsub    f0,f0,f9
 180954c:	fd 40 00 18 	frsp    f10,f0
 1809550:	fc 00 50 90 	fmr     f0,f10
 1809554:	fc 00 68 00 	fcmpu   cr0,f0,f13
 1809558:	41 81 ff f0 	bgt+    1809548 <estimator_update_ir_estim+0x6c>
 180955c:	fc 00 50 90 	fmr     f0,f10
 1809560:	3d 20 01 81 	lis     r9,385
 1809564:	c9 a9 a1 88 	lfd     f13,-24184(r9)
 1809568:	fc 00 68 00 	fcmpu   cr0,f0,f13
 180956c:	40 80 00 20 	bge-    180958c <estimator_update_ir_estim+0xb0>
 1809570:	3d 20 01 81 	lis     r9,385
 1809574:	c9 29 a1 80 	lfd     f9,-24192(r9)
 1809578:	fc 00 48 2a 	fadd    f0,f0,f9
 180957c:	fd 40 00 18 	frsp    f10,f0
 1809580:	fc 00 50 90 	fmr     f0,f10
 1809584:	fc 00 68 00 	fcmpu   cr0,f0,f13
 1809588:	41 80 ff f0 	blt+    1809578 <estimator_update_ir_estim+0x9c>
 180958c:	ec 0a 58 24 	fdivs   f0,f10,f11
 1809590:	3d 20 01 81 	lis     r9,385
 1809594:	39 29 a1 a8 	addi    r9,r9,-24152
 1809598:	c9 89 00 00 	lfd     f12,0(r9)
 180959c:	3d 20 01 81 	lis     r9,385
 18095a0:	c9 a9 a1 90 	lfd     f13,-24176(r9)
 18095a4:	3d 60 01 81 	lis     r11,385
 18095a8:	c9 6b a1 78 	lfd     f11,-24200(r11)
 18095ac:	fc 00 03 32 	fmul    f0,f0,f12
 18095b0:	fc 00 68 24 	fdiv    f0,f0,f13
 18095b4:	fd 40 00 18 	frsp    f10,f0
 18095b8:	fc 00 50 90 	fmr     f0,f10
 18095bc:	fc 00 58 00 	fcmpu   cr0,f0,f11
 18095c0:	40 81 00 24 	ble-    18095e4 <estimator_update_ir_estim+0x108>
 18095c4:	3d 20 01 81 	lis     r9,385
 18095c8:	fd a0 58 90 	fmr     f13,f11
 18095cc:	c9 89 a1 80 	lfd     f12,-24192(r9)
 18095d0:	fc 00 60 28 	fsub    f0,f0,f12
 18095d4:	fd 40 00 18 	frsp    f10,f0
 18095d8:	fc 00 50 90 	fmr     f0,f10
 18095dc:	fc 00 68 00 	fcmpu   cr0,f0,f13
 18095e0:	41 81 ff f0 	bgt+    18095d0 <estimator_update_ir_estim+0xf4>
 18095e4:	fc 00 50 90 	fmr     f0,f10
 18095e8:	3d 20 01 81 	lis     r9,385
 18095ec:	c9 a9 a1 88 	lfd     f13,-24184(r9)
 18095f0:	fc 00 68 00 	fcmpu   cr0,f0,f13
 18095f4:	40 80 00 20 	bge-    1809614 <estimator_update_ir_estim+0x138>
 18095f8:	3d 20 01 81 	lis     r9,385
 18095fc:	c9 89 a1 80 	lfd     f12,-24192(r9)
 1809600:	fc 00 60 2a 	fadd    f0,f0,f12
 1809604:	fd 40 00 18 	frsp    f10,f0
 1809608:	fc 00 50 90 	fmr     f0,f10
 180960c:	fc 00 68 00 	fcmpu   cr0,f0,f13
 1809610:	41 80 ff f0 	blt+    1809600 <estimator_update_ir_estim+0x124>
 1809614:	3d 20 01 82 	lis     r9,386
 1809618:	fd 60 50 90 	fmr     f11,f10
 180961c:	a9 49 a4 42 	lha     r10,-23486(r9)
 1809620:	6d 40 80 00 	xoris   r0,r10,32768
 1809624:	90 01 00 0c 	stw     r0,12(r1)
 1809628:	3d 20 43 30 	lis     r9,17200
 180962c:	91 21 00 08 	stw     r9,8(r1)
 1809630:	3d 20 01 81 	lis     r9,385
 1809634:	39 29 a1 b0 	addi    r9,r9,-24144
 1809638:	c8 01 00 08 	lfd     f0,8(r1)
 180963c:	c9 a9 00 00 	lfd     f13,0(r9)
 1809640:	3d 20 01 81 	lis     r9,385
 1809644:	39 29 a1 b8 	addi    r9,r9,-24136
 1809648:	c9 89 00 00 	lfd     f12,0(r9)
 180964c:	fc 00 68 28 	fsub    f0,f0,f13
 1809650:	3d 60 01 82 	lis     r11,386
 1809654:	3d 20 01 82 	lis     r9,386
 1809658:	fc 0b 60 00 	fcmpu   cr0,f11,f12
 180965c:	fd 80 00 18 	frsp    f12,f0
 1809660:	d1 49 a4 e8 	stfs    f10,-23320(r9)
 1809664:	fc 00 50 90 	fmr     f0,f10
 1809668:	d1 8b a4 d0 	stfs    f12,-23344(r11)
 180966c:	40 80 00 08 	bge-    1809674 <estimator_update_ir_estim+0x198>
 1809670:	fc 00 50 50 	fneg    f0,f10
 1809674:	3d 20 01 81 	lis     r9,385
 1809678:	fd a0 00 90 	fmr     f13,f0
 180967c:	39 29 a1 c0 	addi    r9,r9,-24128
 1809680:	c8 09 00 00 	lfd     f0,0(r9)
 1809684:	fc 0d 00 00 	fcmpu   cr0,f13,f0
 1809688:	40 80 01 08 	bge-    1809790 <estimator_update_ir_estim+0x2b4>
 180968c:	3d 20 01 81 	lis     r9,385
 1809690:	c8 09 a1 98 	lfd     f0,-24168(r9)
 1809694:	fc 0d 00 00 	fcmpu   cr0,f13,f0
 1809698:	40 81 00 f8 	ble-    1809790 <estimator_update_ir_estim+0x2b4>
 180969c:	3d 20 01 82 	lis     r9,386
 18096a0:	a9 69 a3 68 	lha     r11,-23704(r9)
 18096a4:	7c 0b 00 d0 	neg     r0,r11
 18096a8:	54 09 0f fe 	rlwinm  r9,r0,1,31,31
 18096ac:	7c 00 4a 14 	add     r0,r0,r9
 18096b0:	7c 00 0e 70 	srawi   r0,r0,1
 18096b4:	7c 00 50 00 	cmpw    r0,r10
 18096b8:	40 80 00 d8 	bge-    1809790 <estimator_update_ir_estim+0x2b4>
 18096bc:	55 60 0f fe 	rlwinm  r0,r11,1,31,31
 18096c0:	7c 0b 02 14 	add     r0,r11,r0
 18096c4:	7c 00 0e 70 	srawi   r0,r0,1
 18096c8:	7c 0a 00 00 	cmpw    r10,r0
 18096cc:	40 80 00 c4 	bge-    1809790 <estimator_update_ir_estim+0x2b4>
 18096d0:	ed 6a 03 32 	fmuls   f11,f10,f12
 18096d4:	3d 60 01 82 	lis     r11,386
 18096d8:	3d 40 01 82 	lis     r10,386
 18096dc:	ed 8c 03 32 	fmuls   f12,f12,f12
 18096e0:	c0 0b a4 a8 	lfs     f0,-23384(r11)
 18096e4:	c1 aa a4 ac 	lfs     f13,-23380(r10)
 18096e8:	3d 20 01 81 	lis     r9,385
 18096ec:	c9 49 a1 a0 	lfd     f10,-24160(r9)
 18096f0:	3d 20 01 82 	lis     r9,386
 18096f4:	fc 00 5a ba 	fmadd   f0,f0,f10,f11
 18096f8:	fd ad 62 ba 	fmadd   f13,f13,f10,f12
 18096fc:	fc 00 00 18 	frsp    f0,f0
 1809700:	fd a0 68 18 	frsp    f13,f13
 1809704:	d0 0b a4 a8 	stfs    f0,-23384(r11)
 1809708:	ec 00 68 24 	fdivs   f0,f0,f13
 180970c:	d1 aa a4 ac 	stfs    f13,-23380(r10)
 1809710:	d0 09 a4 c8 	stfs    f0,-23352(r9)
 1809714:	48 00 00 7c 	b       1809790 <estimator_update_ir_estim+0x2b4>
 1809718:	3d 20 01 82 	lis     r9,386
 180971c:	a8 09 a3 68 	lha     r0,-23704(r9)
 1809720:	6c 00 80 00 	xoris   r0,r0,32768
 1809724:	90 01 00 0c 	stw     r0,12(r1)
 1809728:	3d 20 43 30 	lis     r9,17200
 180972c:	91 21 00 08 	stw     r9,8(r1)
 1809730:	3d 20 01 81 	lis     r9,385
 1809734:	39 29 a1 b0 	addi    r9,r9,-24144
 1809738:	c9 89 00 00 	lfd     f12,0(r9)
 180973c:	c8 01 00 08 	lfd     f0,8(r1)
 1809740:	3d 20 01 82 	lis     r9,386
 1809744:	c1 a9 a4 c8 	lfs     f13,-23352(r9)
 1809748:	fc 00 60 28 	fsub    f0,f0,f12
 180974c:	3d 20 01 81 	lis     r9,385
 1809750:	39 29 a1 c8 	addi    r9,r9,-24120
 1809754:	c9 69 00 00 	lfd     f11,0(r9)
 1809758:	38 00 00 01 	li      r0,1
 180975c:	fc 00 00 18 	frsp    f0,f0
 1809760:	3d 60 01 82 	lis     r11,386
 1809764:	3d 20 01 82 	lis     r9,386
 1809768:	fd ad 02 f2 	fmul    f13,f13,f11
 180976c:	98 0a a3 e0 	stb     r0,-23584(r10)
 1809770:	ec 00 00 32 	fmuls   f0,f0,f0
 1809774:	fd 80 00 90 	fmr     f12,f0
 1809778:	fd 6c 02 f2 	fmul    f11,f12,f11
 180977c:	fd ad 03 32 	fmul    f13,f13,f12
 1809780:	fd 60 58 18 	frsp    f11,f11
 1809784:	fd a0 68 18 	frsp    f13,f13
 1809788:	d1 69 a4 ac 	stfs    f11,-23380(r9)
 180978c:	d1 ab a4 a8 	stfs    f13,-23384(r11)
 1809790:	3d 20 01 82 	lis     r9,386
 1809794:	3d 60 01 82 	lis     r11,386
 1809798:	c0 09 a4 ec 	lfs     f0,-23316(r9)
 180979c:	c1 ab a4 34 	lfs     f13,-23500(r11)
 18097a0:	3d 20 01 82 	lis     r9,386
 18097a4:	3d 60 01 82 	lis     r11,386
 18097a8:	d0 09 a4 a0 	stfs    f0,-23392(r9)
 18097ac:	d1 ab a4 a4 	stfs    f13,-23388(r11)
 18097b0:	38 21 00 10 	addi    r1,r1,16
 18097b4:	4e 80 00 20 	blr

018097b8 <estimator_update_state_gps>:
 18097b8:	94 21 ff f0 	stwu    r1,-16(r1)
 18097bc:	7c 08 02 a6 	mflr    r0
 18097c0:	90 01 00 14 	stw     r0,20(r1)
 18097c4:	3d 20 01 82 	lis     r9,386
 18097c8:	88 09 a4 38 	lbz     r0,-23496(r9)
 18097cc:	2c 00 00 03 	cmpwi   r0,3
 18097d0:	40 82 00 78 	bne-    1809848 <estimator_update_state_gps+0x90>
 18097d4:	3d 20 01 82 	lis     r9,386
 18097d8:	a0 09 a4 b4 	lhz     r0,-23372(r9)
 18097dc:	3d 60 01 82 	lis     r11,386
 18097e0:	3d 20 01 82 	lis     r9,386
 18097e4:	3d 40 01 82 	lis     r10,386
 18097e8:	3d 00 01 82 	lis     r8,386
 18097ec:	3c e0 01 82 	lis     r7,386
 18097f0:	3c c0 01 82 	lis     r6,386
 18097f4:	c0 0b a4 10 	lfs     f0,-23536(r11)
 18097f8:	c1 a9 a4 1c 	lfs     f13,-23524(r9)
 18097fc:	c1 8a a4 14 	lfs     f12,-23532(r10)
 1809800:	c1 68 a4 2c 	lfs     f11,-23508(r8)
 1809804:	c1 47 a4 28 	lfs     f10,-23512(r7)
 1809808:	c1 26 a4 3c 	lfs     f9,-23492(r6)
 180980c:	2c 00 00 00 	cmpwi   r0,0
 1809810:	3d 20 01 82 	lis     r9,386
 1809814:	3d 60 01 82 	lis     r11,386
 1809818:	3d 40 01 82 	lis     r10,386
 180981c:	3d 00 01 82 	lis     r8,386
 1809820:	3c e0 01 82 	lis     r7,386
 1809824:	3c c0 01 82 	lis     r6,386
 1809828:	d0 09 a4 e4 	stfs    f0,-23324(r9)
 180982c:	d1 ab a4 f8 	stfs    f13,-23304(r11)
 1809830:	d1 8a a4 c0 	stfs    f12,-23360(r10)
 1809834:	d1 68 a4 d4 	stfs    f11,-23340(r8)
 1809838:	d1 47 a4 ec 	stfs    f10,-23316(r7)
 180983c:	d1 26 a4 b0 	stfs    f9,-23376(r6)
 1809840:	41 82 00 08 	beq-    1809848 <estimator_update_state_gps+0x90>
 1809844:	4b ff fc 99 	bl      18094dc <estimator_update_ir_estim>
 1809848:	80 01 00 14 	lwz     r0,20(r1)
 180984c:	7c 08 03 a6 	mtlr    r0
 1809850:	38 21 00 10 	addi    r1,r1,16
 1809854:	4e 80 00 20 	blr

01809858 <estimator_propagate_state>:
 1809858:	4e 80 00 20 	blr

0180985c <inflight_calib>:
 180985c:	94 21 ff f0 	stwu    r1,-16(r1)
 1809860:	3d 20 01 82 	lis     r9,386
 1809864:	88 09 a3 46 	lbz     r0,-23738(r9)
 1809868:	2c 00 00 01 	cmpwi   r0,1
 180986c:	40 82 01 90 	bne-    18099fc <inflight_calib+0x1a0>
 1809870:	3d 20 01 82 	lis     r9,386
 1809874:	88 09 a3 e1 	lbz     r0,-23583(r9)
 1809878:	2c 00 00 02 	cmpwi   r0,2
 180987c:	40 82 01 80 	bne-    18099fc <inflight_calib+0x1a0>
 1809880:	2c 03 00 00 	cmpwi   r3,0
 1809884:	3d 00 01 82 	lis     r8,386
 1809888:	3d 60 01 82 	lis     r11,386
 180988c:	41 82 00 20 	beq-    18098ac <inflight_calib+0x50>
 1809890:	3d 20 01 82 	lis     r9,386
 1809894:	39 6b a9 ca 	addi    r11,r11,-22070
 1809898:	a0 09 a3 6c 	lhz     r0,-23700(r9)
 180989c:	a1 4b 00 0a 	lhz     r10,10(r11)
 18098a0:	3d 20 01 82 	lis     r9,386
 18098a4:	b0 09 a4 fc 	sth     r0,-23300(r9)
 18098a8:	b1 48 a5 08 	sth     r10,-23288(r8)
 18098ac:	3d 60 01 82 	lis     r11,386
 18098b0:	38 cb a9 ca 	addi    r6,r11,-22070
 18098b4:	3d 20 01 82 	lis     r9,386
 18098b8:	a9 69 a5 08 	lha     r11,-23288(r9)
 18098bc:	a8 06 00 0a 	lha     r0,10(r6)
 18098c0:	7c 0b 00 50 	subf    r0,r11,r0
 18098c4:	6c 00 80 00 	xoris   r0,r0,32768
 18098c8:	90 01 00 0c 	stw     r0,12(r1)
 18098cc:	3c a0 43 30 	lis     r5,17200
 18098d0:	90 a1 00 08 	stw     r5,8(r1)
 18098d4:	c9 a1 00 08 	lfd     f13,8(r1)
 18098d8:	3d 20 01 81 	lis     r9,385
 18098dc:	39 29 a1 e8 	addi    r9,r9,-24088
 18098e0:	c9 49 00 00 	lfd     f10,0(r9)
 18098e4:	3d 20 01 81 	lis     r9,385
 18098e8:	39 29 a1 f0 	addi    r9,r9,-24080
 18098ec:	fd ad 50 28 	fsub    f13,f13,f10
 18098f0:	c9 69 00 00 	lfd     f11,0(r9)
 18098f4:	3d 20 01 81 	lis     r9,385
 18098f8:	c9 29 a1 d0 	lfd     f9,-24112(r9)
 18098fc:	fd a0 68 18 	frsp    f13,f13
 1809900:	7d 68 5b 78 	mr      r8,r11
 1809904:	3d 20 01 82 	lis     r9,386
 1809908:	a1 49 a4 fc 	lhz     r10,-23300(r9)
 180990c:	3d 20 01 82 	lis     r9,386
 1809910:	fc 00 68 90 	fmr     f0,f13
 1809914:	3c e0 01 82 	lis     r7,386
 1809918:	3c 80 01 82 	lis     r4,386
 180991c:	fc 00 02 f2 	fmul    f0,f0,f11
 1809920:	fc 00 48 24 	fdiv    f0,f0,f9
 1809924:	fd 80 00 1e 	fctiwz  f12,f0
 1809928:	d9 81 00 08 	stfd    f12,8(r1)
 180992c:	81 61 00 0c 	lwz     r11,12(r1)
 1809930:	7d 4a 5a 14 	add     r10,r10,r11
 1809934:	7d 40 07 34 	extsh   r0,r10
 1809938:	6c 00 80 00 	xoris   r0,r0,32768
 180993c:	90 01 00 0c 	stw     r0,12(r1)
 1809940:	90 a1 00 08 	stw     r5,8(r1)
 1809944:	c8 01 00 08 	lfd     f0,8(r1)
 1809948:	b1 49 a3 6c 	sth     r10,-23700(r9)
 180994c:	fc 00 50 28 	fsub    f0,f0,f10
 1809950:	fc 00 00 18 	frsp    f0,f0
 1809954:	d0 07 a3 f0 	stfs    f0,-23568(r7)
 1809958:	41 82 00 1c 	beq-    1809974 <inflight_calib+0x118>
 180995c:	3d 20 01 82 	lis     r9,386
 1809960:	a0 09 a3 6a 	lhz     r0,-23702(r9)
 1809964:	a1 66 00 0c 	lhz     r11,12(r6)
 1809968:	3d 20 01 82 	lis     r9,386
 180996c:	b0 09 a4 fe 	sth     r0,-23298(r9)
 1809970:	b1 64 a5 0a 	sth     r11,-23286(r4)
 1809974:	3d 40 01 82 	lis     r10,386
 1809978:	a8 06 00 0c 	lha     r0,12(r6)
 180997c:	a9 6a a5 0a 	lha     r11,-23286(r10)
 1809980:	7c 0b 00 50 	subf    r0,r11,r0
 1809984:	6c 00 80 00 	xoris   r0,r0,32768
 1809988:	90 01 00 0c 	stw     r0,12(r1)
 180998c:	90 a1 00 08 	stw     r5,8(r1)
 1809990:	c9 a1 00 08 	lfd     f13,8(r1)
 1809994:	3d 20 01 81 	lis     r9,385
 1809998:	39 29 a1 f8 	addi    r9,r9,-24072
 180999c:	fd ad 50 28 	fsub    f13,f13,f10
 18099a0:	c9 69 00 00 	lfd     f11,0(r9)
 18099a4:	7d 68 5b 78 	mr      r8,r11
 18099a8:	3d 20 01 82 	lis     r9,386
 18099ac:	fd a0 68 18 	frsp    f13,f13
 18099b0:	a1 49 a4 fe 	lhz     r10,-23298(r9)
 18099b4:	3d 20 01 82 	lis     r9,386
 18099b8:	3c e0 01 82 	lis     r7,386
 18099bc:	fc 00 68 90 	fmr     f0,f13
 18099c0:	fc 00 02 f2 	fmul    f0,f0,f11
 18099c4:	fc 00 48 24 	fdiv    f0,f0,f9
 18099c8:	fd 80 00 1e 	fctiwz  f12,f0
 18099cc:	d9 81 00 08 	stfd    f12,8(r1)
 18099d0:	81 61 00 0c 	lwz     r11,12(r1)
 18099d4:	7d 4a 5a 14 	add     r10,r10,r11
 18099d8:	7d 40 07 34 	extsh   r0,r10
 18099dc:	6c 00 80 00 	xoris   r0,r0,32768
 18099e0:	90 01 00 0c 	stw     r0,12(r1)
 18099e4:	90 a1 00 08 	stw     r5,8(r1)
 18099e8:	c8 01 00 08 	lfd     f0,8(r1)
 18099ec:	b1 49 a3 6a 	sth     r10,-23702(r9)
 18099f0:	fc 00 50 28 	fsub    f0,f0,f10
 18099f4:	fc 00 00 18 	frsp    f0,f0
 18099f8:	d0 07 a3 ec 	stfs    f0,-23572(r7)
 18099fc:	3d 20 01 82 	lis     r9,386
 1809a00:	88 09 a3 46 	lbz     r0,-23738(r9)
 1809a04:	2c 00 00 02 	cmpwi   r0,2
 1809a08:	40 82 01 38 	bne-    1809b40 <inflight_calib+0x2e4>
 1809a0c:	3d 20 01 82 	lis     r9,386
 1809a10:	88 09 a3 e1 	lbz     r0,-23583(r9)
 1809a14:	2c 00 00 02 	cmpwi   r0,2
 1809a18:	40 82 01 28 	bne-    1809b40 <inflight_calib+0x2e4>
 1809a1c:	2c 03 00 00 	cmpwi   r3,0
 1809a20:	3d 00 01 82 	lis     r8,386
 1809a24:	3d 60 01 82 	lis     r11,386
 1809a28:	41 82 00 20 	beq-    1809a48 <inflight_calib+0x1ec>
 1809a2c:	3d 20 01 82 	lis     r9,386
 1809a30:	c0 09 a3 90 	lfs     f0,-23664(r9)
 1809a34:	39 6b a9 ca 	addi    r11,r11,-22070
 1809a38:	a0 0b 00 0a 	lhz     r0,10(r11)
 1809a3c:	3d 20 01 82 	lis     r9,386
 1809a40:	d0 09 a5 00 	stfs    f0,-23296(r9)
 1809a44:	b0 08 a5 08 	sth     r0,-23288(r8)
 1809a48:	3d 20 01 82 	lis     r9,386
 1809a4c:	39 09 a9 ca 	addi    r8,r9,-22070
 1809a50:	3d 60 01 82 	lis     r11,386
 1809a54:	a9 4b a5 08 	lha     r10,-23288(r11)
 1809a58:	a8 08 00 0a 	lha     r0,10(r8)
 1809a5c:	7c 0a 00 50 	subf    r0,r10,r0
 1809a60:	6c 00 80 00 	xoris   r0,r0,32768
 1809a64:	90 01 00 0c 	stw     r0,12(r1)
 1809a68:	3c e0 43 30 	lis     r7,17200
 1809a6c:	90 e1 00 08 	stw     r7,8(r1)
 1809a70:	c9 81 00 08 	lfd     f12,8(r1)
 1809a74:	3d 20 01 81 	lis     r9,385
 1809a78:	39 29 a1 e8 	addi    r9,r9,-24088
 1809a7c:	c9 49 00 00 	lfd     f10,0(r9)
 1809a80:	3d 60 01 81 	lis     r11,385
 1809a84:	c9 6b a1 d8 	lfd     f11,-24104(r11)
 1809a88:	fd 8c 50 28 	fsub    f12,f12,f10
 1809a8c:	3d 20 01 81 	lis     r9,385
 1809a90:	c9 29 a1 d0 	lfd     f9,-24112(r9)
 1809a94:	3d 60 01 82 	lis     r11,386
 1809a98:	c1 ab a5 00 	lfs     f13,-23296(r11)
 1809a9c:	fd 80 60 18 	frsp    f12,f12
 1809aa0:	3d 40 01 82 	lis     r10,386
 1809aa4:	3d 20 01 82 	lis     r9,386
 1809aa8:	3c 80 01 82 	lis     r4,386
 1809aac:	fc 00 60 90 	fmr     f0,f12
 1809ab0:	fc 00 02 f2 	fmul    f0,f0,f11
 1809ab4:	fc 00 48 24 	fdiv    f0,f0,f9
 1809ab8:	fd ad 00 2a 	fadd    f13,f13,f0
 1809abc:	fd a0 68 18 	frsp    f13,f13
 1809ac0:	d1 a9 a3 f0 	stfs    f13,-23568(r9)
 1809ac4:	d1 aa a3 90 	stfs    f13,-23664(r10)
 1809ac8:	41 82 00 1c 	beq-    1809ae4 <inflight_calib+0x288>
 1809acc:	3d 20 01 82 	lis     r9,386
 1809ad0:	c0 09 a3 98 	lfs     f0,-23656(r9)
 1809ad4:	a0 08 00 0c 	lhz     r0,12(r8)
 1809ad8:	3d 20 01 82 	lis     r9,386
 1809adc:	d0 09 a5 04 	stfs    f0,-23292(r9)
 1809ae0:	b0 04 a5 0a 	sth     r0,-23286(r4)
 1809ae4:	3d 20 01 82 	lis     r9,386
 1809ae8:	a8 08 00 0c 	lha     r0,12(r8)
 1809aec:	a9 49 a5 0a 	lha     r10,-23286(r9)
 1809af0:	7c 0a 00 50 	subf    r0,r10,r0
 1809af4:	6c 00 80 00 	xoris   r0,r0,32768
 1809af8:	90 01 00 0c 	stw     r0,12(r1)
 1809afc:	90 e1 00 08 	stw     r7,8(r1)
 1809b00:	c9 81 00 08 	lfd     f12,8(r1)
 1809b04:	3d 20 01 81 	lis     r9,385
 1809b08:	c9 69 a1 e0 	lfd     f11,-24096(r9)
 1809b0c:	fd 8c 50 28 	fsub    f12,f12,f10
 1809b10:	3d 20 01 82 	lis     r9,386
 1809b14:	c1 a9 a5 04 	lfs     f13,-23292(r9)
 1809b18:	3d 60 01 82 	lis     r11,386
 1809b1c:	3d 20 01 82 	lis     r9,386
 1809b20:	fd 80 60 18 	frsp    f12,f12
 1809b24:	fc 00 60 90 	fmr     f0,f12
 1809b28:	fc 00 02 f2 	fmul    f0,f0,f11
 1809b2c:	fc 00 48 24 	fdiv    f0,f0,f9
 1809b30:	fd ad 00 2a 	fadd    f13,f13,f0
 1809b34:	fd a0 68 18 	frsp    f13,f13
 1809b38:	d1 a9 a3 ec 	stfs    f13,-23572(r9)
 1809b3c:	d1 ab a3 98 	stfs    f13,-23656(r11)
 1809b40:	38 21 00 10 	addi    r1,r1,16
 1809b44:	4e 80 00 20 	blr

01809b48 <main>:
 1809b48:	94 21 ff e0 	stwu    r1,-32(r1)
 1809b4c:	7c 08 02 a6 	mflr    r0
 1809b50:	93 41 00 08 	stw     r26,8(r1)
 1809b54:	93 61 00 0c 	stw     r27,12(r1)
 1809b58:	93 81 00 10 	stw     r28,16(r1)
 1809b5c:	93 a1 00 14 	stw     r29,20(r1)
 1809b60:	93 c1 00 18 	stw     r30,24(r1)
 1809b64:	93 e1 00 1c 	stw     r31,28(r1)
 1809b68:	90 01 00 24 	stw     r0,36(r1)
 1809b6c:	39 20 00 4f 	li      r9,79
 1809b70:	38 00 00 00 	li      r0,0
 1809b74:	98 09 00 00 	stb     r0,0(r9)
 1809b78:	39 60 00 4e 	li      r11,78
 1809b7c:	38 00 00 01 	li      r0,1
 1809b80:	98 0b 00 00 	stb     r0,0(r11)
 1809b84:	39 20 00 45 	li      r9,69
 1809b88:	38 00 00 05 	li      r0,5
 1809b8c:	98 09 00 00 	stb     r0,0(r9)
 1809b90:	4b ff cb 01 	bl      1806690 <modem_init>
 1809b94:	3f 40 01 82 	lis     r26,386
 1809b98:	4b ff cf 45 	bl      1806adc <adc_init>
 1809b9c:	4b ff ce 85 	bl      1806a20 <spi_init>
 1809ba0:	4b ff cc 61 	bl      1806800 <link_fbw_init>
 1809ba4:	4b ff d0 59 	bl      1806bfc <gps_init>
 1809ba8:	4b ff f4 69 	bl      1809010 <nav_init>
 1809bac:	4b ff d4 e9 	bl      1807094 <ir_init>
 1809bb0:	4b ff f7 c5 	bl      1809374 <estimator_init>
 1809bb4:	39 40 00 56 	li      r10,86
 1809bb8:	39 00 00 40 	li      r8,64
 1809bbc:	39 60 00 1e 	li      r11,30
 1809bc0:	88 0a 00 00 	lbz     r0,0(r10)
 1809bc4:	39 20 00 00 	li      r9,0
 1809bc8:	70 07 00 40 	andi.   r7,r0,64
 1809bcc:	38 0b ff ff 	addi    r0,r11,-1
 1809bd0:	41 82 00 0c 	beq-    1809bdc <main+0x94>
 1809bd4:	99 0a 00 00 	stb     r8,0(r10)
 1809bd8:	39 20 00 01 	li      r9,1
 1809bdc:	2c 09 00 00 	cmpwi   r9,0
 1809be0:	41 82 00 08 	beq-    1809be8 <main+0xa0>
 1809be4:	54 0b 06 3e 	clrlwi  r11,r0,24
 1809be8:	2c 0b 00 00 	cmpwi   r11,0
 1809bec:	40 82 ff d4 	bne+    1809bc0 <main+0x78>
 1809bf0:	3b e0 00 56 	li      r31,86
 1809bf4:	3b 60 00 40 	li      r27,64
 1809bf8:	3f 80 01 82 	lis     r28,386
 1809bfc:	3f a0 01 82 	lis     r29,386
 1809c00:	3b c0 00 00 	li      r30,0
 1809c04:	88 1f 00 00 	lbz     r0,0(r31)
 1809c08:	39 20 00 00 	li      r9,0
 1809c0c:	70 0b 00 40 	andi.   r11,r0,64
 1809c10:	41 82 00 0c 	beq-    1809c1c <main+0xd4>
 1809c14:	9b 7f 00 00 	stb     r27,0(r31)
 1809c18:	39 20 00 01 	li      r9,1
 1809c1c:	2c 09 00 00 	cmpwi   r9,0
 1809c20:	41 82 00 08 	beq-    1809c28 <main+0xe0>
 1809c24:	4b ff ab 91 	bl      18047b4 <periodic_task>
 1809c28:	88 1c a4 18 	lbz     r0,-23528(r28)
 1809c2c:	2c 00 00 00 	cmpwi   r0,0
 1809c30:	41 82 00 14 	beq-    1809c44 <main+0xfc>
 1809c34:	4b ff cf f5 	bl      1806c28 <parse_gps_msg>
 1809c38:	4b ff ae dd 	bl      1804b14 <send_gps_pos>
 1809c3c:	4b ff b7 d5 	bl      1805410 <send_radIR>
 1809c40:	4b ff bd 89 	bl      18059c8 <send_takeOff>
 1809c44:	88 1d a3 5c 	lbz     r0,-23716(r29)
 1809c48:	2c 00 00 00 	cmpwi   r0,0
 1809c4c:	41 82 ff b8 	beq+    1809c04 <main+0xbc>
 1809c50:	9b da a3 5c 	stb     r30,-23716(r26)
 1809c54:	4b ff 92 3d 	bl      1802e90 <radio_control_task>
 1809c58:	4b ff ff ac 	b       1809c04 <main+0xbc>

01809c5c <pp_atan2>:
 1809c5c:	3d 20 01 81 	lis     r9,385
 1809c60:	fd 80 08 90 	fmr     f12,f1
 1809c64:	39 29 a2 10 	addi    r9,r9,-24048
 1809c68:	c9 a9 00 00 	lfd     f13,0(r9)
 1809c6c:	3d 20 01 81 	lis     r9,385
 1809c70:	c9 69 a2 00 	lfd     f11,-24064(r9)
 1809c74:	3d 20 01 81 	lis     r9,385
 1809c78:	39 29 a2 18 	addi    r9,r9,-24040
 1809c7c:	fc 02 68 00 	fcmpu   cr0,f2,f13
 1809c80:	c8 09 00 00 	lfd     f0,0(r9)
 1809c84:	fd 4b 00 32 	fmul    f10,f11,f0
 1809c88:	40 80 00 18 	bge-    1809ca0 <pp_atan2+0x44>
 1809c8c:	fd a0 10 50 	fneg    f13,f2
 1809c90:	3d 20 01 81 	lis     r9,385
 1809c94:	c8 09 a2 08 	lfd     f0,-24056(r9)
 1809c98:	fc 2d 00 2a 	fadd    f1,f13,f0
 1809c9c:	48 00 00 10 	b       1809cac <pp_atan2+0x50>
 1809ca0:	3d 20 01 81 	lis     r9,385
 1809ca4:	c8 09 a2 08 	lfd     f0,-24056(r9)
 1809ca8:	fc 22 00 2a 	fadd    f1,f2,f0
 1809cac:	3d 20 01 81 	lis     r9,385
 1809cb0:	39 29 a2 10 	addi    r9,r9,-24048
 1809cb4:	c8 09 00 00 	lfd     f0,0(r9)
 1809cb8:	fc 0c 00 00 	fcmpu   cr0,f12,f0
 1809cbc:	40 81 00 1c 	ble-    1809cd8 <pp_atan2+0x7c>
 1809cc0:	fc 0c 08 2a 	fadd    f0,f12,f1
 1809cc4:	fd ac 08 28 	fsub    f13,f12,f1
 1809cc8:	fc 0d 00 24 	fdiv    f0,f13,f0
 1809ccc:	fd 8b 00 32 	fmul    f12,f11,f0
 1809cd0:	fc 2b 60 28 	fsub    f1,f11,f12
 1809cd4:	48 00 00 18 	b       1809cec <pp_atan2+0x90>
 1809cd8:	fc 01 60 28 	fsub    f0,f1,f12
 1809cdc:	fd ac 08 2a 	fadd    f13,f12,f1
 1809ce0:	fc 0d 00 24 	fdiv    f0,f13,f0
 1809ce4:	fd 8b 00 32 	fmul    f12,f11,f0
 1809ce8:	fc 2a 60 28 	fsub    f1,f10,f12
 1809cec:	3d 20 01 81 	lis     r9,385
 1809cf0:	39 29 a2 10 	addi    r9,r9,-24048
 1809cf4:	c8 09 00 00 	lfd     f0,0(r9)
 1809cf8:	fc 02 00 00 	fcmpu   cr0,f2,f0
 1809cfc:	4c 80 00 20 	bgelr   
 1809d00:	fc 20 08 50 	fneg    f1,f1
 1809d04:	4e 80 00 20 	blr

01809d08 <pp_sin>:
 1809d08:	3d 20 01 81 	lis     r9,385
 1809d0c:	c8 09 a2 20 	lfd     f0,-24032(r9)
 1809d10:	38 00 00 01 	li      r0,1
 1809d14:	fc 01 00 00 	fcmpu   cr0,f1,f0
 1809d18:	40 80 00 18 	bge-    1809d30 <pp_sin+0x28>
 1809d1c:	3d 20 01 81 	lis     r9,385
 1809d20:	c9 a9 a2 28 	lfd     f13,-24024(r9)
 1809d24:	fc 21 68 2a 	fadd    f1,f1,f13
 1809d28:	fc 01 00 00 	fcmpu   cr0,f1,f0
 1809d2c:	41 80 ff f8 	blt+    1809d24 <pp_sin+0x1c>
 1809d30:	3d 20 01 81 	lis     r9,385
 1809d34:	c8 09 a2 30 	lfd     f0,-24016(r9)
 1809d38:	fc 01 00 00 	fcmpu   cr0,f1,f0
 1809d3c:	40 81 00 18 	ble-    1809d54 <pp_sin+0x4c>
 1809d40:	3d 20 01 81 	lis     r9,385
 1809d44:	c9 a9 a2 28 	lfd     f13,-24024(r9)
 1809d48:	fc 21 68 28 	fsub    f1,f1,f13
 1809d4c:	fc 01 00 00 	fcmpu   cr0,f1,f0
 1809d50:	41 81 ff f8 	bgt+    1809d48 <pp_sin+0x40>
 1809d54:	3d 20 01 81 	lis     r9,385
 1809d58:	c8 09 a2 38 	lfd     f0,-24008(r9)
 1809d5c:	fc 01 00 00 	fcmpu   cr0,f1,f0
 1809d60:	40 81 00 14 	ble-    1809d74 <pp_sin+0x6c>
 1809d64:	3d 20 01 81 	lis     r9,385
 1809d68:	c8 09 a2 40 	lfd     f0,-24000(r9)
 1809d6c:	38 00 ff ff 	li      r0,-1
 1809d70:	fc 21 00 28 	fsub    f1,f1,f0
 1809d74:	3d 20 01 81 	lis     r9,385
 1809d78:	c9 89 a2 48 	lfd     f12,-23992(r9)
 1809d7c:	3d 60 01 81 	lis     r11,385
 1809d80:	3d 40 01 81 	lis     r10,385
 1809d84:	fd 81 60 24 	fdiv    f12,f1,f12
 1809d88:	c9 0b a2 58 	lfd     f8,-23976(r11)
 1809d8c:	c9 aa a2 50 	lfd     f13,-23984(r10)
 1809d90:	3d 20 01 81 	lis     r9,385
 1809d94:	c9 29 a2 60 	lfd     f9,-23968(r9)
 1809d98:	3d 60 01 81 	lis     r11,385
 1809d9c:	c9 4b a2 68 	lfd     f10,-23960(r11)
 1809da0:	3d 20 01 81 	lis     r9,385
 1809da4:	c9 69 a2 70 	lfd     f11,-23952(r9)
 1809da8:	2c 00 00 00 	cmpwi   r0,0
 1809dac:	fc 0c 03 32 	fmul    f0,f12,f12
 1809db0:	fd a0 43 78 	fmsub   f13,f0,f13,f8
 1809db4:	fd ad 48 3a 	fmadd   f13,f13,f0,f9
 1809db8:	fd ad 50 38 	fmsub   f13,f13,f0,f10
 1809dbc:	fd ad 58 3a 	fmadd   f13,f13,f0,f11
 1809dc0:	fc 2d 03 32 	fmul    f1,f13,f12
 1809dc4:	4c 80 00 20 	bgelr   
 1809dc8:	fc 20 08 50 	fneg    f1,f1
 1809dcc:	4e 80 00 20 	blr

01809dd0 <pp_sqrt>:
 1809dd0:	94 21 ff e0 	stwu    r1,-32(r1)
 1809dd4:	39 41 00 08 	addi    r10,r1,8
 1809dd8:	81 2a 00 0c 	lwz     r9,12(r10)
 1809ddc:	3c 00 ff ff 	lis     r0,-1
 1809de0:	71 2b 00 10 	andi.   r11,r9,16
 1809de4:	60 00 7f f0 	ori     r0,r0,32752
 1809de8:	d8 21 00 08 	stfd    f1,8(r1)
 1809dec:	7d 28 00 38 	and     r8,r9,r0
 1809df0:	41 82 00 10 	beq-    1809e00 <pp_sqrt+0x30>
 1809df4:	3d 20 01 81 	lis     r9,385
 1809df8:	c9 49 a2 78 	lfd     f10,-23944(r9)
 1809dfc:	48 00 00 10 	b       1809e0c <pp_sqrt+0x3c>
 1809e00:	3d 20 01 81 	lis     r9,385
 1809e04:	39 29 a2 d8 	addi    r9,r9,-23848
 1809e08:	c9 49 00 00 	lfd     f10,0(r9)
 1809e0c:	3d 20 01 81 	lis     r9,385
 1809e10:	c8 09 a2 80 	lfd     f0,-23936(r9)
 1809e14:	c9 8a 00 00 	lfd     f12,0(r10)
 1809e18:	80 0a 00 0c 	lwz     r0,12(r10)
 1809e1c:	39 68 c0 20 	addi    r11,r8,-16352
 1809e20:	fc 0c 00 00 	fcmpu   cr0,f12,f0
 1809e24:	3d 20 ff ff 	lis     r9,-1
 1809e28:	54 00 07 1e 	rlwinm  r0,r0,0,28,15
 1809e2c:	55 68 f8 7e 	rlwinm  r8,r11,31,1,31
 1809e30:	60 00 3f e0 	ori     r0,r0,16352
 1809e34:	61 29 7f f0 	ori     r9,r9,32752
 1809e38:	90 0a 00 0c 	stw     r0,12(r10)
 1809e3c:	7d 08 48 38 	and     r8,r8,r9
 1809e40:	40 80 00 3c 	bge-    1809e7c <pp_sqrt+0xac>
 1809e44:	3d 20 01 81 	lis     r9,385
 1809e48:	3d 60 01 81 	lis     r11,385
 1809e4c:	c8 09 a2 88 	lfd     f0,-23928(r9)
 1809e50:	39 6b a2 d8 	addi    r11,r11,-23848
 1809e54:	c9 ab 00 00 	lfd     f13,0(r11)
 1809e58:	fc 0c 00 32 	fmul    f0,f12,f0
 1809e5c:	fc 0a 68 00 	fcmpu   cr0,f10,f13
 1809e60:	d8 0a 00 00 	stfd    f0,0(r10)
 1809e64:	40 81 00 10 	ble-    1809e74 <pp_sqrt+0xa4>
 1809e68:	3d 20 01 81 	lis     r9,385
 1809e6c:	c9 49 a2 90 	lfd     f10,-23920(r9)
 1809e70:	48 00 00 0c 	b       1809e7c <pp_sqrt+0xac>
 1809e74:	3d 20 01 81 	lis     r9,385
 1809e78:	c9 49 a2 98 	lfd     f10,-23912(r9)
 1809e7c:	3d 20 01 81 	lis     r9,385
 1809e80:	3d 60 01 81 	lis     r11,385
 1809e84:	c8 0a 00 00 	lfd     f0,0(r10)
 1809e88:	c9 ab a2 a8 	lfd     f13,-23896(r11)
 1809e8c:	c8 29 a2 a0 	lfd     f1,-23904(r9)
 1809e90:	3d 20 01 81 	lis     r9,385
 1809e94:	c9 89 a2 c0 	lfd     f12,-23872(r9)
 1809e98:	fc 20 68 7a 	fmadd   f1,f0,f1,f13
 1809e9c:	3d 60 01 81 	lis     r11,385
 1809ea0:	c9 ab a2 b0 	lfd     f13,-23888(r11)
 1809ea4:	fd 80 60 2a 	fadd    f12,f0,f12
 1809ea8:	3d 20 01 81 	lis     r9,385
 1809eac:	c9 69 a2 c8 	lfd     f11,-23864(r9)
 1809eb0:	3d 20 01 81 	lis     r9,385
 1809eb4:	fc 20 68 7a 	fmadd   f1,f0,f1,f13
 1809eb8:	3d 60 01 81 	lis     r11,385
 1809ebc:	c9 a9 a2 b8 	lfd     f13,-23880(r9)
 1809ec0:	fd 80 5b 3a 	fmadd   f12,f0,f12,f11
 1809ec4:	81 2a 00 0c 	lwz     r9,12(r10)
 1809ec8:	c9 6b a2 d0 	lfd     f11,-23856(r11)
 1809ecc:	55 00 04 5e 	rlwinm  r0,r8,0,17,15
 1809ed0:	fc 20 68 7a 	fmadd   f1,f0,f1,f13
 1809ed4:	7d 29 02 14 	add     r9,r9,r0
 1809ed8:	91 2a 00 0c 	stw     r9,12(r10)
 1809edc:	fc 00 5b 3a 	fmadd   f0,f0,f12,f11
 1809ee0:	fc 21 00 24 	fdiv    f1,f1,f0
 1809ee4:	fc 21 02 b2 	fmul    f1,f1,f10
 1809ee8:	d8 2a 00 00 	stfd    f1,0(r10)
 1809eec:	38 21 00 20 	addi    r1,r1,32
 1809ef0:	4e 80 00 20 	blr
