
tp_debie1_tr:     file format ss-coff-little

Disassembly of section .text:

00400140 <__start>:
  400140:	28 00 00 00 	lw $16,0($29)
  400144:	00 00 10 1d 
  400148:	a2 00 00 00 	lui $28,4097
  40014c:	01 10 1c 00 
  400150:	43 00 00 00 	addiu $28,$28,-19904
  400154:	40 b2 1c 1c 
  400158:	43 00 00 00 	addiu $17,$29,4
  40015c:	04 00 11 1d 
  400160:	43 00 00 00 	addiu $3,$17,4
  400164:	04 00 03 11 
  400168:	55 00 00 00 	sll $2,$16,0x2
  40016c:	02 02 10 00 
  400170:	42 00 00 00 	addu $3,$3,$2
  400174:	00 03 02 03 
  400178:	42 00 00 00 	addu $18,$0,$3
  40017c:	00 12 03 00 
  400180:	34 00 00 00 	sw $18,-32092($28)
  400184:	a4 82 12 1c 
  400188:	43 00 00 00 	addiu $29,$29,-24
  40018c:	e8 ff 1d 1d 
  400190:	42 00 00 00 	addu $4,$0,$16
  400194:	00 04 10 00 
  400198:	42 00 00 00 	addu $5,$0,$17
  40019c:	00 05 11 00 
  4001a0:	42 00 00 00 	addu $6,$0,$18
  4001a4:	00 06 12 00 
  4001a8:	02 00 00 00 	jal 410780 <__libc_init>
  4001ac:	e0 41 10 00 
  4001b0:	34 00 00 00 	sw $0,-32096($28)
  4001b4:	a0 82 00 1c 
  4001b8:	42 00 00 00 	addu $4,$0,$16
  4001bc:	00 04 10 00 
  4001c0:	42 00 00 00 	addu $5,$0,$17
  4001c4:	00 05 11 00 
  4001c8:	42 00 00 00 	addu $6,$0,$18
  4001cc:	00 06 12 00 
  4001d0:	02 00 00 00 	jal 400a70 <main>
  4001d4:	9c 02 10 00 
  4001d8:	42 00 00 00 	addu $4,$0,$2
  4001dc:	00 04 02 00 
  4001e0:	02 00 00 00 	jal 4107b0 <exit>
  4001e4:	ec 41 10 00 
	...

004001f0 <RoughLogarithm>:
  4001f0:	42 00 00 00 	addu $2,$0,$0
  4001f4:	00 02 00 00 
  4001f8:	05 00 00 00 	beq $4,$0,400218 <RoughLogarithm+0x28>
  4001fc:	06 00 00 04 
  400200:	43 00 00 00 	addiu $2,$2,1
  400204:	01 00 02 02 
  400208:	57 00 00 00 	srl $4,$4,0x1
  40020c:	01 04 04 00 
  400210:	06 00 00 00 	bne $4,$0,400200 <RoughLogarithm+0x10>
  400214:	fa ff 00 04 
  400218:	4f 00 00 00 	andi $2,$2,255
  40021c:	ff 00 02 02 
  400220:	03 00 00 00 	jr $31
  400224:	00 00 00 1f 

00400228 <GetQualityTerm>:
  400228:	43 00 00 00 	addiu $29,$29,-24
  40022c:	e8 ff 1d 1d 
  400230:	34 00 00 00 	sw $16,16($29)
  400234:	10 00 10 1d 
  400238:	42 00 00 00 	addu $16,$0,$4
  40023c:	00 10 04 00 
  400240:	42 00 00 00 	addu $4,$0,$5
  400244:	00 04 05 00 
  400248:	34 00 00 00 	sw $31,20($29)
  40024c:	14 00 1f 1d 
  400250:	02 00 00 00 	jal 4001f0 <RoughLogarithm>
  400254:	7c 00 10 00 
  400258:	4f 00 00 00 	andi $16,$16,255
  40025c:	ff 00 10 10 
  400260:	a2 00 00 00 	lui $3,4098
  400264:	02 10 03 00 
  400268:	42 00 00 00 	addu $3,$3,$16
  40026c:	00 03 10 03 
  400270:	22 00 00 00 	lbu $3,-14462($3)
  400274:	82 c7 03 03 
  400278:	4f 00 00 00 	andi $2,$2,255
  40027c:	ff 00 02 02 
  400280:	46 00 00 00 	mult $3,$2
  400284:	00 00 02 03 
  400288:	4c 00 00 00 	mflo $2
  40028c:	00 02 00 00 
  400290:	2b 00 00 00 	l.d $f2,-32768($28)
  400294:	00 80 02 1c 
  400298:	a5 00 00 00 	mtc1 $2,$f0
  40029c:	00 00 02 00 
  4002a0:	81 00 00 00 	cvt.s.w $f0,$f0
  4002a4:	00 00 00 00 
  4002a8:	82 00 00 00 	cvt.d.s $f0,$f0
  4002ac:	00 00 00 00 
  4002b0:	77 00 00 00 	div.d $f0,$f0,$f2
  4002b4:	00 00 02 00 
  4002b8:	2b 00 00 00 	l.d $f2,-32760($28)
  4002bc:	08 80 02 1c 
  4002c0:	80 00 00 00 	cvt.s.d $f4,$f0
  4002c4:	00 04 00 00 
  4002c8:	82 00 00 00 	cvt.d.s $f0,$f4
  4002cc:	00 00 00 04 
  4002d0:	93 00 00 00 	c.lt.d $f2,$f0
  4002d4:	00 00 00 02 
  4002d8:	0b 00 00 00 	bc1f 4002e8 <GetQualityTerm+0xc0>
  4002dc:	02 00 00 00 
  4002e0:	2a 00 00 00 	l.s $f4,-32752($28)
  4002e4:	10 80 04 1c 
  4002e8:	7a 00 00 00 	mov.s $f0,$f4
  4002ec:	00 00 00 04 
  4002f0:	28 00 00 00 	lw $31,20($29)
  4002f4:	14 00 1f 1d 
  4002f8:	28 00 00 00 	lw $16,16($29)
  4002fc:	10 00 10 1d 
  400300:	43 00 00 00 	addiu $29,$29,24
  400304:	18 00 1d 1d 
  400308:	03 00 00 00 	jr $31
  40030c:	00 00 00 1f 

00400310 <CalculateQualityNumber>:
  400310:	43 00 00 00 	addiu $29,$29,-32
  400314:	e0 ff 1d 1d 
  400318:	34 00 00 00 	sw $16,16($29)
  40031c:	10 00 10 1d 
  400320:	42 00 00 00 	addu $16,$0,$4
  400324:	00 10 04 00 
  400328:	34 00 00 00 	sw $31,20($29)
  40032c:	14 00 1f 1d 
  400330:	37 00 00 00 	s.d $f20,24($29)
  400334:	18 00 14 1d 
  400338:	22 00 00 00 	lbu $2,1($16)
  40033c:	01 00 02 10 
  400340:	2b 00 00 00 	l.d $f0,-32744($28)
  400344:	18 80 00 1c 
  400348:	a5 00 00 00 	mtc1 $2,$f20
  40034c:	00 00 02 14 
  400350:	83 00 00 00 	cvt.d.w $f20,$f20
  400354:	00 14 00 14 
  400358:	75 00 00 00 	mul.d $f20,$f20,$f0
  40035c:	00 14 00 14 
  400360:	43 00 00 00 	addiu $4,$16,10
  400364:	0a 00 04 10 
  400368:	80 00 00 00 	cvt.s.d $f20,$f20
  40036c:	00 14 00 14 
  400370:	02 00 00 00 	jal 402a40 <Short_Value>
  400374:	90 0a 10 00 
  400378:	42 00 00 00 	addu $4,$0,$0
  40037c:	00 04 00 00 
  400380:	4f 00 00 00 	andi $5,$2,65535
  400384:	ff ff 05 02 
  400388:	02 00 00 00 	jal 400228 <GetQualityTerm>
  40038c:	8a 00 10 00 
  400390:	70 00 00 00 	add.s $f20,$f20,$f0
  400394:	00 14 00 14 
  400398:	43 00 00 00 	addiu $4,$16,12
  40039c:	0c 00 04 10 
  4003a0:	02 00 00 00 	jal 402a40 <Short_Value>
  4003a4:	90 0a 10 00 
  4003a8:	43 00 00 00 	addiu $4,$0,1
  4003ac:	01 00 04 00 
  4003b0:	4f 00 00 00 	andi $5,$2,65535
  4003b4:	ff ff 05 02 
  4003b8:	02 00 00 00 	jal 400228 <GetQualityTerm>
  4003bc:	8a 00 10 00 
  4003c0:	70 00 00 00 	add.s $f20,$f20,$f0
  4003c4:	00 14 00 14 
  4003c8:	43 00 00 00 	addiu $4,$16,14
  4003cc:	0e 00 04 10 
  4003d0:	02 00 00 00 	jal 402a40 <Short_Value>
  4003d4:	90 0a 10 00 
  4003d8:	43 00 00 00 	addiu $4,$0,2
  4003dc:	02 00 04 00 
  4003e0:	4f 00 00 00 	andi $5,$2,65535
  4003e4:	ff ff 05 02 
  4003e8:	02 00 00 00 	jal 400228 <GetQualityTerm>
  4003ec:	8a 00 10 00 
  4003f0:	70 00 00 00 	add.s $f20,$f20,$f0
  4003f4:	00 14 00 14 
  4003f8:	43 00 00 00 	addiu $4,$16,16
  4003fc:	10 00 04 10 
  400400:	02 00 00 00 	jal 402a40 <Short_Value>
  400404:	90 0a 10 00 
  400408:	43 00 00 00 	addiu $4,$0,3
  40040c:	03 00 04 00 
  400410:	4f 00 00 00 	andi $5,$2,65535
  400414:	ff ff 05 02 
  400418:	02 00 00 00 	jal 400228 <GetQualityTerm>
  40041c:	8a 00 10 00 
  400420:	70 00 00 00 	add.s $f20,$f20,$f0
  400424:	00 14 00 14 
  400428:	43 00 00 00 	addiu $4,$16,18
  40042c:	12 00 04 10 
  400430:	02 00 00 00 	jal 402a40 <Short_Value>
  400434:	90 0a 10 00 
  400438:	43 00 00 00 	addiu $4,$0,4
  40043c:	04 00 04 00 
  400440:	4f 00 00 00 	andi $5,$2,65535
  400444:	ff ff 05 02 
  400448:	02 00 00 00 	jal 400228 <GetQualityTerm>
  40044c:	8a 00 10 00 
  400450:	70 00 00 00 	add.s $f20,$f20,$f0
  400454:	00 14 00 14 
  400458:	2b 00 00 00 	l.d $f2,-32736($28)
  40045c:	20 80 02 1c 
  400460:	82 00 00 00 	cvt.d.s $f0,$f20
  400464:	00 00 00 14 
  400468:	71 00 00 00 	add.d $f2,$f0,$f2
  40046c:	00 02 02 00 
  400470:	2b 00 00 00 	l.d $f0,-32728($28)
  400474:	28 80 00 1c 
  400478:	95 00 00 00 	c.le.d $f0,$f2
  40047c:	00 00 02 00 
  400480:	0c 00 00 00 	bc1t 4004a0 <CalculateQualityNumber+0x190>
  400484:	06 00 00 00 
  400488:	85 00 00 00 	cvt.w.d $f0,$f2
  40048c:	00 00 00 02 
  400490:	a3 00 00 00 	mfc1 $3,$f0
  400494:	00 00 03 00 
  400498:	01 00 00 00 	j 4004c8 <CalculateQualityNumber+0x1b8>
  40049c:	32 01 10 00 
  4004a0:	73 00 00 00 	sub.d $f0,$f2,$f0
  4004a4:	00 00 00 02 
  4004a8:	85 00 00 00 	cvt.w.d $f2,$f0
  4004ac:	00 02 00 00 
  4004b0:	a3 00 00 00 	mfc1 $3,$f2
  4004b4:	00 00 03 02 
  4004b8:	a2 00 00 00 	lui $2,32768
  4004bc:	00 80 02 00 
  4004c0:	50 00 00 00 	or $3,$3,$2
  4004c4:	00 03 02 03 
  4004c8:	30 00 00 00 	sb $3,0($16)
  4004cc:	00 00 03 10 
  4004d0:	28 00 00 00 	lw $31,20($29)
  4004d4:	14 00 1f 1d 
  4004d8:	28 00 00 00 	lw $16,16($29)
  4004dc:	10 00 10 1d 
  4004e0:	2b 00 00 00 	l.d $f20,24($29)
  4004e4:	18 00 14 1d 
  4004e8:	43 00 00 00 	addiu $29,$29,32
  4004ec:	20 00 1d 1d 
  4004f0:	03 00 00 00 	jr $31
  4004f4:	00 00 00 1f 

004004f8 <ClassifyEvent>:
  4004f8:	43 00 00 00 	addiu $29,$29,-40
  4004fc:	d8 ff 1d 1d 
  400500:	34 00 00 00 	sw $18,24($29)
  400504:	18 00 12 1d 
  400508:	42 00 00 00 	addu $18,$0,$4
  40050c:	00 12 04 00 
  400510:	34 00 00 00 	sw $31,32($29)
  400514:	20 00 1f 1d 
  400518:	34 00 00 00 	sw $19,28($29)
  40051c:	1c 00 13 1d 
  400520:	34 00 00 00 	sw $17,20($29)
  400524:	14 00 11 1d 
  400528:	34 00 00 00 	sw $16,16($29)
  40052c:	10 00 10 1d 
  400530:	22 00 00 00 	lbu $3,2($18)
  400534:	02 00 03 12 
  400538:	42 00 00 00 	addu $16,$0,$0
  40053c:	00 10 00 00 
  400540:	43 00 00 00 	addiu $2,$0,2
  400544:	02 00 02 00 
  400548:	05 00 00 00 	beq $3,$2,4005b8 <ClassifyEvent+0xc0>
  40054c:	1a 00 02 03 
  400550:	5c 00 00 00 	slti $2,$3,3
  400554:	03 00 02 03 
  400558:	05 00 00 00 	beq $2,$0,400578 <ClassifyEvent+0x80>
  40055c:	06 00 00 02 
  400560:	43 00 00 00 	addiu $2,$0,1
  400564:	01 00 02 00 
  400568:	05 00 00 00 	beq $3,$2,4005a0 <ClassifyEvent+0xa8>
  40056c:	0c 00 02 03 
  400570:	01 00 00 00 	j 4005f8 <ClassifyEvent+0x100>
  400574:	7e 01 10 00 
  400578:	43 00 00 00 	addiu $2,$0,3
  40057c:	03 00 02 00 
  400580:	05 00 00 00 	beq $3,$2,4005d0 <ClassifyEvent+0xd8>
  400584:	12 00 02 03 
  400588:	43 00 00 00 	addiu $2,$0,4
  40058c:	04 00 02 00 
  400590:	05 00 00 00 	beq $3,$2,4005e8 <ClassifyEvent+0xf0>
  400594:	14 00 02 03 
  400598:	01 00 00 00 	j 4005f8 <ClassifyEvent+0x100>
  40059c:	7e 01 10 00 
  4005a0:	a2 00 00 00 	lui $17,4098
  4005a4:	02 10 11 00 
  4005a8:	43 00 00 00 	addiu $17,$17,-14545
  4005ac:	2f c7 11 11 
  4005b0:	01 00 00 00 	j 4005f8 <ClassifyEvent+0x100>
  4005b4:	7e 01 10 00 
  4005b8:	a2 00 00 00 	lui $17,4098
  4005bc:	02 10 11 00 
  4005c0:	43 00 00 00 	addiu $17,$17,-14529
  4005c4:	3f c7 11 11 
  4005c8:	01 00 00 00 	j 4005f8 <ClassifyEvent+0x100>
  4005cc:	7e 01 10 00 
  4005d0:	a2 00 00 00 	lui $17,4098
  4005d4:	02 10 11 00 
  4005d8:	43 00 00 00 	addiu $17,$17,-14513
  4005dc:	4f c7 11 11 
  4005e0:	01 00 00 00 	j 4005f8 <ClassifyEvent+0x100>
  4005e4:	7e 01 10 00 
  4005e8:	a2 00 00 00 	lui $17,4098
  4005ec:	02 10 11 00 
  4005f0:	43 00 00 00 	addiu $17,$17,-14497
  4005f4:	5f c7 11 11 
  4005f8:	43 00 00 00 	addiu $4,$18,10
  4005fc:	0a 00 04 12 
  400600:	02 00 00 00 	jal 402a40 <Short_Value>
  400604:	90 0a 10 00 
  400608:	22 00 00 00 	lbu $3,5($17)
  40060c:	05 00 03 11 
  400610:	4f 00 00 00 	andi $2,$2,65535
  400614:	ff ff 02 02 
  400618:	55 00 00 00 	sll $3,$3,0x8
  40061c:	08 03 03 00 
  400620:	5b 00 00 00 	slt $2,$2,$3
  400624:	00 02 03 02 
  400628:	06 00 00 00 	bne $2,$0,400638 <ClassifyEvent+0x140>
  40062c:	02 00 00 02 
  400630:	51 00 00 00 	ori $16,$16,128
  400634:	80 00 10 10 
  400638:	43 00 00 00 	addiu $4,$18,12
  40063c:	0c 00 04 12 
  400640:	02 00 00 00 	jal 402a40 <Short_Value>
  400644:	90 0a 10 00 
  400648:	22 00 00 00 	lbu $3,6($17)
  40064c:	06 00 03 11 
  400650:	4f 00 00 00 	andi $2,$2,65535
  400654:	ff ff 02 02 
  400658:	55 00 00 00 	sll $3,$3,0x8
  40065c:	08 03 03 00 
  400660:	5b 00 00 00 	slt $2,$2,$3
  400664:	00 02 03 02 
  400668:	06 00 00 00 	bne $2,$0,400678 <ClassifyEvent+0x180>
  40066c:	02 00 00 02 
  400670:	51 00 00 00 	ori $16,$16,64
  400674:	40 00 10 10 
  400678:	43 00 00 00 	addiu $4,$18,14
  40067c:	0e 00 04 12 
  400680:	02 00 00 00 	jal 402a40 <Short_Value>
  400684:	90 0a 10 00 
  400688:	22 00 00 00 	lbu $3,7($17)
  40068c:	07 00 03 11 
  400690:	4f 00 00 00 	andi $2,$2,65535
  400694:	ff ff 02 02 
  400698:	55 00 00 00 	sll $3,$3,0x8
  40069c:	08 03 03 00 
  4006a0:	5b 00 00 00 	slt $2,$2,$3
  4006a4:	00 02 03 02 
  4006a8:	06 00 00 00 	bne $2,$0,4006b8 <ClassifyEvent+0x1c0>
  4006ac:	02 00 00 02 
  4006b0:	51 00 00 00 	ori $16,$16,32
  4006b4:	20 00 10 10 
  4006b8:	43 00 00 00 	addiu $4,$18,16
  4006bc:	10 00 04 12 
  4006c0:	02 00 00 00 	jal 402a40 <Short_Value>
  4006c4:	90 0a 10 00 
  4006c8:	22 00 00 00 	lbu $3,8($17)
  4006cc:	08 00 03 11 
  4006d0:	4f 00 00 00 	andi $2,$2,65535
  4006d4:	ff ff 02 02 
  4006d8:	55 00 00 00 	sll $3,$3,0x8
  4006dc:	08 03 03 00 
  4006e0:	5b 00 00 00 	slt $2,$2,$3
  4006e4:	00 02 03 02 
  4006e8:	06 00 00 00 	bne $2,$0,4006f8 <ClassifyEvent+0x200>
  4006ec:	02 00 00 02 
  4006f0:	51 00 00 00 	ori $16,$16,16
  4006f4:	10 00 10 10 
  4006f8:	43 00 00 00 	addiu $4,$18,18
  4006fc:	12 00 04 12 
  400700:	02 00 00 00 	jal 402a40 <Short_Value>
  400704:	90 0a 10 00 
  400708:	22 00 00 00 	lbu $3,9($17)
  40070c:	09 00 03 11 
  400710:	4f 00 00 00 	andi $2,$2,65535
  400714:	ff ff 02 02 
  400718:	55 00 00 00 	sll $3,$3,0x8
  40071c:	08 03 03 00 
  400720:	5b 00 00 00 	slt $2,$2,$3
  400724:	00 02 03 02 
  400728:	06 00 00 00 	bne $2,$0,400738 <ClassifyEvent+0x240>
  40072c:	02 00 00 02 
  400730:	51 00 00 00 	ori $16,$16,8
  400734:	08 00 10 10 
  400738:	43 00 00 00 	addiu $19,$18,22
  40073c:	16 00 13 12 
  400740:	42 00 00 00 	addu $4,$0,$19
  400744:	00 04 13 00 
  400748:	02 00 00 00 	jal 402a40 <Short_Value>
  40074c:	90 0a 10 00 
  400750:	22 00 00 00 	lbu $3,11($17)
  400754:	0b 00 03 11 
  400758:	4f 00 00 00 	andi $2,$2,65535
  40075c:	ff ff 02 02 
  400760:	55 00 00 00 	sll $3,$3,0x4
  400764:	04 03 03 00 
  400768:	5b 00 00 00 	slt $2,$2,$3
  40076c:	00 02 03 02 
  400770:	06 00 00 00 	bne $2,$0,4007b8 <ClassifyEvent+0x2c0>
  400774:	10 00 00 02 
  400778:	42 00 00 00 	addu $4,$0,$19
  40077c:	00 04 13 00 
  400780:	02 00 00 00 	jal 402a40 <Short_Value>
  400784:	90 0a 10 00 
  400788:	22 00 00 00 	lbu $3,12($17)
  40078c:	0c 00 03 11 
  400790:	4f 00 00 00 	andi $2,$2,65535
  400794:	ff ff 02 02 
  400798:	55 00 00 00 	sll $3,$3,0x4
  40079c:	04 03 03 00 
  4007a0:	5b 00 00 00 	slt $3,$3,$2
  4007a4:	00 03 02 03 
  4007a8:	06 00 00 00 	bne $3,$0,4007b8 <ClassifyEvent+0x2c0>
  4007ac:	02 00 00 03 
  4007b0:	51 00 00 00 	ori $16,$16,2
  4007b4:	02 00 10 10 
  4007b8:	43 00 00 00 	addiu $19,$18,24
  4007bc:	18 00 13 12 
  4007c0:	42 00 00 00 	addu $4,$0,$19
  4007c4:	00 04 13 00 
  4007c8:	02 00 00 00 	jal 402a40 <Short_Value>
  4007cc:	90 0a 10 00 
  4007d0:	22 00 00 00 	lbu $3,13($17)
  4007d4:	0d 00 03 11 
  4007d8:	4f 00 00 00 	andi $2,$2,65535
  4007dc:	ff ff 02 02 
  4007e0:	55 00 00 00 	sll $3,$3,0x4
  4007e4:	04 03 03 00 
  4007e8:	5b 00 00 00 	slt $2,$2,$3
  4007ec:	00 02 03 02 
  4007f0:	06 00 00 00 	bne $2,$0,400838 <ClassifyEvent+0x340>
  4007f4:	10 00 00 02 
  4007f8:	42 00 00 00 	addu $4,$0,$19
  4007fc:	00 04 13 00 
  400800:	02 00 00 00 	jal 402a40 <Short_Value>
  400804:	90 0a 10 00 
  400808:	22 00 00 00 	lbu $3,14($17)
  40080c:	0e 00 03 11 
  400810:	4f 00 00 00 	andi $2,$2,65535
  400814:	ff ff 02 02 
  400818:	55 00 00 00 	sll $3,$3,0x4
  40081c:	04 03 03 00 
  400820:	5b 00 00 00 	slt $3,$3,$2
  400824:	00 03 02 03 
  400828:	06 00 00 00 	bne $3,$0,400838 <ClassifyEvent+0x340>
  40082c:	02 00 00 03 
  400830:	51 00 00 00 	ori $16,$16,1
  400834:	01 00 10 10 
  400838:	20 00 00 00 	lb $3,21($18)
  40083c:	15 00 03 12 
  400840:	22 00 00 00 	lbu $2,10($17)
  400844:	0a 00 02 11 
  400848:	5b 00 00 00 	slt $2,$2,$3
  40084c:	00 02 03 02 
  400850:	06 00 00 00 	bne $2,$0,400860 <ClassifyEvent+0x368>
  400854:	02 00 00 02 
  400858:	51 00 00 00 	ori $16,$16,4
  40085c:	04 00 10 10 
  400860:	4f 00 00 00 	andi $2,$16,255
  400864:	ff 00 02 10 
  400868:	a2 00 00 00 	lui $3,4096
  40086c:	00 10 03 00 
  400870:	42 00 00 00 	addu $3,$3,$2
  400874:	00 03 02 03 
  400878:	22 00 00 00 	lbu $3,11168($3)
  40087c:	a0 2b 03 03 
  400880:	22 00 00 00 	lbu $2,2($18)
  400884:	02 00 02 12 
  400888:	30 00 00 00 	sb $3,1($18)
  40088c:	01 00 03 12 
  400890:	55 00 00 00 	sll $2,$2,0x2
  400894:	02 02 02 00 
  400898:	a2 00 00 00 	lui $3,4096
  40089c:	00 10 03 00 
  4008a0:	42 00 00 00 	addu $3,$3,$2
  4008a4:	00 03 02 03 
  4008a8:	28 00 00 00 	lw $3,11932($3)
  4008ac:	9c 2e 03 03 
  4008b0:	43 00 00 00 	addiu $2,$0,5
  4008b4:	05 00 02 00 
  4008b8:	06 00 00 00 	bne $3,$2,4008d8 <ClassifyEvent+0x3e0>
  4008bc:	06 00 02 03 
  4008c0:	43 00 00 00 	addiu $2,$0,255
  4008c4:	ff 00 02 00 
  4008c8:	30 00 00 00 	sb $2,0($18)
  4008cc:	00 00 02 12 
  4008d0:	01 00 00 00 	j 4008e8 <ClassifyEvent+0x3f0>
  4008d4:	3a 02 10 00 
  4008d8:	42 00 00 00 	addu $4,$0,$18
  4008dc:	00 04 12 00 
  4008e0:	02 00 00 00 	jal 400310 <CalculateQualityNumber>
  4008e4:	c4 00 10 00 
  4008e8:	28 00 00 00 	lw $31,32($29)
  4008ec:	20 00 1f 1d 
  4008f0:	28 00 00 00 	lw $19,28($29)
  4008f4:	1c 00 13 1d 
  4008f8:	28 00 00 00 	lw $18,24($29)
  4008fc:	18 00 12 1d 
  400900:	28 00 00 00 	lw $17,20($29)
  400904:	14 00 11 1d 
  400908:	28 00 00 00 	lw $16,16($29)
  40090c:	10 00 10 1d 
  400910:	43 00 00 00 	addiu $29,$29,40
  400914:	28 00 1d 1d 
  400918:	03 00 00 00 	jr $31
  40091c:	00 00 00 1f 

00400920 <InitClassification>:
  400920:	43 00 00 00 	addiu $29,$29,-24
  400924:	e8 ff 1d 1d 
  400928:	42 00 00 00 	addu $3,$0,$0
  40092c:	00 03 00 00 
  400930:	43 00 00 00 	addiu $4,$0,5
  400934:	05 00 04 00 
  400938:	34 00 00 00 	sw $31,20($29)
  40093c:	14 00 1f 1d 
  400940:	34 00 00 00 	sw $16,16($29)
  400944:	10 00 10 1d 
  400948:	a2 00 00 00 	lui $1,4098
  40094c:	02 10 01 00 
  400950:	42 00 00 00 	addu $1,$1,$3
  400954:	00 01 03 01 
  400958:	30 00 00 00 	sb $4,-14462($1)
  40095c:	82 c7 04 01 
  400960:	43 00 00 00 	addiu $3,$3,1
  400964:	01 00 03 03 
  400968:	5e 00 00 00 	sltiu $2,$3,5
  40096c:	05 00 02 03 
  400970:	06 00 00 00 	bne $2,$0,400948 <InitClassification+0x28>
  400974:	f4 ff 00 02 
  400978:	a2 00 00 00 	lui $16,4098
  40097c:	02 10 10 00 
  400980:	43 00 00 00 	addiu $16,$16,-14545
  400984:	2f c7 10 10 
  400988:	42 00 00 00 	addu $4,$0,$16
  40098c:	00 04 10 00 
  400990:	02 00 00 00 	jal 4009e8 <Init_SU_Settings>
  400994:	7a 02 10 00 
  400998:	43 00 00 00 	addiu $4,$16,16
  40099c:	10 00 04 10 
  4009a0:	02 00 00 00 	jal 4009e8 <Init_SU_Settings>
  4009a4:	7a 02 10 00 
  4009a8:	43 00 00 00 	addiu $4,$16,32
  4009ac:	20 00 04 10 
  4009b0:	02 00 00 00 	jal 4009e8 <Init_SU_Settings>
  4009b4:	7a 02 10 00 
  4009b8:	43 00 00 00 	addiu $4,$16,48
  4009bc:	30 00 04 10 
  4009c0:	02 00 00 00 	jal 4009e8 <Init_SU_Settings>
  4009c4:	7a 02 10 00 
  4009c8:	28 00 00 00 	lw $31,20($29)
  4009cc:	14 00 1f 1d 
  4009d0:	28 00 00 00 	lw $16,16($29)
  4009d4:	10 00 10 1d 
  4009d8:	43 00 00 00 	addiu $29,$29,24
  4009dc:	18 00 1d 1d 
  4009e0:	03 00 00 00 	jr $31
  4009e4:	00 00 00 1f 

004009e8 <Init_SU_Settings>:
  4009e8:	43 00 00 00 	addiu $2,$0,13
  4009ec:	0d 00 02 00 
  4009f0:	30 00 00 00 	sb $2,2($4)
  4009f4:	02 00 02 04 
  4009f8:	30 00 00 00 	sb $2,3($4)
  4009fc:	03 00 02 04 
  400a00:	30 00 00 00 	sb $2,4($4)
  400a04:	04 00 02 04 
  400a08:	43 00 00 00 	addiu $2,$0,255
  400a0c:	ff 00 02 00 
  400a10:	30 00 00 00 	sb $0,5($4)
  400a14:	05 00 00 04 
  400a18:	30 00 00 00 	sb $0,6($4)
  400a1c:	06 00 00 04 
  400a20:	30 00 00 00 	sb $0,7($4)
  400a24:	07 00 00 04 
  400a28:	30 00 00 00 	sb $0,8($4)
  400a2c:	08 00 00 04 
  400a30:	30 00 00 00 	sb $0,9($4)
  400a34:	09 00 00 04 
  400a38:	30 00 00 00 	sb $2,10($4)
  400a3c:	0a 00 02 04 
  400a40:	30 00 00 00 	sb $0,11($4)
  400a44:	0b 00 00 04 
  400a48:	30 00 00 00 	sb $2,12($4)
  400a4c:	0c 00 02 04 
  400a50:	30 00 00 00 	sb $0,13($4)
  400a54:	0d 00 00 04 
  400a58:	30 00 00 00 	sb $2,14($4)
  400a5c:	0e 00 02 04 
  400a60:	03 00 00 00 	jr $31
  400a64:	00 00 00 1f 
	...

00400a70 <main>:
  400a70:	43 00 00 00 	addiu $29,$29,-24
  400a74:	e8 ff 1d 1d 
  400a78:	a2 00 00 00 	lui $4,4096
  400a7c:	00 10 04 00 
  400a80:	43 00 00 00 	addiu $4,$4,0
  400a84:	00 00 04 04 
  400a88:	34 00 00 00 	sw $31,16($29)
  400a8c:	10 00 1f 1d 
  400a90:	02 00 00 00 	jal 410990 <printf>
  400a94:	64 42 10 00 
  400a98:	30 00 00 00 	sb $0,-32080($28)
  400a9c:	b0 82 00 1c 
  400aa0:	02 00 00 00 	jal 409428 <Boot>
  400aa4:	0a 25 10 00 
  400aa8:	42 00 00 00 	addu $4,$0,$0
  400aac:	00 04 00 00 
  400ab0:	43 00 00 00 	addiu $2,$0,1
  400ab4:	01 00 02 00 
  400ab8:	30 00 00 00 	sb $2,-32080($28)
  400abc:	b0 82 02 1c 
  400ac0:	02 00 00 00 	jal 408f50 <StartSystem>
  400ac4:	d4 23 10 00 
  400ac8:	01 00 00 00 	j 400ac8 <main+0x58>
  400acc:	b2 02 10 00 
  400ad0:	28 00 00 00 	lw $31,16($29)
  400ad4:	10 00 1f 1d 
  400ad8:	43 00 00 00 	addiu $29,$29,24
  400adc:	18 00 1d 1d 
  400ae0:	03 00 00 00 	jr $31
  400ae4:	00 00 00 1f 
	...

00400af0 <CreateTask>:
  400af0:	43 00 00 00 	addiu $29,$29,-24
  400af4:	e8 ff 1d 1d 
  400af8:	34 00 00 00 	sw $16,16($29)
  400afc:	10 00 10 1d 
  400b00:	42 00 00 00 	addu $16,$0,$4
  400b04:	00 10 04 00 
  400b08:	34 00 00 00 	sw $31,20($29)
  400b0c:	14 00 1f 1d 
  400b10:	22 00 00 00 	lbu $5,0($16)
  400b14:	00 00 05 10 
  400b18:	a2 00 00 00 	lui $4,4096
  400b1c:	00 10 04 00 
  400b20:	43 00 00 00 	addiu $4,$4,16
  400b24:	10 00 04 04 
  400b28:	02 00 00 00 	jal 410990 <printf>
  400b2c:	64 42 10 00 
  400b30:	22 00 00 00 	lbu $3,0($16)
  400b34:	00 00 03 10 
  400b38:	43 00 00 00 	addiu $2,$0,2
  400b3c:	02 00 02 00 
  400b40:	05 00 00 00 	beq $3,$2,400b98 <CreateTask+0xa8>
  400b44:	14 00 02 03 
  400b48:	5c 00 00 00 	slti $2,$3,3
  400b4c:	03 00 02 03 
  400b50:	05 00 00 00 	beq $2,$0,400b70 <CreateTask+0x80>
  400b54:	06 00 00 02 
  400b58:	43 00 00 00 	addiu $2,$0,1
  400b5c:	01 00 02 00 
  400b60:	05 00 00 00 	beq $3,$2,400b88 <CreateTask+0x98>
  400b64:	08 00 02 03 
  400b68:	01 00 00 00 	j 400bb8 <CreateTask+0xc8>
  400b6c:	ee 02 10 00 
  400b70:	43 00 00 00 	addiu $2,$0,3
  400b74:	03 00 02 00 
  400b78:	05 00 00 00 	beq $3,$2,400ba8 <CreateTask+0xb8>
  400b7c:	0a 00 02 03 
  400b80:	01 00 00 00 	j 400bb8 <CreateTask+0xc8>
  400b84:	ee 02 10 00 
  400b88:	02 00 00 00 	jal 40f9e8 <InitTelecommandTask>
  400b8c:	7a 3e 10 00 
  400b90:	01 00 00 00 	j 400bd0 <CreateTask+0xe0>
  400b94:	f4 02 10 00 
  400b98:	02 00 00 00 	jal 40d060 <InitAcquisitionTask>
  400b9c:	18 34 10 00 
  400ba0:	01 00 00 00 	j 400bd0 <CreateTask+0xe0>
  400ba4:	f4 02 10 00 
  400ba8:	02 00 00 00 	jal 40cbc0 <InitHitTriggerTask>
  400bac:	f0 32 10 00 
  400bb0:	01 00 00 00 	j 400bd0 <CreateTask+0xe0>
  400bb4:	f4 02 10 00 
  400bb8:	a2 00 00 00 	lui $4,4096
  400bbc:	00 10 04 00 
  400bc0:	43 00 00 00 	addiu $4,$4,32
  400bc4:	20 00 04 04 
  400bc8:	02 00 00 00 	jal 410990 <printf>
  400bcc:	64 42 10 00 
  400bd0:	28 00 00 00 	lw $31,20($29)
  400bd4:	14 00 1f 1d 
  400bd8:	28 00 00 00 	lw $16,16($29)
  400bdc:	10 00 10 1d 
  400be0:	43 00 00 00 	addiu $29,$29,24
  400be4:	18 00 1d 1d 
  400be8:	03 00 00 00 	jr $31
  400bec:	00 00 00 1f 

00400bf0 <WaitInterval>:
  400bf0:	43 00 00 00 	addiu $29,$29,-24
  400bf4:	e8 ff 1d 1d 
  400bf8:	34 00 00 00 	sw $31,16($29)
  400bfc:	10 00 1f 1d 
  400c00:	4f 00 00 00 	andi $5,$4,255
  400c04:	ff 00 05 04 
  400c08:	a2 00 00 00 	lui $4,4096
  400c0c:	00 10 04 00 
  400c10:	43 00 00 00 	addiu $4,$4,68
  400c14:	44 00 04 04 
  400c18:	02 00 00 00 	jal 410990 <printf>
  400c1c:	64 42 10 00 
  400c20:	28 00 00 00 	lw $31,16($29)
  400c24:	10 00 1f 1d 
  400c28:	43 00 00 00 	addiu $29,$29,24
  400c2c:	18 00 1d 1d 
  400c30:	03 00 00 00 	jr $31
  400c34:	00 00 00 1f 

00400c38 <WaitTimeout>:
  400c38:	43 00 00 00 	addiu $29,$29,-24
  400c3c:	e8 ff 1d 1d 
  400c40:	34 00 00 00 	sw $31,16($29)
  400c44:	10 00 1f 1d 
  400c48:	4f 00 00 00 	andi $5,$4,255
  400c4c:	ff 00 05 04 
  400c50:	a2 00 00 00 	lui $4,4096
  400c54:	00 10 04 00 
  400c58:	43 00 00 00 	addiu $4,$4,88
  400c5c:	58 00 04 04 
  400c60:	02 00 00 00 	jal 410990 <printf>
  400c64:	64 42 10 00 
  400c68:	28 00 00 00 	lw $31,16($29)
  400c6c:	10 00 1f 1d 
  400c70:	43 00 00 00 	addiu $29,$29,24
  400c74:	18 00 1d 1d 
  400c78:	03 00 00 00 	jr $31
  400c7c:	00 00 00 1f 

00400c80 <SetTimeSlice>:
  400c80:	43 00 00 00 	addiu $29,$29,-24
  400c84:	e8 ff 1d 1d 
  400c88:	34 00 00 00 	sw $31,16($29)
  400c8c:	10 00 1f 1d 
  400c90:	42 00 00 00 	addu $5,$0,$4
  400c94:	00 05 04 00 
  400c98:	a2 00 00 00 	lui $4,4096
  400c9c:	00 10 04 00 
  400ca0:	43 00 00 00 	addiu $4,$4,104
  400ca4:	68 00 04 04 
  400ca8:	02 00 00 00 	jal 410990 <printf>
  400cac:	64 42 10 00 
  400cb0:	28 00 00 00 	lw $31,16($29)
  400cb4:	10 00 1f 1d 
  400cb8:	43 00 00 00 	addiu $29,$29,24
  400cbc:	18 00 1d 1d 
  400cc0:	03 00 00 00 	jr $31
  400cc4:	00 00 00 1f 

00400cc8 <ShortDelay>:
  400cc8:	43 00 00 00 	addiu $29,$29,-24
  400ccc:	e8 ff 1d 1d 
  400cd0:	42 00 00 00 	addu $5,$0,$4
  400cd4:	00 05 04 00 
  400cd8:	a2 00 00 00 	lui $4,4096
  400cdc:	00 10 04 00 
  400ce0:	43 00 00 00 	addiu $4,$4,124
  400ce4:	7c 00 04 04 
  400ce8:	34 00 00 00 	sw $31,16($29)
  400cec:	10 00 1f 1d 
  400cf0:	02 00 00 00 	jal 410990 <printf>
  400cf4:	64 42 10 00 
  400cf8:	34 00 00 00 	sw $0,-32720($28)
  400cfc:	30 80 00 1c 
  400d00:	28 00 00 00 	lw $31,16($29)
  400d04:	10 00 1f 1d 
  400d08:	43 00 00 00 	addiu $29,$29,24
  400d0c:	18 00 1d 1d 
  400d10:	03 00 00 00 	jr $31
  400d14:	00 00 00 1f 

00400d18 <isr_send_message>:
  400d18:	43 00 00 00 	addiu $29,$29,-32
  400d1c:	e0 ff 1d 1d 
  400d20:	34 00 00 00 	sw $17,20($29)
  400d24:	14 00 11 1d 
  400d28:	4f 00 00 00 	andi $17,$4,255
  400d2c:	ff 00 11 04 
  400d30:	a2 00 00 00 	lui $4,4096
  400d34:	00 10 04 00 
  400d38:	43 00 00 00 	addiu $4,$4,140
  400d3c:	8c 00 04 04 
  400d40:	34 00 00 00 	sw $16,16($29)
  400d44:	10 00 10 1d 
  400d48:	4f 00 00 00 	andi $16,$5,65535
  400d4c:	ff ff 10 05 
  400d50:	42 00 00 00 	addu $5,$0,$17
  400d54:	00 05 11 00 
  400d58:	42 00 00 00 	addu $6,$0,$16
  400d5c:	00 06 10 00 
  400d60:	42 00 00 00 	addu $7,$0,$16
  400d64:	00 07 10 00 
  400d68:	34 00 00 00 	sw $31,24($29)
  400d6c:	18 00 1f 1d 
  400d70:	02 00 00 00 	jal 410990 <printf>
  400d74:	64 42 10 00 
  400d78:	42 00 00 00 	addu $4,$0,$17
  400d7c:	00 04 11 00 
  400d80:	42 00 00 00 	addu $5,$0,$16
  400d84:	00 05 10 00 
  400d88:	42 00 00 00 	addu $6,$0,$0
  400d8c:	00 06 00 00 
  400d90:	02 00 00 00 	jal 400f98 <SendTaskMail>
  400d94:	e6 03 10 00 
  400d98:	43 00 00 00 	addiu $2,$0,8
  400d9c:	08 00 02 00 
  400da0:	28 00 00 00 	lw $31,24($29)
  400da4:	18 00 1f 1d 
  400da8:	28 00 00 00 	lw $17,20($29)
  400dac:	14 00 11 1d 
  400db0:	28 00 00 00 	lw $16,16($29)
  400db4:	10 00 10 1d 
  400db8:	43 00 00 00 	addiu $29,$29,32
  400dbc:	20 00 1d 1d 
  400dc0:	03 00 00 00 	jr $31
  400dc4:	00 00 00 1f 

00400dc8 <AttachInterrupt>:
  400dc8:	43 00 00 00 	addiu $29,$29,-24
  400dcc:	e8 ff 1d 1d 
  400dd0:	34 00 00 00 	sw $31,16($29)
  400dd4:	10 00 1f 1d 
  400dd8:	4f 00 00 00 	andi $5,$4,255
  400ddc:	ff 00 05 04 
  400de0:	a2 00 00 00 	lui $4,4096
  400de4:	00 10 04 00 
  400de8:	43 00 00 00 	addiu $4,$4,184
  400dec:	b8 00 04 04 
  400df0:	02 00 00 00 	jal 410990 <printf>
  400df4:	64 42 10 00 
  400df8:	28 00 00 00 	lw $31,16($29)
  400dfc:	10 00 1f 1d 
  400e00:	43 00 00 00 	addiu $29,$29,24
  400e04:	18 00 1d 1d 
  400e08:	03 00 00 00 	jr $31
  400e0c:	00 00 00 1f 

00400e10 <EnableInterrupt>:
  400e10:	43 00 00 00 	addiu $29,$29,-24
  400e14:	e8 ff 1d 1d 
  400e18:	34 00 00 00 	sw $31,16($29)
  400e1c:	10 00 1f 1d 
  400e20:	4f 00 00 00 	andi $5,$4,255
  400e24:	ff 00 05 04 
  400e28:	a2 00 00 00 	lui $4,4096
  400e2c:	00 10 04 00 
  400e30:	43 00 00 00 	addiu $4,$4,204
  400e34:	cc 00 04 04 
  400e38:	02 00 00 00 	jal 410990 <printf>
  400e3c:	64 42 10 00 
  400e40:	28 00 00 00 	lw $31,16($29)
  400e44:	10 00 1f 1d 
  400e48:	43 00 00 00 	addiu $29,$29,24
  400e4c:	18 00 1d 1d 
  400e50:	03 00 00 00 	jr $31
  400e54:	00 00 00 1f 

00400e58 <DisableInterrupt>:
  400e58:	43 00 00 00 	addiu $29,$29,-24
  400e5c:	e8 ff 1d 1d 
  400e60:	34 00 00 00 	sw $31,16($29)
  400e64:	10 00 1f 1d 
  400e68:	4f 00 00 00 	andi $5,$4,255
  400e6c:	ff 00 05 04 
  400e70:	a2 00 00 00 	lui $4,4096
  400e74:	00 10 04 00 
  400e78:	43 00 00 00 	addiu $4,$4,224
  400e7c:	e0 00 04 04 
  400e80:	02 00 00 00 	jal 410990 <printf>
  400e84:	64 42 10 00 
  400e88:	28 00 00 00 	lw $31,16($29)
  400e8c:	10 00 1f 1d 
  400e90:	43 00 00 00 	addiu $29,$29,24
  400e94:	18 00 1d 1d 
  400e98:	03 00 00 00 	jr $31
  400e9c:	00 00 00 1f 

00400ea0 <SetInterruptMask>:
  400ea0:	43 00 00 00 	addiu $29,$29,-24
  400ea4:	e8 ff 1d 1d 
  400ea8:	34 00 00 00 	sw $31,16($29)
  400eac:	10 00 1f 1d 
  400eb0:	4f 00 00 00 	andi $5,$4,255
  400eb4:	ff 00 05 04 
  400eb8:	a2 00 00 00 	lui $4,4096
  400ebc:	00 10 04 00 
  400ec0:	43 00 00 00 	addiu $4,$4,248
  400ec4:	f8 00 04 04 
  400ec8:	02 00 00 00 	jal 410990 <printf>
  400ecc:	64 42 10 00 
  400ed0:	42 00 00 00 	addu $2,$0,$0
  400ed4:	00 02 00 00 
  400ed8:	28 00 00 00 	lw $31,16($29)
  400edc:	10 00 1f 1d 
  400ee0:	43 00 00 00 	addiu $29,$29,24
  400ee4:	18 00 1d 1d 
  400ee8:	03 00 00 00 	jr $31
  400eec:	00 00 00 1f 

00400ef0 <ResetInterruptMask>:
  400ef0:	43 00 00 00 	addiu $29,$29,-24
  400ef4:	e8 ff 1d 1d 
  400ef8:	34 00 00 00 	sw $31,16($29)
  400efc:	10 00 1f 1d 
  400f00:	4f 00 00 00 	andi $5,$4,255
  400f04:	ff 00 05 04 
  400f08:	a2 00 00 00 	lui $4,4096
  400f0c:	00 10 04 00 
  400f10:	43 00 00 00 	addiu $4,$4,272
  400f14:	10 01 04 04 
  400f18:	02 00 00 00 	jal 410990 <printf>
  400f1c:	64 42 10 00 
  400f20:	42 00 00 00 	addu $2,$0,$0
  400f24:	00 02 00 00 
  400f28:	28 00 00 00 	lw $31,16($29)
  400f2c:	10 00 1f 1d 
  400f30:	43 00 00 00 	addiu $29,$29,24
  400f34:	18 00 1d 1d 
  400f38:	03 00 00 00 	jr $31
  400f3c:	00 00 00 1f 

00400f40 <WaitInterrupt>:
  400f40:	43 00 00 00 	addiu $29,$29,-24
  400f44:	e8 ff 1d 1d 
  400f48:	34 00 00 00 	sw $31,16($29)
  400f4c:	10 00 1f 1d 
  400f50:	4f 00 00 00 	andi $2,$4,255
  400f54:	ff 00 02 04 
  400f58:	4f 00 00 00 	andi $6,$5,255
  400f5c:	ff 00 06 05 
  400f60:	a2 00 00 00 	lui $4,4096
  400f64:	00 10 04 00 
  400f68:	43 00 00 00 	addiu $4,$4,300
  400f6c:	2c 01 04 04 
  400f70:	42 00 00 00 	addu $5,$0,$2
  400f74:	00 05 02 00 
  400f78:	02 00 00 00 	jal 410990 <printf>
  400f7c:	64 42 10 00 
  400f80:	28 00 00 00 	lw $31,16($29)
  400f84:	10 00 1f 1d 
  400f88:	43 00 00 00 	addiu $29,$29,24
  400f8c:	18 00 1d 1d 
  400f90:	03 00 00 00 	jr $31
  400f94:	00 00 00 1f 

00400f98 <SendTaskMail>:
  400f98:	43 00 00 00 	addiu $29,$29,-32
  400f9c:	e0 ff 1d 1d 
  400fa0:	34 00 00 00 	sw $18,24($29)
  400fa4:	18 00 12 1d 
  400fa8:	42 00 00 00 	addu $18,$0,$4
  400fac:	00 12 04 00 
  400fb0:	34 00 00 00 	sw $17,20($29)
  400fb4:	14 00 11 1d 
  400fb8:	42 00 00 00 	addu $17,$0,$5
  400fbc:	00 11 05 00 
  400fc0:	a2 00 00 00 	lui $4,4096
  400fc4:	00 10 04 00 
  400fc8:	43 00 00 00 	addiu $4,$4,328
  400fcc:	48 01 04 04 
  400fd0:	34 00 00 00 	sw $16,16($29)
  400fd4:	10 00 10 1d 
  400fd8:	4f 00 00 00 	andi $16,$18,255
  400fdc:	ff 00 10 12 
  400fe0:	42 00 00 00 	addu $5,$0,$16
  400fe4:	00 05 10 00 
  400fe8:	4f 00 00 00 	andi $7,$6,255
  400fec:	ff 00 07 06 
  400ff0:	4f 00 00 00 	andi $6,$17,65535
  400ff4:	ff ff 06 11 
  400ff8:	34 00 00 00 	sw $31,28($29)
  400ffc:	1c 00 1f 1d 
  401000:	02 00 00 00 	jal 410990 <printf>
  401004:	64 42 10 00 
  401008:	55 00 00 00 	sll $2,$16,0x2
  40100c:	02 02 10 00 
  401010:	a2 00 00 00 	lui $6,4096
  401014:	00 10 06 00 
  401018:	42 00 00 00 	addu $6,$6,$2
  40101c:	00 06 02 06 
  401020:	28 00 00 00 	lw $6,11424($6)
  401024:	a0 2c 06 06 
  401028:	06 00 00 00 	bne $6,$0,401058 <SendTaskMail+0xc0>
  40102c:	0a 00 00 06 
  401030:	55 00 00 00 	sll $2,$16,0x1
  401034:	01 02 10 00 
  401038:	a2 00 00 00 	lui $1,4096
  40103c:	00 10 01 00 
  401040:	42 00 00 00 	addu $1,$1,$2
  401044:	00 01 02 01 
  401048:	32 00 00 00 	sh $17,13760($1)
  40104c:	c0 35 11 01 
  401050:	01 00 00 00 	j 401090 <SendTaskMail+0xf8>
  401054:	24 04 10 00 
  401058:	a2 00 00 00 	lui $4,4096
  40105c:	00 10 04 00 
  401060:	43 00 00 00 	addiu $4,$4,372
  401064:	74 01 04 04 
  401068:	42 00 00 00 	addu $5,$0,$16
  40106c:	00 05 10 00 
  401070:	02 00 00 00 	jal 410990 <printf>
  401074:	64 42 10 00 
  401078:	28 00 00 00 	lw $2,-32716($28)
  40107c:	34 80 02 1c 
  401080:	43 00 00 00 	addiu $2,$2,1
  401084:	01 00 02 02 
  401088:	34 00 00 00 	sw $2,-32716($28)
  40108c:	34 80 02 1c 
  401090:	4f 00 00 00 	andi $2,$18,255
  401094:	ff 00 02 12 
  401098:	a2 00 00 00 	lui $3,4096
  40109c:	00 10 03 00 
  4010a0:	43 00 00 00 	addiu $3,$3,11424
  4010a4:	a0 2c 03 03 
  4010a8:	55 00 00 00 	sll $2,$2,0x2
  4010ac:	02 02 02 00 
  4010b0:	42 00 00 00 	addu $2,$2,$3
  4010b4:	00 02 03 02 
  4010b8:	28 00 00 00 	lw $3,0($2)
  4010bc:	00 00 03 02 
  4010c0:	43 00 00 00 	addiu $3,$3,1
  4010c4:	01 00 03 03 
  4010c8:	34 00 00 00 	sw $3,0($2)
  4010cc:	00 00 03 02 
  4010d0:	28 00 00 00 	lw $31,28($29)
  4010d4:	1c 00 1f 1d 
  4010d8:	28 00 00 00 	lw $18,24($29)
  4010dc:	18 00 12 1d 
  4010e0:	28 00 00 00 	lw $17,20($29)
  4010e4:	14 00 11 1d 
  4010e8:	28 00 00 00 	lw $16,16($29)
  4010ec:	10 00 10 1d 
  4010f0:	43 00 00 00 	addiu $29,$29,32
  4010f4:	20 00 1d 1d 
  4010f8:	03 00 00 00 	jr $31
  4010fc:	00 00 00 1f 

00401100 <WaitMail>:
  401100:	43 00 00 00 	addiu $29,$29,-40
  401104:	d8 ff 1d 1d 
  401108:	34 00 00 00 	sw $16,24($29)
  40110c:	18 00 10 1d 
  401110:	42 00 00 00 	addu $16,$0,$4
  401114:	00 10 04 00 
  401118:	34 00 00 00 	sw $31,32($29)
  40111c:	20 00 1f 1d 
  401120:	34 00 00 00 	sw $17,28($29)
  401124:	1c 00 11 1d 
  401128:	22 00 00 00 	lbu $5,0($16)
  40112c:	00 00 05 10 
  401130:	22 00 00 00 	lbu $6,1($16)
  401134:	01 00 06 10 
  401138:	a2 00 00 00 	lui $4,4096
  40113c:	00 10 04 00 
  401140:	43 00 00 00 	addiu $4,$4,420
  401144:	a4 01 04 04 
  401148:	02 00 00 00 	jal 410990 <printf>
  40114c:	64 42 10 00 
  401150:	22 00 00 00 	lbu $2,0($16)
  401154:	00 00 02 10 
  401158:	55 00 00 00 	sll $2,$2,0x2
  40115c:	02 02 02 00 
  401160:	a2 00 00 00 	lui $1,4096
  401164:	00 10 01 00 
  401168:	42 00 00 00 	addu $1,$1,$2
  40116c:	00 01 02 01 
  401170:	28 00 00 00 	lw $2,11424($1)
  401174:	a0 2c 02 01 
  401178:	a2 00 00 00 	lui $17,4096
  40117c:	00 10 11 00 
  401180:	43 00 00 00 	addiu $17,$17,11424
  401184:	a0 2c 11 11 
  401188:	07 00 00 00 	blez $2,401250 <WaitMail+0x150>
  40118c:	30 00 00 02 
  401190:	22 00 00 00 	lbu $3,0($16)
  401194:	00 00 03 10 
  401198:	28 00 00 00 	lw $4,4($16)
  40119c:	04 00 04 10 
  4011a0:	43 00 00 00 	addiu $2,$0,1
  4011a4:	01 00 02 00 
  4011a8:	30 00 00 00 	sb $2,9($16)
  4011ac:	09 00 02 10 
  4011b0:	30 00 00 00 	sb $2,8($16)
  4011b4:	08 00 02 10 
  4011b8:	55 00 00 00 	sll $3,$3,0x1
  4011bc:	01 03 03 00 
  4011c0:	a2 00 00 00 	lui $2,4096
  4011c4:	00 10 02 00 
  4011c8:	42 00 00 00 	addu $2,$2,$3
  4011cc:	00 02 03 02 
  4011d0:	26 00 00 00 	lhu $2,13760($2)
  4011d4:	c0 35 02 02 
  4011d8:	32 00 00 00 	sh $2,0($4)
  4011dc:	00 00 02 04 
  4011e0:	28 00 00 00 	lw $2,4($16)
  4011e4:	04 00 02 10 
  4011e8:	26 00 00 00 	lhu $6,0($2)
  4011ec:	00 00 06 02 
  4011f0:	22 00 00 00 	lbu $5,0($16)
  4011f4:	00 00 05 10 
  4011f8:	a2 00 00 00 	lui $4,4096
  4011fc:	00 10 04 00 
  401200:	43 00 00 00 	addiu $4,$4,452
  401204:	c4 01 04 04 
  401208:	42 00 00 00 	addu $7,$0,$6
  40120c:	00 07 06 00 
  401210:	02 00 00 00 	jal 410990 <printf>
  401214:	64 42 10 00 
  401218:	22 00 00 00 	lbu $3,0($16)
  40121c:	00 00 03 10 
  401220:	55 00 00 00 	sll $3,$3,0x2
  401224:	02 03 03 00 
  401228:	42 00 00 00 	addu $3,$3,$17
  40122c:	00 03 11 03 
  401230:	28 00 00 00 	lw $2,0($3)
  401234:	00 00 02 03 
  401238:	43 00 00 00 	addiu $2,$2,-1
  40123c:	ff ff 02 02 
  401240:	34 00 00 00 	sw $2,0($3)
  401244:	00 00 02 03 
  401248:	01 00 00 00 	j 401278 <WaitMail+0x178>
  40124c:	9e 04 10 00 
  401250:	28 00 00 00 	lw $3,4($16)
  401254:	04 00 03 10 
  401258:	43 00 00 00 	addiu $2,$0,4
  40125c:	04 00 02 00 
  401260:	30 00 00 00 	sb $2,9($16)
  401264:	09 00 02 10 
  401268:	30 00 00 00 	sb $2,8($16)
  40126c:	08 00 02 10 
  401270:	32 00 00 00 	sh $0,0($3)
  401274:	00 00 00 03 
  401278:	28 00 00 00 	lw $31,32($29)
  40127c:	20 00 1f 1d 
  401280:	28 00 00 00 	lw $17,28($29)
  401284:	1c 00 11 1d 
  401288:	28 00 00 00 	lw $16,24($29)
  40128c:	18 00 10 1d 
  401290:	43 00 00 00 	addiu $29,$29,40
  401294:	28 00 1d 1d 
  401298:	03 00 00 00 	jr $31
  40129c:	00 00 00 1f 

004012a0 <FlushMail>:
  4012a0:	43 00 00 00 	addiu $29,$29,-24
  4012a4:	e8 ff 1d 1d 
  4012a8:	4f 00 00 00 	andi $5,$4,255
  4012ac:	ff 00 05 04 
  4012b0:	a2 00 00 00 	lui $2,4096
  4012b4:	00 10 02 00 
  4012b8:	43 00 00 00 	addiu $2,$2,11424
  4012bc:	a0 2c 02 02 
  4012c0:	34 00 00 00 	sw $16,16($29)
  4012c4:	10 00 10 1d 
  4012c8:	55 00 00 00 	sll $16,$5,0x2
  4012cc:	02 10 05 00 
  4012d0:	42 00 00 00 	addu $16,$16,$2
  4012d4:	00 10 02 10 
  4012d8:	34 00 00 00 	sw $31,20($29)
  4012dc:	14 00 1f 1d 
  4012e0:	28 00 00 00 	lw $6,0($16)
  4012e4:	00 00 06 10 
  4012e8:	a2 00 00 00 	lui $4,4096
  4012ec:	00 10 04 00 
  4012f0:	43 00 00 00 	addiu $4,$4,484
  4012f4:	e4 01 04 04 
  4012f8:	02 00 00 00 	jal 410990 <printf>
  4012fc:	64 42 10 00 
  401300:	34 00 00 00 	sw $0,0($16)
  401304:	00 00 00 10 
  401308:	28 00 00 00 	lw $31,20($29)
  40130c:	14 00 1f 1d 
  401310:	28 00 00 00 	lw $16,16($29)
  401314:	10 00 10 1d 
  401318:	43 00 00 00 	addiu $29,$29,24
  40131c:	18 00 1d 1d 
  401320:	03 00 00 00 	jr $31
  401324:	00 00 00 1f 

00401328 <Check_Current>:
  401328:	43 00 00 00 	addiu $29,$29,-24
  40132c:	e8 ff 1d 1d 
  401330:	34 00 00 00 	sw $16,16($29)
  401334:	10 00 10 1d 
  401338:	4f 00 00 00 	andi $16,$4,255
  40133c:	ff 00 10 04 
  401340:	a2 00 00 00 	lui $4,4096
  401344:	00 10 04 00 
  401348:	43 00 00 00 	addiu $4,$4,532
  40134c:	14 02 04 04 
  401350:	42 00 00 00 	addu $5,$0,$16
  401354:	00 05 10 00 
  401358:	34 00 00 00 	sw $31,20($29)
  40135c:	14 00 1f 1d 
  401360:	02 00 00 00 	jal 410990 <printf>
  401364:	64 42 10 00 
  401368:	43 00 00 00 	addiu $2,$0,12
  40136c:	0c 00 02 00 
  401370:	05 00 00 00 	beq $16,$2,4013d8 <Check_Current+0xb0>
  401374:	18 00 02 10 
  401378:	5c 00 00 00 	slti $2,$16,13
  40137c:	0d 00 02 10 
  401380:	05 00 00 00 	beq $2,$0,4013a0 <Check_Current+0x78>
  401384:	06 00 00 02 
  401388:	43 00 00 00 	addiu $2,$0,3
  40138c:	03 00 02 00 
  401390:	05 00 00 00 	beq $16,$2,4013c8 <Check_Current+0xa0>
  401394:	0c 00 02 10 
  401398:	01 00 00 00 	j 401408 <Check_Current+0xe0>
  40139c:	02 05 10 00 
  4013a0:	43 00 00 00 	addiu $2,$0,48
  4013a4:	30 00 02 00 
  4013a8:	05 00 00 00 	beq $16,$2,4013e8 <Check_Current+0xc0>
  4013ac:	0e 00 02 10 
  4013b0:	43 00 00 00 	addiu $2,$0,192
  4013b4:	c0 00 02 00 
  4013b8:	05 00 00 00 	beq $16,$2,4013f8 <Check_Current+0xd0>
  4013bc:	0e 00 02 10 
  4013c0:	01 00 00 00 	j 401408 <Check_Current+0xe0>
  4013c4:	02 05 10 00 
  4013c8:	43 00 00 00 	addiu $16,$0,1
  4013cc:	01 00 10 00 
  4013d0:	01 00 00 00 	j 401428 <Check_Current+0x100>
  4013d4:	0a 05 10 00 
  4013d8:	43 00 00 00 	addiu $16,$0,4
  4013dc:	04 00 10 00 
  4013e0:	01 00 00 00 	j 401428 <Check_Current+0x100>
  4013e4:	0a 05 10 00 
  4013e8:	43 00 00 00 	addiu $16,$0,16
  4013ec:	10 00 10 00 
  4013f0:	01 00 00 00 	j 401428 <Check_Current+0x100>
  4013f4:	0a 05 10 00 
  4013f8:	43 00 00 00 	addiu $16,$0,64
  4013fc:	40 00 10 00 
  401400:	01 00 00 00 	j 401428 <Check_Current+0x100>
  401404:	0a 05 10 00 
  401408:	42 00 00 00 	addu $16,$0,$0
  40140c:	00 10 00 00 
  401410:	a2 00 00 00 	lui $4,4096
  401414:	00 10 04 00 
  401418:	43 00 00 00 	addiu $4,$4,552
  40141c:	28 02 04 04 
  401420:	02 00 00 00 	jal 410990 <printf>
  401424:	64 42 10 00 
  401428:	28 00 00 00 	lw $2,-32712($28)
  40142c:	38 80 02 1c 
  401430:	05 00 00 00 	beq $2,$0,401450 <Check_Current+0x128>
  401434:	06 00 00 02 
  401438:	54 00 00 00 	nor $16,$0,$16
  40143c:	00 10 10 00 
  401440:	43 00 00 00 	addiu $2,$2,-1
  401444:	ff ff 02 02 
  401448:	34 00 00 00 	sw $2,-32712($28)
  40144c:	38 80 02 1c 
  401450:	4f 00 00 00 	andi $2,$16,255
  401454:	ff 00 02 10 
  401458:	28 00 00 00 	lw $31,20($29)
  40145c:	14 00 1f 1d 
  401460:	28 00 00 00 	lw $16,16($29)
  401464:	10 00 10 1d 
  401468:	43 00 00 00 	addiu $29,$29,24
  40146c:	18 00 1d 1d 
  401470:	03 00 00 00 	jr $31
  401474:	00 00 00 1f 

00401478 <Reboot>:
  401478:	43 00 00 00 	addiu $29,$29,-24
  40147c:	e8 ff 1d 1d 
  401480:	34 00 00 00 	sw $16,16($29)
  401484:	10 00 10 1d 
  401488:	42 00 00 00 	addu $16,$0,$4
  40148c:	00 10 04 00 
  401490:	a2 00 00 00 	lui $4,4096
  401494:	00 10 04 00 
  401498:	43 00 00 00 	addiu $4,$4,580
  40149c:	44 02 04 04 
  4014a0:	42 00 00 00 	addu $5,$0,$16
  4014a4:	00 05 10 00 
  4014a8:	34 00 00 00 	sw $31,20($29)
  4014ac:	14 00 1f 1d 
  4014b0:	02 00 00 00 	jal 410990 <printf>
  4014b4:	64 42 10 00 
  4014b8:	43 00 00 00 	addiu $2,$0,5
  4014bc:	05 00 02 00 
  4014c0:	06 00 00 00 	bne $16,$2,4014d8 <Reboot+0x60>
  4014c4:	04 00 02 10 
  4014c8:	22 00 00 00 	lbu $2,-32064($28)
  4014cc:	c0 82 02 1c 
  4014d0:	30 00 00 00 	sb $2,-32042($28)
  4014d4:	d6 82 02 1c 
  4014d8:	a2 00 00 00 	lui $4,4096
  4014dc:	00 10 04 00 
  4014e0:	43 00 00 00 	addiu $4,$4,592
  4014e4:	50 02 04 04 
  4014e8:	02 00 00 00 	jal 410990 <printf>
  4014ec:	64 42 10 00 
  4014f0:	28 00 00 00 	lw $31,20($29)
  4014f4:	14 00 1f 1d 
  4014f8:	28 00 00 00 	lw $16,16($29)
  4014fc:	10 00 10 1d 
  401500:	43 00 00 00 	addiu $29,$29,24
  401504:	18 00 1d 1d 
  401508:	03 00 00 00 	jr $31
  40150c:	00 00 00 1f 

00401510 <TestMemBits>:
  401510:	43 00 00 00 	addiu $29,$29,-24
  401514:	e8 ff 1d 1d 
  401518:	34 00 00 00 	sw $31,16($29)
  40151c:	10 00 1f 1d 
  401520:	4f 00 00 00 	andi $5,$4,65535
  401524:	ff ff 05 04 
  401528:	a2 00 00 00 	lui $4,4096
  40152c:	00 10 04 00 
  401530:	43 00 00 00 	addiu $4,$4,608
  401534:	60 02 04 04 
  401538:	02 00 00 00 	jal 410990 <printf>
  40153c:	64 42 10 00 
  401540:	42 00 00 00 	addu $2,$0,$0
  401544:	00 02 00 00 
  401548:	28 00 00 00 	lw $31,16($29)
  40154c:	10 00 1f 1d 
  401550:	43 00 00 00 	addiu $29,$29,24
  401554:	18 00 1d 1d 
  401558:	03 00 00 00 	jr $31
  40155c:	00 00 00 1f 

00401560 <TestMemData>:
  401560:	43 00 00 00 	addiu $29,$29,-24
  401564:	e8 ff 1d 1d 
  401568:	34 00 00 00 	sw $31,16($29)
  40156c:	10 00 1f 1d 
  401570:	42 00 00 00 	addu $6,$0,$5
  401574:	00 06 05 00 
  401578:	4f 00 00 00 	andi $5,$4,65535
  40157c:	ff ff 05 04 
  401580:	a2 00 00 00 	lui $4,4096
  401584:	00 10 04 00 
  401588:	43 00 00 00 	addiu $4,$4,628
  40158c:	74 02 04 04 
  401590:	02 00 00 00 	jal 410990 <printf>
  401594:	64 42 10 00 
  401598:	42 00 00 00 	addu $2,$0,$0
  40159c:	00 02 00 00 
  4015a0:	28 00 00 00 	lw $31,16($29)
  4015a4:	10 00 1f 1d 
  4015a8:	43 00 00 00 	addiu $29,$29,24
  4015ac:	18 00 1d 1d 
  4015b0:	03 00 00 00 	jr $31
  4015b4:	00 00 00 1f 

004015b8 <TestMemSeq>:
  4015b8:	43 00 00 00 	addiu $29,$29,-24
  4015bc:	e8 ff 1d 1d 
  4015c0:	34 00 00 00 	sw $31,16($29)
  4015c4:	10 00 1f 1d 
  4015c8:	42 00 00 00 	addu $6,$0,$5
  4015cc:	00 06 05 00 
  4015d0:	4f 00 00 00 	andi $5,$4,65535
  4015d4:	ff ff 05 04 
  4015d8:	a2 00 00 00 	lui $4,4096
  4015dc:	00 10 04 00 
  4015e0:	43 00 00 00 	addiu $4,$4,664
  4015e4:	98 02 04 04 
  4015e8:	02 00 00 00 	jal 410990 <printf>
  4015ec:	64 42 10 00 
  4015f0:	42 00 00 00 	addu $2,$0,$0
  4015f4:	00 02 00 00 
  4015f8:	28 00 00 00 	lw $31,16($29)
  4015fc:	10 00 1f 1d 
  401600:	43 00 00 00 	addiu $29,$29,24
  401604:	18 00 1d 1d 
  401608:	03 00 00 00 	jr $31
  40160c:	00 00 00 1f 

00401610 <Read_TC_MSB>:
  401610:	43 00 00 00 	addiu $29,$29,-24
  401614:	e8 ff 1d 1d 
  401618:	a2 00 00 00 	lui $4,4096
  40161c:	00 10 04 00 
  401620:	43 00 00 00 	addiu $4,$4,700
  401624:	bc 02 04 04 
  401628:	34 00 00 00 	sw $31,16($29)
  40162c:	10 00 1f 1d 
  401630:	02 00 00 00 	jal 410990 <printf>
  401634:	64 42 10 00 
  401638:	22 00 00 00 	lbu $2,-32176($28)
  40163c:	50 82 02 1c 
  401640:	28 00 00 00 	lw $31,16($29)
  401644:	10 00 1f 1d 
  401648:	43 00 00 00 	addiu $29,$29,24
  40164c:	18 00 1d 1d 
  401650:	03 00 00 00 	jr $31
  401654:	00 00 00 1f 

00401658 <Read_TC_LSB>:
  401658:	43 00 00 00 	addiu $29,$29,-24
  40165c:	e8 ff 1d 1d 
  401660:	a2 00 00 00 	lui $4,4096
  401664:	00 10 04 00 
  401668:	43 00 00 00 	addiu $4,$4,716
  40166c:	cc 02 04 04 
  401670:	34 00 00 00 	sw $31,16($29)
  401674:	10 00 1f 1d 
  401678:	02 00 00 00 	jal 410990 <printf>
  40167c:	64 42 10 00 
  401680:	22 00 00 00 	lbu $2,-32175($28)
  401684:	51 82 02 1c 
  401688:	28 00 00 00 	lw $31,16($29)
  40168c:	10 00 1f 1d 
  401690:	43 00 00 00 	addiu $29,$29,24
  401694:	18 00 1d 1d 
  401698:	03 00 00 00 	jr $31
  40169c:	00 00 00 1f 

004016a0 <Write_TM_LSB>:
  4016a0:	43 00 00 00 	addiu $29,$29,-24
  4016a4:	e8 ff 1d 1d 
  4016a8:	34 00 00 00 	sw $16,16($29)
  4016ac:	10 00 10 1d 
  4016b0:	42 00 00 00 	addu $16,$0,$4
  4016b4:	00 10 04 00 
  4016b8:	4f 00 00 00 	andi $5,$16,255
  4016bc:	ff 00 05 10 
  4016c0:	a2 00 00 00 	lui $4,4096
  4016c4:	00 10 04 00 
  4016c8:	43 00 00 00 	addiu $4,$4,732
  4016cc:	dc 02 04 04 
  4016d0:	42 00 00 00 	addu $6,$0,$5
  4016d4:	00 06 05 00 
  4016d8:	34 00 00 00 	sw $31,20($29)
  4016dc:	14 00 1f 1d 
  4016e0:	02 00 00 00 	jal 410990 <printf>
  4016e4:	64 42 10 00 
  4016e8:	30 00 00 00 	sb $16,-32171($28)
  4016ec:	55 82 10 1c 
  4016f0:	28 00 00 00 	lw $31,20($29)
  4016f4:	14 00 1f 1d 
  4016f8:	28 00 00 00 	lw $16,16($29)
  4016fc:	10 00 10 1d 
  401700:	43 00 00 00 	addiu $29,$29,24
  401704:	18 00 1d 1d 
  401708:	03 00 00 00 	jr $31
  40170c:	00 00 00 1f 

00401710 <Write_TM_MSB>:
  401710:	43 00 00 00 	addiu $29,$29,-24
  401714:	e8 ff 1d 1d 
  401718:	34 00 00 00 	sw $16,16($29)
  40171c:	10 00 10 1d 
  401720:	42 00 00 00 	addu $16,$0,$4
  401724:	00 10 04 00 
  401728:	4f 00 00 00 	andi $5,$16,255
  40172c:	ff 00 05 10 
  401730:	a2 00 00 00 	lui $4,4096
  401734:	00 10 04 00 
  401738:	43 00 00 00 	addiu $4,$4,756
  40173c:	f4 02 04 04 
  401740:	42 00 00 00 	addu $6,$0,$5
  401744:	00 06 05 00 
  401748:	34 00 00 00 	sw $31,20($29)
  40174c:	14 00 1f 1d 
  401750:	02 00 00 00 	jal 410990 <printf>
  401754:	64 42 10 00 
  401758:	30 00 00 00 	sb $16,-32172($28)
  40175c:	54 82 10 1c 
  401760:	28 00 00 00 	lw $31,20($29)
  401764:	14 00 1f 1d 
  401768:	28 00 00 00 	lw $16,16($29)
  40176c:	10 00 10 1d 
  401770:	43 00 00 00 	addiu $29,$29,24
  401774:	18 00 1d 1d 
  401778:	03 00 00 00 	jr $31
  40177c:	00 00 00 1f 

00401780 <TC_Timer_Overflow_Flag>:
  401780:	43 00 00 00 	addiu $29,$29,-24
  401784:	e8 ff 1d 1d 
  401788:	a2 00 00 00 	lui $4,4096
  40178c:	00 10 04 00 
  401790:	43 00 00 00 	addiu $4,$4,780
  401794:	0c 03 04 04 
  401798:	34 00 00 00 	sw $31,16($29)
  40179c:	10 00 1f 1d 
  4017a0:	02 00 00 00 	jal 410990 <printf>
  4017a4:	64 42 10 00 
  4017a8:	22 00 00 00 	lbu $2,-32708($28)
  4017ac:	3c 80 02 1c 
  4017b0:	28 00 00 00 	lw $31,16($29)
  4017b4:	10 00 1f 1d 
  4017b8:	43 00 00 00 	addiu $29,$29,24
  4017bc:	18 00 1d 1d 
  4017c0:	03 00 00 00 	jr $31
  4017c4:	00 00 00 1f 

004017c8 <Clear_TC_Timer_Overflow_Flag>:
  4017c8:	43 00 00 00 	addiu $29,$29,-24
  4017cc:	e8 ff 1d 1d 
  4017d0:	a2 00 00 00 	lui $4,4096
  4017d4:	00 10 04 00 
  4017d8:	43 00 00 00 	addiu $4,$4,804
  4017dc:	24 03 04 04 
  4017e0:	34 00 00 00 	sw $31,16($29)
  4017e4:	10 00 1f 1d 
  4017e8:	02 00 00 00 	jal 410990 <printf>
  4017ec:	64 42 10 00 
  4017f0:	30 00 00 00 	sb $0,-32708($28)
  4017f4:	3c 80 00 1c 
  4017f8:	28 00 00 00 	lw $31,16($29)
  4017fc:	10 00 1f 1d 
  401800:	43 00 00 00 	addiu $29,$29,24
  401804:	18 00 1d 1d 
  401808:	03 00 00 00 	jr $31
  40180c:	00 00 00 1f 

00401810 <Set_TC_Timer_Overflow_Flag>:
  401810:	43 00 00 00 	addiu $29,$29,-24
  401814:	e8 ff 1d 1d 
  401818:	a2 00 00 00 	lui $4,4096
  40181c:	00 10 04 00 
  401820:	43 00 00 00 	addiu $4,$4,836
  401824:	44 03 04 04 
  401828:	34 00 00 00 	sw $31,16($29)
  40182c:	10 00 1f 1d 
  401830:	02 00 00 00 	jal 410990 <printf>
  401834:	64 42 10 00 
  401838:	43 00 00 00 	addiu $2,$0,1
  40183c:	01 00 02 00 
  401840:	30 00 00 00 	sb $2,-32708($28)
  401844:	3c 80 02 1c 
  401848:	28 00 00 00 	lw $31,16($29)
  40184c:	10 00 1f 1d 
  401850:	43 00 00 00 	addiu $29,$29,24
  401854:	18 00 1d 1d 
  401858:	03 00 00 00 	jr $31
  40185c:	00 00 00 1f 

00401860 <Set_AD_Unlimited>:
  401860:	43 00 00 00 	addiu $29,$29,-24
  401864:	e8 ff 1d 1d 
  401868:	34 00 00 00 	sw $31,16($29)
  40186c:	10 00 1f 1d 
  401870:	a2 00 00 00 	lui $4,4096
  401874:	00 10 04 00 
  401878:	43 00 00 00 	addiu $4,$4,864
  40187c:	60 03 04 04 
  401880:	02 00 00 00 	jal 410990 <printf>
  401884:	64 42 10 00 
  401888:	42 00 00 00 	addu $4,$0,$0
  40188c:	00 04 00 00 
  401890:	51 00 00 00 	ori $5,$0,65535
  401894:	ff ff 05 00 
  401898:	42 00 00 00 	addu $3,$0,$0
  40189c:	00 03 00 00 
  4018a0:	a2 00 00 00 	lui $1,4096
  4018a4:	00 10 01 00 
  4018a8:	42 00 00 00 	addu $1,$1,$3
  4018ac:	00 01 03 01 
  4018b0:	32 00 00 00 	sh $0,11456($1)
  4018b4:	c0 2c 00 01 
  4018b8:	a2 00 00 00 	lui $1,4096
  4018bc:	00 10 01 00 
  4018c0:	42 00 00 00 	addu $1,$1,$3
  4018c4:	00 01 03 01 
  4018c8:	32 00 00 00 	sh $5,11458($1)
  4018cc:	c2 2c 05 01 
  4018d0:	43 00 00 00 	addiu $3,$3,4
  4018d4:	04 00 03 03 
  4018d8:	43 00 00 00 	addiu $4,$4,1
  4018dc:	01 00 04 04 
  4018e0:	5e 00 00 00 	sltiu $2,$4,40
  4018e4:	28 00 02 04 
  4018e8:	06 00 00 00 	bne $2,$0,4018a0 <Set_AD_Unlimited+0x40>
  4018ec:	ec ff 00 02 
  4018f0:	28 00 00 00 	lw $31,16($29)
  4018f4:	10 00 1f 1d 
  4018f8:	43 00 00 00 	addiu $29,$29,24
  4018fc:	18 00 1d 1d 
  401900:	03 00 00 00 	jr $31
  401904:	00 00 00 1f 

00401908 <Set_AD_Nominal>:
  401908:	43 00 00 00 	addiu $29,$29,-24
  40190c:	e8 ff 1d 1d 
  401910:	a2 00 00 00 	lui $4,4096
  401914:	00 10 04 00 
  401918:	43 00 00 00 	addiu $4,$4,884
  40191c:	74 03 04 04 
  401920:	34 00 00 00 	sw $31,16($29)
  401924:	10 00 1f 1d 
  401928:	02 00 00 00 	jal 410990 <printf>
  40192c:	64 42 10 00 
  401930:	51 00 00 00 	ori $5,$0,47616
  401934:	00 ba 05 00 
  401938:	51 00 00 00 	ori $4,$0,58623
  40193c:	ff e4 04 00 
  401940:	43 00 00 00 	addiu $3,$0,3328
  401944:	00 0d 03 00 
  401948:	43 00 00 00 	addiu $2,$0,8959
  40194c:	ff 22 02 00 
  401950:	a2 00 00 00 	lui $1,4096
  401954:	00 10 01 00 
  401958:	32 00 00 00 	sh $2,11538($1)
  40195c:	12 2d 02 01 
  401960:	a2 00 00 00 	lui $1,4096
  401964:	00 10 01 00 
  401968:	32 00 00 00 	sh $2,11542($1)
  40196c:	16 2d 02 01 
  401970:	51 00 00 00 	ori $2,$0,43008
  401974:	00 a8 02 00 
  401978:	a2 00 00 00 	lui $1,4096
  40197c:	00 10 01 00 
  401980:	32 00 00 00 	sh $2,11528($1)
  401984:	08 2d 02 01 
  401988:	51 00 00 00 	ori $2,$0,58367
  40198c:	ff e3 02 00 
  401990:	a2 00 00 00 	lui $1,4096
  401994:	00 10 01 00 
  401998:	32 00 00 00 	sh $2,11530($1)
  40199c:	0a 2d 02 01 
  4019a0:	43 00 00 00 	addiu $2,$0,3584
  4019a4:	00 0e 02 00 
  4019a8:	a2 00 00 00 	lui $1,4096
  4019ac:	00 10 01 00 
  4019b0:	32 00 00 00 	sh $2,11544($1)
  4019b4:	18 2d 02 01 
  4019b8:	43 00 00 00 	addiu $2,$0,11519
  4019bc:	ff 2c 02 00 
  4019c0:	a2 00 00 00 	lui $1,4096
  4019c4:	00 10 01 00 
  4019c8:	32 00 00 00 	sh $3,11536($1)
  4019cc:	10 2d 03 01 
  4019d0:	a2 00 00 00 	lui $1,4096
  4019d4:	00 10 01 00 
  4019d8:	32 00 00 00 	sh $3,11540($1)
  4019dc:	14 2d 03 01 
  4019e0:	51 00 00 00 	ori $3,$0,64255
  4019e4:	ff fa 03 00 
  4019e8:	a2 00 00 00 	lui $1,4096
  4019ec:	00 10 01 00 
  4019f0:	32 00 00 00 	sh $2,11546($1)
  4019f4:	1a 2d 02 01 
  4019f8:	51 00 00 00 	ori $2,$0,62719
  4019fc:	ff f4 02 00 
  401a00:	a2 00 00 00 	lui $1,4096
  401a04:	00 10 01 00 
  401a08:	32 00 00 00 	sh $5,11520($1)
  401a0c:	00 2d 05 01 
  401a10:	a2 00 00 00 	lui $1,4096
  401a14:	00 10 01 00 
  401a18:	32 00 00 00 	sh $4,11522($1)
  401a1c:	02 2d 04 01 
  401a20:	a2 00 00 00 	lui $1,4096
  401a24:	00 10 01 00 
  401a28:	32 00 00 00 	sh $5,11524($1)
  401a2c:	04 2d 05 01 
  401a30:	a2 00 00 00 	lui $1,4096
  401a34:	00 10 01 00 
  401a38:	32 00 00 00 	sh $4,11526($1)
  401a3c:	06 2d 04 01 
  401a40:	a2 00 00 00 	lui $1,4096
  401a44:	00 10 01 00 
  401a48:	32 00 00 00 	sh $5,11532($1)
  401a4c:	0c 2d 05 01 
  401a50:	a2 00 00 00 	lui $1,4096
  401a54:	00 10 01 00 
  401a58:	32 00 00 00 	sh $4,11534($1)
  401a5c:	0e 2d 04 01 
  401a60:	a2 00 00 00 	lui $1,4096
  401a64:	00 10 01 00 
  401a68:	32 00 00 00 	sh $0,11476($1)
  401a6c:	d4 2c 00 01 
  401a70:	a2 00 00 00 	lui $1,4096
  401a74:	00 10 01 00 
  401a78:	32 00 00 00 	sh $3,11478($1)
  401a7c:	d6 2c 03 01 
  401a80:	a2 00 00 00 	lui $1,4096
  401a84:	00 10 01 00 
  401a88:	32 00 00 00 	sh $0,11480($1)
  401a8c:	d8 2c 00 01 
  401a90:	a2 00 00 00 	lui $1,4096
  401a94:	00 10 01 00 
  401a98:	32 00 00 00 	sh $2,11482($1)
  401a9c:	da 2c 02 01 
  401aa0:	a2 00 00 00 	lui $1,4096
  401aa4:	00 10 01 00 
  401aa8:	32 00 00 00 	sh $0,11508($1)
  401aac:	f4 2c 00 01 
  401ab0:	a2 00 00 00 	lui $1,4096
  401ab4:	00 10 01 00 
  401ab8:	32 00 00 00 	sh $3,11510($1)
  401abc:	f6 2c 03 01 
  401ac0:	a2 00 00 00 	lui $1,4096
  401ac4:	00 10 01 00 
  401ac8:	32 00 00 00 	sh $0,11512($1)
  401acc:	f8 2c 00 01 
  401ad0:	a2 00 00 00 	lui $1,4096
  401ad4:	00 10 01 00 
  401ad8:	32 00 00 00 	sh $2,11514($1)
  401adc:	fa 2c 02 01 
  401ae0:	a2 00 00 00 	lui $1,4096
  401ae4:	00 10 01 00 
  401ae8:	32 00 00 00 	sh $0,11572($1)
  401aec:	34 2d 00 01 
  401af0:	a2 00 00 00 	lui $1,4096
  401af4:	00 10 01 00 
  401af8:	32 00 00 00 	sh $3,11574($1)
  401afc:	36 2d 03 01 
  401b00:	a2 00 00 00 	lui $1,4096
  401b04:	00 10 01 00 
  401b08:	32 00 00 00 	sh $0,11576($1)
  401b0c:	38 2d 00 01 
  401b10:	a2 00 00 00 	lui $1,4096
  401b14:	00 10 01 00 
  401b18:	32 00 00 00 	sh $2,11578($1)
  401b1c:	3a 2d 02 01 
  401b20:	a2 00 00 00 	lui $1,4096
  401b24:	00 10 01 00 
  401b28:	32 00 00 00 	sh $0,11604($1)
  401b2c:	54 2d 00 01 
  401b30:	a2 00 00 00 	lui $1,4096
  401b34:	00 10 01 00 
  401b38:	32 00 00 00 	sh $3,11606($1)
  401b3c:	56 2d 03 01 
  401b40:	a2 00 00 00 	lui $1,4096
  401b44:	00 10 01 00 
  401b48:	32 00 00 00 	sh $0,11608($1)
  401b4c:	58 2d 00 01 
  401b50:	a2 00 00 00 	lui $1,4096
  401b54:	00 10 01 00 
  401b58:	32 00 00 00 	sh $2,11610($1)
  401b5c:	5a 2d 02 01 
  401b60:	28 00 00 00 	lw $31,16($29)
  401b64:	10 00 1f 1d 
  401b68:	43 00 00 00 	addiu $29,$29,24
  401b6c:	18 00 1d 1d 
  401b70:	03 00 00 00 	jr $31
  401b74:	00 00 00 1f 

00401b78 <Next>:
  401b78:	28 00 00 00 	lw $2,0($4)
  401b7c:	00 00 02 04 
  401b80:	43 00 00 00 	addiu $2,$2,1
  401b84:	01 00 02 02 
  401b88:	34 00 00 00 	sw $2,0($4)
  401b8c:	00 00 02 04 
  401b90:	5e 00 00 00 	sltiu $2,$2,319
  401b94:	3f 01 02 02 
  401b98:	06 00 00 00 	bne $2,$0,401ba8 <Next+0x30>
  401b9c:	02 00 00 02 
  401ba0:	34 00 00 00 	sw $0,0($4)
  401ba4:	00 00 00 04 
  401ba8:	03 00 00 00 	jr $31
  401bac:	00 00 00 1f 

00401bb0 <Next_Rand>:
  401bb0:	43 00 00 00 	addiu $29,$29,-24
  401bb4:	e8 ff 1d 1d 
  401bb8:	34 00 00 00 	sw $16,16($29)
  401bbc:	10 00 10 1d 
  401bc0:	42 00 00 00 	addu $16,$0,$4
  401bc4:	00 10 04 00 
  401bc8:	34 00 00 00 	sw $31,20($29)
  401bcc:	14 00 1f 1d 
  401bd0:	02 00 00 00 	jal 401b78 <Next>
  401bd4:	de 06 10 00 
  401bd8:	28 00 00 00 	lw $2,0($16)
  401bdc:	00 00 02 10 
  401be0:	a2 00 00 00 	lui $1,4096
  401be4:	00 10 01 00 
  401be8:	42 00 00 00 	addu $1,$1,$2
  401bec:	00 01 02 01 
  401bf0:	22 00 00 00 	lbu $2,11616($1)
  401bf4:	60 2d 02 01 
  401bf8:	28 00 00 00 	lw $31,20($29)
  401bfc:	14 00 1f 1d 
  401c00:	28 00 00 00 	lw $16,16($29)
  401c04:	10 00 10 1d 
  401c08:	43 00 00 00 	addiu $29,$29,24
  401c0c:	18 00 1d 1d 
  401c10:	03 00 00 00 	jr $31
  401c14:	00 00 00 1f 

00401c18 <Set_AD_Delay>:
  401c18:	43 00 00 00 	addiu $3,$0,5
  401c1c:	05 00 03 00 
  401c20:	a2 00 00 00 	lui $2,4096
  401c24:	00 10 02 00 
  401c28:	43 00 00 00 	addiu $2,$2,13796
  401c2c:	e4 35 02 02 
  401c30:	34 00 00 00 	sw $4,0($2)
  401c34:	00 00 04 02 
  401c38:	43 00 00 00 	addiu $2,$2,-4
  401c3c:	fc ff 02 02 
  401c40:	43 00 00 00 	addiu $3,$3,-1
  401c44:	ff ff 03 03 
  401c48:	0a 00 00 00 	bgez $3,401c30 <Set_AD_Delay+0x18>
  401c4c:	f8 ff 00 03 
  401c50:	03 00 00 00 	jr $31
  401c54:	00 00 00 1f 

00401c58 <Random_AD_Delay>:
  401c58:	43 00 00 00 	addiu $29,$29,-40
  401c5c:	d8 ff 1d 1d 
  401c60:	34 00 00 00 	sw $19,28($29)
  401c64:	1c 00 13 1d 
  401c68:	34 00 00 00 	sw $18,24($29)
  401c6c:	18 00 12 1d 
  401c70:	29 00 00 00 	dlw $18,-32688($28)
  401c74:	50 80 12 1c 
  401c78:	34 00 00 00 	sw $17,20($29)
  401c7c:	14 00 11 1d 
  401c80:	42 00 00 00 	addu $17,$0,$0
  401c84:	00 11 00 00 
  401c88:	34 00 00 00 	sw $16,16($29)
  401c8c:	10 00 10 1d 
  401c90:	a2 00 00 00 	lui $16,4096
  401c94:	00 10 10 00 
  401c98:	43 00 00 00 	addiu $16,$16,13776
  401c9c:	d0 35 10 10 
  401ca0:	34 00 00 00 	sw $31,32($29)
  401ca4:	20 00 1f 1d 
  401ca8:	43 00 00 00 	addiu $4,$28,-32700
  401cac:	44 80 04 1c 
  401cb0:	02 00 00 00 	jal 401bb0 <Next_Rand>
  401cb4:	ec 06 10 00 
  401cb8:	4f 00 00 00 	andi $2,$2,255
  401cbc:	ff 00 02 02 
  401cc0:	47 00 00 00 	multu $2,$18
  401cc4:	00 00 12 02 
  401cc8:	4a 00 00 00 	mfhi $5
  401ccc:	00 05 00 00 
  401cd0:	4c 00 00 00 	mflo $4
  401cd4:	00 04 00 00 
  401cd8:	43 00 00 00 	addiu $17,$17,1
  401cdc:	01 00 11 11 
  401ce0:	57 00 00 00 	srl $4,$5,0x0
  401ce4:	00 04 05 00 
  401ce8:	42 00 00 00 	addu $5,$0,$0
  401cec:	00 05 00 00 
  401cf0:	45 00 00 00 	subu $6,$2,$4
  401cf4:	00 06 04 02 
  401cf8:	57 00 00 00 	srl $6,$6,0x1
  401cfc:	01 06 06 00 
  401d00:	42 00 00 00 	addu $6,$6,$4
  401d04:	00 06 04 06 
  401d08:	57 00 00 00 	srl $6,$6,0x5
  401d0c:	05 06 06 00 
  401d10:	55 00 00 00 	sll $3,$6,0x3
  401d14:	03 03 06 00 
  401d18:	42 00 00 00 	addu $3,$3,$6
  401d1c:	00 03 06 03 
  401d20:	55 00 00 00 	sll $3,$3,0x2
  401d24:	02 03 03 00 
  401d28:	45 00 00 00 	subu $3,$3,$6
  401d2c:	00 03 06 03 
  401d30:	45 00 00 00 	subu $2,$2,$3
  401d34:	00 02 03 02 
  401d38:	4f 00 00 00 	andi $2,$2,255
  401d3c:	ff 00 02 02 
  401d40:	34 00 00 00 	sw $2,0($16)
  401d44:	00 00 02 10 
  401d48:	43 00 00 00 	addiu $16,$16,4
  401d4c:	04 00 10 10 
  401d50:	5c 00 00 00 	slti $2,$17,6
  401d54:	06 00 02 11 
  401d58:	06 00 00 00 	bne $2,$0,401ca8 <Random_AD_Delay+0x50>
  401d5c:	d2 ff 00 02 
  401d60:	28 00 00 00 	lw $31,32($29)
  401d64:	20 00 1f 1d 
  401d68:	28 00 00 00 	lw $19,28($29)
  401d6c:	1c 00 13 1d 
  401d70:	28 00 00 00 	lw $18,24($29)
  401d74:	18 00 12 1d 
  401d78:	28 00 00 00 	lw $17,20($29)
  401d7c:	14 00 11 1d 
  401d80:	28 00 00 00 	lw $16,16($29)
  401d84:	10 00 10 1d 
  401d88:	43 00 00 00 	addiu $29,$29,40
  401d8c:	28 00 1d 1d 
  401d90:	03 00 00 00 	jr $31
  401d94:	00 00 00 1f 

00401d98 <Update_ADC_Channel_Reg>:
  401d98:	43 00 00 00 	addiu $29,$29,-24
  401d9c:	e8 ff 1d 1d 
  401da0:	34 00 00 00 	sw $31,16($29)
  401da4:	10 00 1f 1d 
  401da8:	4f 00 00 00 	andi $5,$4,255
  401dac:	ff 00 05 04 
  401db0:	a2 00 00 00 	lui $4,4096
  401db4:	00 10 04 00 
  401db8:	43 00 00 00 	addiu $4,$4,900
  401dbc:	84 03 04 04 
  401dc0:	02 00 00 00 	jal 410990 <printf>
  401dc4:	64 42 10 00 
  401dc8:	28 00 00 00 	lw $31,16($29)
  401dcc:	10 00 1f 1d 
  401dd0:	43 00 00 00 	addiu $29,$29,24
  401dd4:	18 00 1d 1d 
  401dd8:	03 00 00 00 	jr $31
  401ddc:	00 00 00 1f 

00401de0 <Start_Conversion>:
  401de0:	22 00 00 00 	lbu $2,-32544($28)
  401de4:	e0 80 02 1c 
  401de8:	43 00 00 00 	addiu $29,$29,-24
  401dec:	e8 ff 1d 1d 
  401df0:	a2 00 00 00 	lui $4,4096
  401df4:	00 10 04 00 
  401df8:	43 00 00 00 	addiu $4,$4,928
  401dfc:	a0 03 04 04 
  401e00:	34 00 00 00 	sw $31,20($29)
  401e04:	14 00 1f 1d 
  401e08:	34 00 00 00 	sw $16,16($29)
  401e0c:	10 00 10 1d 
  401e10:	4f 00 00 00 	andi $16,$2,63
  401e14:	3f 00 10 02 
  401e18:	42 00 00 00 	addu $5,$0,$16
  401e1c:	00 05 10 00 
  401e20:	02 00 00 00 	jal 410990 <printf>
  401e24:	64 42 10 00 
  401e28:	28 00 00 00 	lw $2,-32720($28)
  401e2c:	30 80 02 1c 
  401e30:	05 00 00 00 	beq $2,$0,401e50 <Start_Conversion+0x70>
  401e34:	06 00 00 02 
  401e38:	a2 00 00 00 	lui $4,4096
  401e3c:	00 10 04 00 
  401e40:	43 00 00 00 	addiu $4,$4,960
  401e44:	c0 03 04 04 
  401e48:	02 00 00 00 	jal 410990 <printf>
  401e4c:	64 42 10 00 
  401e50:	43 00 00 00 	addiu $4,$28,-32680
  401e54:	58 80 04 1c 
  401e58:	02 00 00 00 	jal 401bb0 <Next_Rand>
  401e5c:	ec 06 10 00 
  401e60:	43 00 00 00 	addiu $4,$28,-32680
  401e64:	58 80 04 1c 
  401e68:	55 00 00 00 	sll $2,$2,0x8
  401e6c:	08 02 02 00 
  401e70:	32 00 00 00 	sh $2,-32652($28)
  401e74:	74 80 02 1c 
  401e78:	02 00 00 00 	jal 401bb0 <Next_Rand>
  401e7c:	ec 06 10 00 
  401e80:	26 00 00 00 	lhu $3,-32652($28)
  401e84:	74 80 03 1c 
  401e88:	55 00 00 00 	sll $5,$16,0x2
  401e8c:	02 05 10 00 
  401e90:	a2 00 00 00 	lui $4,4096
  401e94:	00 10 04 00 
  401e98:	42 00 00 00 	addu $4,$4,$5
  401e9c:	00 04 05 04 
  401ea0:	26 00 00 00 	lhu $4,11456($4)
  401ea4:	c0 2c 04 04 
  401ea8:	4f 00 00 00 	andi $2,$2,255
  401eac:	ff 00 02 02 
  401eb0:	50 00 00 00 	or $3,$3,$2
  401eb4:	00 03 02 03 
  401eb8:	5d 00 00 00 	sltu $2,$3,$4
  401ebc:	00 02 04 03 
  401ec0:	32 00 00 00 	sh $3,-32652($28)
  401ec4:	74 80 03 1c 
  401ec8:	05 00 00 00 	beq $2,$0,401ee0 <Start_Conversion+0x100>
  401ecc:	04 00 00 02 
  401ed0:	32 00 00 00 	sh $4,-32652($28)
  401ed4:	74 80 04 1c 
  401ed8:	01 00 00 00 	j 401f10 <Start_Conversion+0x130>
  401edc:	c4 07 10 00 
  401ee0:	a2 00 00 00 	lui $1,4096
  401ee4:	00 10 01 00 
  401ee8:	42 00 00 00 	addu $1,$1,$5
  401eec:	00 01 05 01 
  401ef0:	26 00 00 00 	lhu $5,11458($1)
  401ef4:	c2 2c 05 01 
  401ef8:	5d 00 00 00 	sltu $2,$5,$3
  401efc:	00 02 03 05 
  401f00:	05 00 00 00 	beq $2,$0,401f10 <Start_Conversion+0x130>
  401f04:	02 00 00 02 
  401f08:	32 00 00 00 	sh $5,-32652($28)
  401f0c:	74 80 05 1c 
  401f10:	28 00 00 00 	lw $2,-32656($28)
  401f14:	70 80 02 1c 
  401f18:	28 00 00 00 	lw $3,-32704($28)
  401f1c:	40 80 03 1c 
  401f20:	34 00 00 00 	sw $0,-32168($28)
  401f24:	58 82 00 1c 
  401f28:	43 00 00 00 	addiu $2,$2,1
  401f2c:	01 00 02 02 
  401f30:	43 00 00 00 	addiu $3,$3,1
  401f34:	01 00 03 03 
  401f38:	34 00 00 00 	sw $3,-32704($28)
  401f3c:	40 80 03 1c 
  401f40:	5e 00 00 00 	sltiu $3,$3,6
  401f44:	06 00 03 03 
  401f48:	34 00 00 00 	sw $2,-32656($28)
  401f4c:	70 80 02 1c 
  401f50:	06 00 00 00 	bne $3,$0,401f60 <Start_Conversion+0x180>
  401f54:	02 00 00 03 
  401f58:	34 00 00 00 	sw $0,-32704($28)
  401f5c:	40 80 00 1c 
  401f60:	28 00 00 00 	lw $2,-32664($28)
  401f64:	68 80 02 1c 
  401f68:	05 00 00 00 	beq $2,$0,401fd8 <Start_Conversion+0x1f8>
  401f6c:	1a 00 00 02 
  401f70:	43 00 00 00 	addiu $4,$28,-32660
  401f74:	6c 80 04 1c 
  401f78:	02 00 00 00 	jal 401bb0 <Next_Rand>
  401f7c:	ec 06 10 00 
  401f80:	4f 00 00 00 	andi $2,$2,255
  401f84:	ff 00 02 02 
  401f88:	5e 00 00 00 	sltiu $2,$2,64
  401f8c:	40 00 02 02 
  401f90:	06 00 00 00 	bne $2,$0,401fd8 <Start_Conversion+0x1f8>
  401f94:	10 00 00 02 
  401f98:	a2 00 00 00 	lui $4,4096
  401f9c:	00 10 04 00 
  401fa0:	43 00 00 00 	addiu $4,$4,996
  401fa4:	e4 03 04 04 
  401fa8:	02 00 00 00 	jal 410990 <printf>
  401fac:	64 42 10 00 
  401fb0:	28 00 00 00 	lw $2,-32664($28)
  401fb4:	68 80 02 1c 
  401fb8:	43 00 00 00 	addiu $3,$0,-5000
  401fbc:	78 ec 03 00 
  401fc0:	34 00 00 00 	sw $3,-32168($28)
  401fc4:	58 82 03 1c 
  401fc8:	43 00 00 00 	addiu $2,$2,-1
  401fcc:	ff ff 02 02 
  401fd0:	34 00 00 00 	sw $2,-32664($28)
  401fd4:	68 80 02 1c 
  401fd8:	43 00 00 00 	addiu $2,$0,1
  401fdc:	01 00 02 00 
  401fe0:	34 00 00 00 	sw $2,-32720($28)
  401fe4:	30 80 02 1c 
  401fe8:	28 00 00 00 	lw $31,20($29)
  401fec:	14 00 1f 1d 
  401ff0:	28 00 00 00 	lw $16,16($29)
  401ff4:	10 00 10 1d 
  401ff8:	43 00 00 00 	addiu $29,$29,24
  401ffc:	18 00 1d 1d 
  402000:	03 00 00 00 	jr $31
  402004:	00 00 00 1f 

00402008 <Report_Start_Conversion_Count>:
  402008:	43 00 00 00 	addiu $29,$29,-24
  40200c:	e8 ff 1d 1d 
  402010:	28 00 00 00 	lw $5,-32656($28)
  402014:	70 80 05 1c 
  402018:	42 00 00 00 	addu $6,$0,$4
  40201c:	00 06 04 00 
  402020:	a2 00 00 00 	lui $4,4096
  402024:	00 10 04 00 
  402028:	43 00 00 00 	addiu $4,$4,1048
  40202c:	18 04 04 04 
  402030:	34 00 00 00 	sw $31,16($29)
  402034:	10 00 1f 1d 
  402038:	02 00 00 00 	jal 410990 <printf>
  40203c:	64 42 10 00 
  402040:	34 00 00 00 	sw $0,-32656($28)
  402044:	70 80 00 1c 
  402048:	28 00 00 00 	lw $31,16($29)
  40204c:	10 00 1f 1d 
  402050:	43 00 00 00 	addiu $29,$29,24
  402054:	18 00 1d 1d 
  402058:	03 00 00 00 	jr $31
  40205c:	00 00 00 1f 

00402060 <End_Of_ADC>:
  402060:	43 00 00 00 	addiu $29,$29,-24
  402064:	e8 ff 1d 1d 
  402068:	a2 00 00 00 	lui $4,4096
  40206c:	00 10 04 00 
  402070:	43 00 00 00 	addiu $4,$4,1100
  402074:	4c 04 04 04 
  402078:	34 00 00 00 	sw $31,16($29)
  40207c:	10 00 1f 1d 
  402080:	02 00 00 00 	jal 410990 <printf>
  402084:	64 42 10 00 
  402088:	28 00 00 00 	lw $2,-32720($28)
  40208c:	30 80 02 1c 
  402090:	06 00 00 00 	bne $2,$0,4020b0 <End_Of_ADC+0x50>
  402094:	06 00 00 02 
  402098:	a2 00 00 00 	lui $4,4096
  40209c:	00 10 04 00 
  4020a0:	43 00 00 00 	addiu $4,$4,1112
  4020a4:	58 04 04 04 
  4020a8:	02 00 00 00 	jal 410990 <printf>
  4020ac:	64 42 10 00 
  4020b0:	28 00 00 00 	lw $2,-32704($28)
  4020b4:	40 80 02 1c 
  4020b8:	28 00 00 00 	lw $4,-32648($28)
  4020bc:	78 80 04 1c 
  4020c0:	28 00 00 00 	lw $3,-32168($28)
  4020c4:	58 82 03 1c 
  4020c8:	55 00 00 00 	sll $2,$2,0x2
  4020cc:	02 02 02 00 
  4020d0:	a2 00 00 00 	lui $1,4096
  4020d4:	00 10 01 00 
  4020d8:	42 00 00 00 	addu $1,$1,$2
  4020dc:	00 01 02 01 
  4020e0:	28 00 00 00 	lw $2,13776($1)
  4020e4:	d0 35 02 01 
  4020e8:	43 00 00 00 	addiu $4,$4,1
  4020ec:	01 00 04 04 
  4020f0:	43 00 00 00 	addiu $3,$3,1
  4020f4:	01 00 03 03 
  4020f8:	34 00 00 00 	sw $4,-32648($28)
  4020fc:	78 80 04 1c 
  402100:	34 00 00 00 	sw $3,-32168($28)
  402104:	58 82 03 1c 
  402108:	5b 00 00 00 	slt $3,$3,$2
  40210c:	00 03 02 03 
  402110:	06 00 00 00 	bne $3,$0,402130 <End_Of_ADC+0xd0>
  402114:	06 00 00 03 
  402118:	34 00 00 00 	sw $0,-32720($28)
  40211c:	30 80 00 1c 
  402120:	42 00 00 00 	addu $2,$0,$0
  402124:	00 02 00 00 
  402128:	01 00 00 00 	j 4021e0 <End_Of_ADC+0x180>
  40212c:	78 08 10 00 
  402130:	28 00 00 00 	lw $2,-32676($28)
  402134:	5c 80 02 1c 
  402138:	05 00 00 00 	beq $2,$0,4021d8 <End_Of_ADC+0x178>
  40213c:	26 00 00 02 
  402140:	43 00 00 00 	addiu $4,$28,-32672
  402144:	60 80 04 1c 
  402148:	02 00 00 00 	jal 401bb0 <Next_Rand>
  40214c:	ec 06 10 00 
  402150:	4f 00 00 00 	andi $2,$2,255
  402154:	ff 00 02 02 
  402158:	5e 00 00 00 	sltiu $2,$2,128
  40215c:	80 00 02 02 
  402160:	06 00 00 00 	bne $2,$0,4021d8 <End_Of_ADC+0x178>
  402164:	1c 00 00 02 
  402168:	a2 00 00 00 	lui $4,4096
  40216c:	00 10 04 00 
  402170:	43 00 00 00 	addiu $4,$4,1140
  402174:	74 04 04 04 
  402178:	02 00 00 00 	jal 410990 <printf>
  40217c:	64 42 10 00 
  402180:	28 00 00 00 	lw $3,-32668($28)
  402184:	64 80 03 1c 
  402188:	28 00 00 00 	lw $5,-32676($28)
  40218c:	5c 80 05 1c 
  402190:	42 00 00 00 	addu $2,$0,$0
  402194:	00 02 00 00 
  402198:	43 00 00 00 	addiu $4,$0,1
  40219c:	01 00 04 00 
  4021a0:	30 00 00 00 	sb $4,-32032($28)
  4021a4:	e0 82 04 1c 
  4021a8:	34 00 00 00 	sw $0,-32720($28)
  4021ac:	30 80 00 1c 
  4021b0:	43 00 00 00 	addiu $3,$3,1
  4021b4:	01 00 03 03 
  4021b8:	43 00 00 00 	addiu $5,$5,-1
  4021bc:	ff ff 05 05 
  4021c0:	34 00 00 00 	sw $3,-32668($28)
  4021c4:	64 80 03 1c 
  4021c8:	34 00 00 00 	sw $5,-32676($28)
  4021cc:	5c 80 05 1c 
  4021d0:	01 00 00 00 	j 4021e0 <End_Of_ADC+0x180>
  4021d4:	78 08 10 00 
  4021d8:	43 00 00 00 	addiu $2,$0,1
  4021dc:	01 00 02 00 
  4021e0:	28 00 00 00 	lw $31,16($29)
  4021e4:	10 00 1f 1d 
  4021e8:	43 00 00 00 	addiu $29,$29,24
  4021ec:	18 00 1d 1d 
  4021f0:	03 00 00 00 	jr $31
  4021f4:	00 00 00 1f 

004021f8 <Report_End_Of_ADC_Count>:
  4021f8:	43 00 00 00 	addiu $29,$29,-24
  4021fc:	e8 ff 1d 1d 
  402200:	28 00 00 00 	lw $5,-32648($28)
  402204:	78 80 05 1c 
  402208:	42 00 00 00 	addu $6,$0,$4
  40220c:	00 06 04 00 
  402210:	a2 00 00 00 	lui $4,4096
  402214:	00 10 04 00 
  402218:	43 00 00 00 	addiu $4,$4,1156
  40221c:	84 04 04 04 
  402220:	34 00 00 00 	sw $31,16($29)
  402224:	10 00 1f 1d 
  402228:	02 00 00 00 	jal 410990 <printf>
  40222c:	64 42 10 00 
  402230:	34 00 00 00 	sw $0,-32648($28)
  402234:	78 80 00 1c 
  402238:	28 00 00 00 	lw $31,16($29)
  40223c:	10 00 1f 1d 
  402240:	43 00 00 00 	addiu $29,$29,24
  402244:	18 00 1d 1d 
  402248:	03 00 00 00 	jr $31
  40224c:	00 00 00 1f 

00402250 <Get_Result>:
  402250:	43 00 00 00 	addiu $29,$29,-24
  402254:	e8 ff 1d 1d 
  402258:	34 00 00 00 	sw $16,16($29)
  40225c:	10 00 10 1d 
  402260:	26 00 00 00 	lhu $16,-32652($28)
  402264:	74 80 10 1c 
  402268:	a2 00 00 00 	lui $4,4096
  40226c:	00 10 04 00 
  402270:	43 00 00 00 	addiu $4,$4,1200
  402274:	b0 04 04 04 
  402278:	34 00 00 00 	sw $31,20($29)
  40227c:	14 00 1f 1d 
  402280:	57 00 00 00 	srl $16,$16,0x8
  402284:	08 10 10 00 
  402288:	42 00 00 00 	addu $5,$0,$16
  40228c:	00 05 10 00 
  402290:	42 00 00 00 	addu $6,$0,$16
  402294:	00 06 10 00 
  402298:	02 00 00 00 	jal 410990 <printf>
  40229c:	64 42 10 00 
  4022a0:	26 00 00 00 	lhu $3,-32652($28)
  4022a4:	74 80 03 1c 
  4022a8:	42 00 00 00 	addu $2,$0,$16
  4022ac:	00 02 10 00 
  4022b0:	55 00 00 00 	sll $3,$3,0x8
  4022b4:	08 03 03 00 
  4022b8:	32 00 00 00 	sh $3,-32652($28)
  4022bc:	74 80 03 1c 
  4022c0:	28 00 00 00 	lw $31,20($29)
  4022c4:	14 00 1f 1d 
  4022c8:	28 00 00 00 	lw $16,16($29)
  4022cc:	10 00 10 1d 
  4022d0:	43 00 00 00 	addiu $29,$29,24
  4022d4:	18 00 1d 1d 
  4022d8:	03 00 00 00 	jr $31
  4022dc:	00 00 00 1f 

004022e0 <Set_DAC_Output>:
  4022e0:	43 00 00 00 	addiu $29,$29,-24
  4022e4:	e8 ff 1d 1d 
  4022e8:	34 00 00 00 	sw $31,16($29)
  4022ec:	10 00 1f 1d 
  4022f0:	4f 00 00 00 	andi $5,$4,255
  4022f4:	ff 00 05 04 
  4022f8:	a2 00 00 00 	lui $4,4096
  4022fc:	00 10 04 00 
  402300:	43 00 00 00 	addiu $4,$4,1224
  402304:	c8 04 04 04 
  402308:	02 00 00 00 	jal 410990 <printf>
  40230c:	64 42 10 00 
  402310:	28 00 00 00 	lw $31,16($29)
  402314:	10 00 1f 1d 
  402318:	43 00 00 00 	addiu $29,$29,24
  40231c:	18 00 1d 1d 
  402320:	03 00 00 00 	jr $31
  402324:	00 00 00 1f 

00402328 <Sim_Self_Test_Trigger>:
  402328:	22 00 00 00 	lbu $3,-32608($28)
  40232c:	a0 80 03 1c 
  402330:	43 00 00 00 	addiu $29,$29,-32
  402334:	e0 ff 1d 1d 
  402338:	43 00 00 00 	addiu $2,$0,1
  40233c:	01 00 02 00 
  402340:	34 00 00 00 	sw $31,28($29)
  402344:	1c 00 1f 1d 
  402348:	34 00 00 00 	sw $16,24($29)
  40234c:	18 00 10 1d 
  402350:	06 00 00 00 	bne $3,$2,402408 <Sim_Self_Test_Trigger+0xe0>
  402354:	2c 00 02 03 
  402358:	22 00 00 00 	lbu $2,-32644($28)
  40235c:	7c 80 02 1c 
  402360:	06 00 00 00 	bne $2,$3,402408 <Sim_Self_Test_Trigger+0xe0>
  402364:	28 00 03 02 
  402368:	22 00 00 00 	lbu $2,-32604($28)
  40236c:	a4 80 02 1c 
  402370:	05 00 00 00 	beq $2,$0,402408 <Sim_Self_Test_Trigger+0xe0>
  402374:	24 00 00 02 
  402378:	28 00 00 00 	lw $2,-32496($28)
  40237c:	10 81 02 1c 
  402380:	05 00 00 00 	beq $2,$0,402408 <Sim_Self_Test_Trigger+0xe0>
  402384:	20 00 00 02 
  402388:	55 00 00 00 	sll $2,$2,0x2
  40238c:	02 02 02 00 
  402390:	a2 00 00 00 	lui $3,4096
  402394:	00 10 03 00 
  402398:	42 00 00 00 	addu $3,$3,$2
  40239c:	00 03 02 03 
  4023a0:	28 00 00 00 	lw $3,11932($3)
  4023a4:	9c 2e 03 03 
  4023a8:	a2 00 00 00 	lui $16,4096
  4023ac:	00 10 10 00 
  4023b0:	43 00 00 00 	addiu $16,$16,11932
  4023b4:	9c 2e 10 10 
  4023b8:	43 00 00 00 	addiu $2,$0,6
  4023bc:	06 00 02 00 
  4023c0:	06 00 00 00 	bne $3,$2,402408 <Sim_Self_Test_Trigger+0xe0>
  4023c4:	10 00 02 03 
  4023c8:	a2 00 00 00 	lui $4,4096
  4023cc:	00 10 04 00 
  4023d0:	43 00 00 00 	addiu $4,$4,1244
  4023d4:	dc 04 04 04 
  4023d8:	02 00 00 00 	jal 410990 <printf>
  4023dc:	64 42 10 00 
  4023e0:	28 00 00 00 	lw $2,-32496($28)
  4023e4:	10 81 02 1c 
  4023e8:	43 00 00 00 	addiu $3,$0,5
  4023ec:	05 00 03 00 
  4023f0:	55 00 00 00 	sll $2,$2,0x2
  4023f4:	02 02 02 00 
  4023f8:	42 00 00 00 	addu $2,$2,$16
  4023fc:	00 02 10 02 
  402400:	34 00 00 00 	sw $3,0($2)
  402404:	00 00 03 02 
  402408:	28 00 00 00 	lw $31,28($29)
  40240c:	1c 00 1f 1d 
  402410:	28 00 00 00 	lw $16,24($29)
  402414:	18 00 10 1d 
  402418:	43 00 00 00 	addiu $29,$29,32
  40241c:	20 00 1d 1d 
  402420:	03 00 00 00 	jr $31
  402424:	00 00 00 1f 

00402428 <Random_Event>:
  402428:	43 00 00 00 	addiu $29,$29,-24
  40242c:	e8 ff 1d 1d 
  402430:	43 00 00 00 	addiu $4,$28,-32600
  402434:	a8 80 04 1c 
  402438:	34 00 00 00 	sw $31,16($29)
  40243c:	10 00 1f 1d 
  402440:	02 00 00 00 	jal 401bb0 <Next_Rand>
  402444:	ec 06 10 00 
  402448:	43 00 00 00 	addiu $4,$28,-32600
  40244c:	a8 80 04 1c 
  402450:	4f 00 00 00 	andi $2,$2,255
  402454:	ff 00 02 02 
  402458:	57 00 00 00 	srl $3,$2,0x7
  40245c:	07 03 02 00 
  402460:	30 00 00 00 	sb $3,-32640($28)
  402464:	80 80 03 1c 
  402468:	57 00 00 00 	srl $3,$2,0x6
  40246c:	06 03 02 00 
  402470:	4f 00 00 00 	andi $3,$3,1
  402474:	01 00 03 03 
  402478:	30 00 00 00 	sb $3,-32636($28)
  40247c:	84 80 03 1c 
  402480:	57 00 00 00 	srl $3,$2,0x5
  402484:	05 03 02 00 
  402488:	4f 00 00 00 	andi $3,$3,1
  40248c:	01 00 03 03 
  402490:	57 00 00 00 	srl $2,$2,0x4
  402494:	04 02 02 00 
  402498:	4f 00 00 00 	andi $2,$2,1
  40249c:	01 00 02 02 
  4024a0:	30 00 00 00 	sb $3,-32632($28)
  4024a4:	88 80 03 1c 
  4024a8:	30 00 00 00 	sb $2,-32628($28)
  4024ac:	8c 80 02 1c 
  4024b0:	02 00 00 00 	jal 401bb0 <Next_Rand>
  4024b4:	ec 06 10 00 
  4024b8:	43 00 00 00 	addiu $4,$28,-32600
  4024bc:	a8 80 04 1c 
  4024c0:	30 00 00 00 	sb $2,-32624($28)
  4024c4:	90 80 02 1c 
  4024c8:	02 00 00 00 	jal 401bb0 <Next_Rand>
  4024cc:	ec 06 10 00 
  4024d0:	43 00 00 00 	addiu $4,$28,-32600
  4024d4:	a8 80 04 1c 
  4024d8:	30 00 00 00 	sb $2,-32620($28)
  4024dc:	94 80 02 1c 
  4024e0:	02 00 00 00 	jal 401bb0 <Next_Rand>
  4024e4:	ec 06 10 00 
  4024e8:	43 00 00 00 	addiu $4,$28,-32600
  4024ec:	a8 80 04 1c 
  4024f0:	30 00 00 00 	sb $2,-32616($28)
  4024f4:	98 80 02 1c 
  4024f8:	02 00 00 00 	jal 401bb0 <Next_Rand>
  4024fc:	ec 06 10 00 
  402500:	30 00 00 00 	sb $2,-32612($28)
  402504:	9c 80 02 1c 
  402508:	28 00 00 00 	lw $31,16($29)
  40250c:	10 00 1f 1d 
  402510:	43 00 00 00 	addiu $29,$29,24
  402514:	18 00 1d 1d 
  402518:	03 00 00 00 	jr $31
  40251c:	00 00 00 1f 

00402520 <Set_Trigger_SU>:
  402520:	43 00 00 00 	addiu $29,$29,-24
  402524:	e8 ff 1d 1d 
  402528:	34 00 00 00 	sw $16,16($29)
  40252c:	10 00 10 1d 
  402530:	42 00 00 00 	addu $16,$0,$4
  402534:	00 10 04 00 
  402538:	a2 00 00 00 	lui $4,4096
  40253c:	00 10 04 00 
  402540:	43 00 00 00 	addiu $4,$4,1268
  402544:	f4 04 04 04 
  402548:	42 00 00 00 	addu $5,$0,$16
  40254c:	00 05 10 00 
  402550:	34 00 00 00 	sw $31,20($29)
  402554:	14 00 1f 1d 
  402558:	02 00 00 00 	jal 410990 <printf>
  40255c:	64 42 10 00 
  402560:	4f 00 00 00 	andi $2,$16,1
  402564:	01 00 02 10 
  402568:	57 00 00 00 	srl $16,$16,0x1
  40256c:	01 10 10 00 
  402570:	4f 00 00 00 	andi $16,$16,1
  402574:	01 00 10 10 
  402578:	30 00 00 00 	sb $2,-32632($28)
  40257c:	88 80 02 1c 
  402580:	30 00 00 00 	sb $16,-32628($28)
  402584:	8c 80 10 1c 
  402588:	28 00 00 00 	lw $31,20($29)
  40258c:	14 00 1f 1d 
  402590:	28 00 00 00 	lw $16,16($29)
  402594:	10 00 10 1d 
  402598:	43 00 00 00 	addiu $29,$29,24
  40259c:	18 00 1d 1d 
  4025a0:	03 00 00 00 	jr $31
  4025a4:	00 00 00 1f 

004025a8 <Enable_Hit_Trigger>:
  4025a8:	43 00 00 00 	addiu $29,$29,-24
  4025ac:	e8 ff 1d 1d 
  4025b0:	a2 00 00 00 	lui $4,4096
  4025b4:	00 10 04 00 
  4025b8:	43 00 00 00 	addiu $4,$4,1296
  4025bc:	10 05 04 04 
  4025c0:	34 00 00 00 	sw $31,16($29)
  4025c4:	10 00 1f 1d 
  4025c8:	02 00 00 00 	jal 410990 <printf>
  4025cc:	64 42 10 00 
  4025d0:	43 00 00 00 	addiu $2,$0,1
  4025d4:	01 00 02 00 
  4025d8:	30 00 00 00 	sb $2,-32644($28)
  4025dc:	7c 80 02 1c 
  4025e0:	02 00 00 00 	jal 402328 <Sim_Self_Test_Trigger>
  4025e4:	ca 08 10 00 
  4025e8:	28 00 00 00 	lw $31,16($29)
  4025ec:	10 00 1f 1d 
  4025f0:	43 00 00 00 	addiu $29,$29,24
  4025f4:	18 00 1d 1d 
  4025f8:	03 00 00 00 	jr $31
  4025fc:	00 00 00 1f 

00402600 <Disable_Hit_Trigger>:
  402600:	43 00 00 00 	addiu $29,$29,-24
  402604:	e8 ff 1d 1d 
  402608:	a2 00 00 00 	lui $4,4096
  40260c:	00 10 04 00 
  402610:	43 00 00 00 	addiu $4,$4,1316
  402614:	24 05 04 04 
  402618:	34 00 00 00 	sw $31,16($29)
  40261c:	10 00 1f 1d 
  402620:	02 00 00 00 	jal 410990 <printf>
  402624:	64 42 10 00 
  402628:	30 00 00 00 	sb $0,-32644($28)
  40262c:	7c 80 00 1c 
  402630:	02 00 00 00 	jal 402328 <Sim_Self_Test_Trigger>
  402634:	ca 08 10 00 
  402638:	28 00 00 00 	lw $31,16($29)
  40263c:	10 00 1f 1d 
  402640:	43 00 00 00 	addiu $29,$29,24
  402644:	18 00 1d 1d 
  402648:	03 00 00 00 	jr $31
  40264c:	00 00 00 1f 

00402650 <Hit_Trigger_Flag>:
  402650:	43 00 00 00 	addiu $29,$29,-24
  402654:	e8 ff 1d 1d 
  402658:	a2 00 00 00 	lui $4,4096
  40265c:	00 10 04 00 
  402660:	43 00 00 00 	addiu $4,$4,1340
  402664:	3c 05 04 04 
  402668:	34 00 00 00 	sw $31,16($29)
  40266c:	10 00 1f 1d 
  402670:	02 00 00 00 	jal 410990 <printf>
  402674:	64 42 10 00 
  402678:	22 00 00 00 	lbu $2,-32640($28)
  40267c:	80 80 02 1c 
  402680:	28 00 00 00 	lw $31,16($29)
  402684:	10 00 1f 1d 
  402688:	43 00 00 00 	addiu $29,$29,24
  40268c:	18 00 1d 1d 
  402690:	03 00 00 00 	jr $31
  402694:	00 00 00 1f 

00402698 <Event_Flag>:
  402698:	43 00 00 00 	addiu $29,$29,-24
  40269c:	e8 ff 1d 1d 
  4026a0:	a2 00 00 00 	lui $4,4096
  4026a4:	00 10 04 00 
  4026a8:	43 00 00 00 	addiu $4,$4,1360
  4026ac:	50 05 04 04 
  4026b0:	34 00 00 00 	sw $31,16($29)
  4026b4:	10 00 1f 1d 
  4026b8:	02 00 00 00 	jal 410990 <printf>
  4026bc:	64 42 10 00 
  4026c0:	22 00 00 00 	lbu $2,-32636($28)
  4026c4:	84 80 02 1c 
  4026c8:	28 00 00 00 	lw $31,16($29)
  4026cc:	10 00 1f 1d 
  4026d0:	43 00 00 00 	addiu $29,$29,24
  4026d4:	18 00 1d 1d 
  4026d8:	03 00 00 00 	jr $31
  4026dc:	00 00 00 1f 

004026e0 <Get_MSB_Counter>:
  4026e0:	43 00 00 00 	addiu $29,$29,-24
  4026e4:	e8 ff 1d 1d 
  4026e8:	a2 00 00 00 	lui $4,4096
  4026ec:	00 10 04 00 
  4026f0:	43 00 00 00 	addiu $4,$4,1376
  4026f4:	60 05 04 04 
  4026f8:	34 00 00 00 	sw $31,16($29)
  4026fc:	10 00 1f 1d 
  402700:	02 00 00 00 	jal 410990 <printf>
  402704:	64 42 10 00 
  402708:	22 00 00 00 	lbu $2,-32624($28)
  40270c:	90 80 02 1c 
  402710:	28 00 00 00 	lw $31,16($29)
  402714:	10 00 1f 1d 
  402718:	43 00 00 00 	addiu $29,$29,24
  40271c:	18 00 1d 1d 
  402720:	03 00 00 00 	jr $31
  402724:	00 00 00 1f 

00402728 <Get_LSB1_Counter>:
  402728:	43 00 00 00 	addiu $29,$29,-24
  40272c:	e8 ff 1d 1d 
  402730:	a2 00 00 00 	lui $4,4096
  402734:	00 10 04 00 
  402738:	43 00 00 00 	addiu $4,$4,1396
  40273c:	74 05 04 04 
  402740:	34 00 00 00 	sw $31,16($29)
  402744:	10 00 1f 1d 
  402748:	02 00 00 00 	jal 410990 <printf>
  40274c:	64 42 10 00 
  402750:	22 00 00 00 	lbu $2,-32620($28)
  402754:	94 80 02 1c 
  402758:	28 00 00 00 	lw $31,16($29)
  40275c:	10 00 1f 1d 
  402760:	43 00 00 00 	addiu $29,$29,24
  402764:	18 00 1d 1d 
  402768:	03 00 00 00 	jr $31
  40276c:	00 00 00 1f 

00402770 <Get_LSB2_Counter>:
  402770:	43 00 00 00 	addiu $29,$29,-24
  402774:	e8 ff 1d 1d 
  402778:	a2 00 00 00 	lui $4,4096
  40277c:	00 10 04 00 
  402780:	43 00 00 00 	addiu $4,$4,1416
  402784:	88 05 04 04 
  402788:	34 00 00 00 	sw $31,16($29)
  40278c:	10 00 1f 1d 
  402790:	02 00 00 00 	jal 410990 <printf>
  402794:	64 42 10 00 
  402798:	22 00 00 00 	lbu $2,-32616($28)
  40279c:	98 80 02 1c 
  4027a0:	28 00 00 00 	lw $31,16($29)
  4027a4:	10 00 1f 1d 
  4027a8:	43 00 00 00 	addiu $29,$29,24
  4027ac:	18 00 1d 1d 
  4027b0:	03 00 00 00 	jr $31
  4027b4:	00 00 00 1f 

004027b8 <Rise_Time_Counter>:
  4027b8:	43 00 00 00 	addiu $29,$29,-24
  4027bc:	e8 ff 1d 1d 
  4027c0:	a2 00 00 00 	lui $4,4096
  4027c4:	00 10 04 00 
  4027c8:	43 00 00 00 	addiu $4,$4,1436
  4027cc:	9c 05 04 04 
  4027d0:	34 00 00 00 	sw $31,16($29)
  4027d4:	10 00 1f 1d 
  4027d8:	02 00 00 00 	jal 410990 <printf>
  4027dc:	64 42 10 00 
  4027e0:	22 00 00 00 	lbu $2,-32612($28)
  4027e4:	9c 80 02 1c 
  4027e8:	28 00 00 00 	lw $31,16($29)
  4027ec:	10 00 1f 1d 
  4027f0:	43 00 00 00 	addiu $29,$29,24
  4027f4:	18 00 1d 1d 
  4027f8:	03 00 00 00 	jr $31
  4027fc:	00 00 00 1f 

00402800 <Trigger_Source_0>:
  402800:	43 00 00 00 	addiu $29,$29,-24
  402804:	e8 ff 1d 1d 
  402808:	a2 00 00 00 	lui $4,4096
  40280c:	00 10 04 00 
  402810:	43 00 00 00 	addiu $4,$4,1456
  402814:	b0 05 04 04 
  402818:	34 00 00 00 	sw $31,16($29)
  40281c:	10 00 1f 1d 
  402820:	02 00 00 00 	jal 410990 <printf>
  402824:	64 42 10 00 
  402828:	22 00 00 00 	lbu $2,-32632($28)
  40282c:	88 80 02 1c 
  402830:	28 00 00 00 	lw $31,16($29)
  402834:	10 00 1f 1d 
  402838:	43 00 00 00 	addiu $29,$29,24
  40283c:	18 00 1d 1d 
  402840:	03 00 00 00 	jr $31
  402844:	00 00 00 1f 

00402848 <Trigger_Source_1>:
  402848:	43 00 00 00 	addiu $29,$29,-24
  40284c:	e8 ff 1d 1d 
  402850:	a2 00 00 00 	lui $4,4096
  402854:	00 10 04 00 
  402858:	43 00 00 00 	addiu $4,$4,1476
  40285c:	c4 05 04 04 
  402860:	34 00 00 00 	sw $31,16($29)
  402864:	10 00 1f 1d 
  402868:	02 00 00 00 	jal 410990 <printf>
  40286c:	64 42 10 00 
  402870:	22 00 00 00 	lbu $2,-32628($28)
  402874:	8c 80 02 1c 
  402878:	28 00 00 00 	lw $31,16($29)
  40287c:	10 00 1f 1d 
  402880:	43 00 00 00 	addiu $29,$29,24
  402884:	18 00 1d 1d 
  402888:	03 00 00 00 	jr $31
  40288c:	00 00 00 1f 

00402890 <Set_SU_Self_Test_Ch>:
  402890:	43 00 00 00 	addiu $29,$29,-24
  402894:	e8 ff 1d 1d 
  402898:	34 00 00 00 	sw $31,16($29)
  40289c:	10 00 1f 1d 
  4028a0:	4f 00 00 00 	andi $5,$4,255
  4028a4:	ff 00 05 04 
  4028a8:	a2 00 00 00 	lui $4,4096
  4028ac:	00 10 04 00 
  4028b0:	43 00 00 00 	addiu $4,$4,1496
  4028b4:	d8 05 04 04 
  4028b8:	02 00 00 00 	jal 410990 <printf>
  4028bc:	64 42 10 00 
  4028c0:	28 00 00 00 	lw $31,16($29)
  4028c4:	10 00 1f 1d 
  4028c8:	43 00 00 00 	addiu $29,$29,24
  4028cc:	18 00 1d 1d 
  4028d0:	03 00 00 00 	jr $31
  4028d4:	00 00 00 1f 

004028d8 <Set_Test_Pulse_Level>:
  4028d8:	43 00 00 00 	addiu $29,$29,-24
  4028dc:	e8 ff 1d 1d 
  4028e0:	34 00 00 00 	sw $16,16($29)
  4028e4:	10 00 10 1d 
  4028e8:	42 00 00 00 	addu $16,$0,$4
  4028ec:	00 10 04 00 
  4028f0:	a2 00 00 00 	lui $4,4096
  4028f4:	00 10 04 00 
  4028f8:	43 00 00 00 	addiu $4,$4,1528
  4028fc:	f8 05 04 04 
  402900:	4f 00 00 00 	andi $5,$16,255
  402904:	ff 00 05 10 
  402908:	34 00 00 00 	sw $31,20($29)
  40290c:	14 00 1f 1d 
  402910:	02 00 00 00 	jal 410990 <printf>
  402914:	64 42 10 00 
  402918:	30 00 00 00 	sb $16,-32604($28)
  40291c:	a4 80 10 1c 
  402920:	02 00 00 00 	jal 402328 <Sim_Self_Test_Trigger>
  402924:	ca 08 10 00 
  402928:	28 00 00 00 	lw $31,20($29)
  40292c:	14 00 1f 1d 
  402930:	28 00 00 00 	lw $16,16($29)
  402934:	10 00 10 1d 
  402938:	43 00 00 00 	addiu $29,$29,24
  40293c:	18 00 1d 1d 
  402940:	03 00 00 00 	jr $31
  402944:	00 00 00 1f 

00402948 <V_Down>:
  402948:	28 00 00 00 	lw $2,-32596($28)
  40294c:	ac 80 02 1c 
  402950:	43 00 00 00 	addiu $29,$29,-24
  402954:	e8 ff 1d 1d 
  402958:	34 00 00 00 	sw $31,20($29)
  40295c:	14 00 1f 1d 
  402960:	34 00 00 00 	sw $16,16($29)
  402964:	10 00 10 1d 
  402968:	05 00 00 00 	beq $2,$0,402990 <V_Down+0x48>
  40296c:	08 00 00 02 
  402970:	42 00 00 00 	addu $16,$0,$0
  402974:	00 10 00 00 
  402978:	43 00 00 00 	addiu $2,$2,-1
  40297c:	ff ff 02 02 
  402980:	34 00 00 00 	sw $2,-32596($28)
  402984:	ac 80 02 1c 
  402988:	01 00 00 00 	j 402998 <V_Down+0x50>
  40298c:	66 0a 10 00 
  402990:	43 00 00 00 	addiu $16,$0,1
  402994:	01 00 10 00 
  402998:	4f 00 00 00 	andi $16,$16,255
  40299c:	ff 00 10 10 
  4029a0:	a2 00 00 00 	lui $4,4096
  4029a4:	00 10 04 00 
  4029a8:	43 00 00 00 	addiu $4,$4,1564
  4029ac:	1c 06 04 04 
  4029b0:	42 00 00 00 	addu $5,$0,$16
  4029b4:	00 05 10 00 
  4029b8:	02 00 00 00 	jal 410990 <printf>
  4029bc:	64 42 10 00 
  4029c0:	42 00 00 00 	addu $2,$0,$16
  4029c4:	00 02 10 00 
  4029c8:	28 00 00 00 	lw $31,20($29)
  4029cc:	14 00 1f 1d 
  4029d0:	28 00 00 00 	lw $16,16($29)
  4029d4:	10 00 10 1d 
  4029d8:	43 00 00 00 	addiu $29,$29,24
  4029dc:	18 00 1d 1d 
  4029e0:	03 00 00 00 	jr $31
  4029e4:	00 00 00 1f 

004029e8 <SignalPeakDetectorReset>:
  4029e8:	43 00 00 00 	addiu $29,$29,-24
  4029ec:	e8 ff 1d 1d 
  4029f0:	34 00 00 00 	sw $31,16($29)
  4029f4:	10 00 1f 1d 
  4029f8:	4f 00 00 00 	andi $2,$4,255
  4029fc:	ff 00 02 04 
  402a00:	4f 00 00 00 	andi $6,$5,255
  402a04:	ff 00 06 05 
  402a08:	a2 00 00 00 	lui $4,4096
  402a0c:	00 10 04 00 
  402a10:	43 00 00 00 	addiu $4,$4,1576
  402a14:	28 06 04 04 
  402a18:	42 00 00 00 	addu $5,$0,$2
  402a1c:	00 05 02 00 
  402a20:	02 00 00 00 	jal 410990 <printf>
  402a24:	64 42 10 00 
  402a28:	28 00 00 00 	lw $31,16($29)
  402a2c:	10 00 1f 1d 
  402a30:	43 00 00 00 	addiu $29,$29,24
  402a34:	18 00 1d 1d 
  402a38:	03 00 00 00 	jr $31
  402a3c:	00 00 00 1f 

00402a40 <Short_Value>:
  402a40:	26 00 00 00 	lhu $2,0($4)
  402a44:	00 00 02 04 
  402a48:	43 00 00 00 	addiu $29,$29,-8
  402a4c:	f8 ff 1d 1d 
  402a50:	32 00 00 00 	sh $2,0($29)
  402a54:	00 00 02 1d 
  402a58:	43 00 00 00 	addiu $29,$29,8
  402a5c:	08 00 1d 1d 
  402a60:	03 00 00 00 	jr $31
  402a64:	00 00 00 1f 

00402a68 <Call_Patch>:
  402a68:	43 00 00 00 	addiu $29,$29,-24
  402a6c:	e8 ff 1d 1d 
  402a70:	34 00 00 00 	sw $31,16($29)
  402a74:	10 00 1f 1d 
  402a78:	4f 00 00 00 	andi $5,$4,65535
  402a7c:	ff ff 05 04 
  402a80:	a2 00 00 00 	lui $4,4096
  402a84:	00 10 04 00 
  402a88:	43 00 00 00 	addiu $4,$4,1620
  402a8c:	54 06 04 04 
  402a90:	02 00 00 00 	jal 410990 <printf>
  402a94:	64 42 10 00 
  402a98:	28 00 00 00 	lw $31,16($29)
  402a9c:	10 00 1f 1d 
  402aa0:	43 00 00 00 	addiu $29,$29,24
  402aa4:	18 00 1d 1d 
  402aa8:	03 00 00 00 	jr $31
  402aac:	00 00 00 1f 

00402ab0 <Check_Type_Size>:
  402ab0:	43 00 00 00 	addiu $2,$0,1
  402ab4:	01 00 02 00 
  402ab8:	43 00 00 00 	addiu $3,$0,2
  402abc:	02 00 03 00 
  402ac0:	34 00 00 00 	sw $2,-32164($28)
  402ac4:	5c 82 02 1c 
  402ac8:	43 00 00 00 	addiu $2,$0,4
  402acc:	04 00 02 00 
  402ad0:	34 00 00 00 	sw $3,-32164($28)
  402ad4:	5c 82 03 1c 
  402ad8:	34 00 00 00 	sw $2,-32164($28)
  402adc:	5c 82 02 1c 
  402ae0:	34 00 00 00 	sw $2,-32164($28)
  402ae4:	5c 82 02 1c 
  402ae8:	34 00 00 00 	sw $3,-32164($28)
  402aec:	5c 82 03 1c 
  402af0:	34 00 00 00 	sw $2,-32164($28)
  402af4:	5c 82 02 1c 
  402af8:	34 00 00 00 	sw $2,-32164($28)
  402afc:	5c 82 02 1c 
  402b00:	43 00 00 00 	addiu $2,$0,15
  402b04:	0f 00 02 00 
  402b08:	34 00 00 00 	sw $2,-32164($28)
  402b0c:	5c 82 02 1c 
  402b10:	43 00 00 00 	addiu $2,$0,120
  402b14:	78 00 02 00 
  402b18:	34 00 00 00 	sw $2,-32164($28)
  402b1c:	5c 82 02 1c 
  402b20:	43 00 00 00 	addiu $2,$0,28
  402b24:	1c 00 02 00 
  402b28:	34 00 00 00 	sw $2,-32164($28)
  402b2c:	5c 82 02 1c 
  402b30:	51 00 00 00 	ori $2,$0,35352
  402b34:	18 8a 02 00 
  402b38:	34 00 00 00 	sw $2,-32160($28)
  402b3c:	60 82 02 1c 
  402b40:	03 00 00 00 	jr $31
  402b44:	00 00 00 1f 

00402b48 <Report_Checks>:
  402b48:	43 00 00 00 	addiu $29,$29,-24
  402b4c:	e8 ff 1d 1d 
  402b50:	a2 00 00 00 	lui $4,4096
  402b54:	00 10 04 00 
  402b58:	43 00 00 00 	addiu $4,$4,1640
  402b5c:	68 06 04 04 
  402b60:	34 00 00 00 	sw $31,16($29)
  402b64:	10 00 1f 1d 
  402b68:	02 00 00 00 	jal 410990 <printf>
  402b6c:	64 42 10 00 
  402b70:	28 00 00 00 	lw $5,-32592($28)
  402b74:	b0 80 05 1c 
  402b78:	28 00 00 00 	lw $6,-32588($28)
  402b7c:	b4 80 06 1c 
  402b80:	a2 00 00 00 	lui $4,4096
  402b84:	00 10 04 00 
  402b88:	43 00 00 00 	addiu $4,$4,1656
  402b8c:	78 06 04 04 
  402b90:	02 00 00 00 	jal 410990 <printf>
  402b94:	64 42 10 00 
  402b98:	28 00 00 00 	lw $31,16($29)
  402b9c:	10 00 1f 1d 
  402ba0:	43 00 00 00 	addiu $29,$29,24
  402ba4:	18 00 1d 1d 
  402ba8:	03 00 00 00 	jr $31
  402bac:	00 00 00 1f 

00402bb0 <Fail_Check>:
  402bb0:	43 00 00 00 	addiu $29,$29,-24
  402bb4:	e8 ff 1d 1d 
  402bb8:	28 00 00 00 	lw $6,-32588($28)
  402bbc:	b4 80 06 1c 
  402bc0:	42 00 00 00 	addu $5,$0,$4
  402bc4:	00 05 04 00 
  402bc8:	a2 00 00 00 	lui $4,4096
  402bcc:	00 10 04 00 
  402bd0:	43 00 00 00 	addiu $4,$4,1692
  402bd4:	9c 06 04 04 
  402bd8:	34 00 00 00 	sw $31,16($29)
  402bdc:	10 00 1f 1d 
  402be0:	43 00 00 00 	addiu $6,$6,1
  402be4:	01 00 06 06 
  402be8:	34 00 00 00 	sw $6,-32588($28)
  402bec:	b4 80 06 1c 
  402bf0:	02 00 00 00 	jal 410990 <printf>
  402bf4:	64 42 10 00 
  402bf8:	28 00 00 00 	lw $31,16($29)
  402bfc:	10 00 1f 1d 
  402c00:	43 00 00 00 	addiu $29,$29,24
  402c04:	18 00 1d 1d 
  402c08:	03 00 00 00 	jr $31
  402c0c:	00 00 00 1f 

00402c10 <Check_Zero>:
  402c10:	28 00 00 00 	lw $2,-32592($28)
  402c14:	b0 80 02 1c 
  402c18:	43 00 00 00 	addiu $29,$29,-24
  402c1c:	e8 ff 1d 1d 
  402c20:	34 00 00 00 	sw $31,16($29)
  402c24:	10 00 1f 1d 
  402c28:	43 00 00 00 	addiu $2,$2,1
  402c2c:	01 00 02 02 
  402c30:	34 00 00 00 	sw $2,-32592($28)
  402c34:	b0 80 02 1c 
  402c38:	05 00 00 00 	beq $4,$0,402c58 <Check_Zero+0x48>
  402c3c:	06 00 00 04 
  402c40:	a2 00 00 00 	lui $4,4096
  402c44:	00 10 04 00 
  402c48:	43 00 00 00 	addiu $4,$4,1712
  402c4c:	b0 06 04 04 
  402c50:	02 00 00 00 	jal 402bb0 <Fail_Check>
  402c54:	ec 0a 10 00 
  402c58:	28 00 00 00 	lw $31,16($29)
  402c5c:	10 00 1f 1d 
  402c60:	43 00 00 00 	addiu $29,$29,24
  402c64:	18 00 1d 1d 
  402c68:	03 00 00 00 	jr $31
  402c6c:	00 00 00 1f 

00402c70 <Check_Nonzero>:
  402c70:	28 00 00 00 	lw $2,-32592($28)
  402c74:	b0 80 02 1c 
  402c78:	43 00 00 00 	addiu $29,$29,-24
  402c7c:	e8 ff 1d 1d 
  402c80:	34 00 00 00 	sw $31,16($29)
  402c84:	10 00 1f 1d 
  402c88:	43 00 00 00 	addiu $2,$2,1
  402c8c:	01 00 02 02 
  402c90:	34 00 00 00 	sw $2,-32592($28)
  402c94:	b0 80 02 1c 
  402c98:	06 00 00 00 	bne $4,$0,402cb8 <Check_Nonzero+0x48>
  402c9c:	06 00 00 04 
  402ca0:	a2 00 00 00 	lui $4,4096
  402ca4:	00 10 04 00 
  402ca8:	43 00 00 00 	addiu $4,$4,1724
  402cac:	bc 06 04 04 
  402cb0:	02 00 00 00 	jal 402bb0 <Fail_Check>
  402cb4:	ec 0a 10 00 
  402cb8:	28 00 00 00 	lw $31,16($29)
  402cbc:	10 00 1f 1d 
  402cc0:	43 00 00 00 	addiu $29,$29,24
  402cc4:	18 00 1d 1d 
  402cc8:	03 00 00 00 	jr $31
  402ccc:	00 00 00 1f 

00402cd0 <Check_No_Errors>:
  402cd0:	a2 00 00 00 	lui $4,4098
  402cd4:	02 10 04 00 
  402cd8:	22 00 00 00 	lbu $4,-14576($4)
  402cdc:	10 c7 04 04 
  402ce0:	43 00 00 00 	addiu $29,$29,-24
  402ce4:	e8 ff 1d 1d 
  402ce8:	34 00 00 00 	sw $31,16($29)
  402cec:	10 00 1f 1d 
  402cf0:	02 00 00 00 	jal 402c10 <Check_Zero>
  402cf4:	04 0b 10 00 
  402cf8:	28 00 00 00 	lw $31,16($29)
  402cfc:	10 00 1f 1d 
  402d00:	43 00 00 00 	addiu $29,$29,24
  402d04:	18 00 1d 1d 
  402d08:	03 00 00 00 	jr $31
  402d0c:	00 00 00 1f 

00402d10 <TC_Interrupt>:
  402d10:	43 00 00 00 	addiu $29,$29,-24
  402d14:	e8 ff 1d 1d 
  402d18:	34 00 00 00 	sw $16,16($29)
  402d1c:	10 00 10 1d 
  402d20:	a2 00 00 00 	lui $16,4096
  402d24:	00 10 10 00 
  402d28:	43 00 00 00 	addiu $16,$16,1740
  402d2c:	cc 06 10 10 
  402d30:	42 00 00 00 	addu $4,$0,$16
  402d34:	00 04 10 00 
  402d38:	43 00 00 00 	addiu $5,$0,3
  402d3c:	03 00 05 00 
  402d40:	34 00 00 00 	sw $31,20($29)
  402d44:	14 00 1f 1d 
  402d48:	02 00 00 00 	jal 410990 <printf>
  402d4c:	64 42 10 00 
  402d50:	42 00 00 00 	addu $4,$0,$16
  402d54:	00 04 10 00 
  402d58:	43 00 00 00 	addiu $5,$0,10
  402d5c:	0a 00 05 00 
  402d60:	02 00 00 00 	jal 410990 <printf>
  402d64:	64 42 10 00 
  402d68:	02 00 00 00 	jal 40df40 <TC_InterruptService>
  402d6c:	d0 37 10 00 
  402d70:	42 00 00 00 	addu $4,$0,$16
  402d74:	00 04 10 00 
  402d78:	43 00 00 00 	addiu $5,$0,3
  402d7c:	03 00 05 00 
  402d80:	02 00 00 00 	jal 410990 <printf>
  402d84:	64 42 10 00 
  402d88:	42 00 00 00 	addu $4,$0,$16
  402d8c:	00 04 10 00 
  402d90:	42 00 00 00 	addu $5,$0,$0
  402d94:	00 05 00 00 
  402d98:	02 00 00 00 	jal 410990 <printf>
  402d9c:	64 42 10 00 
  402da0:	28 00 00 00 	lw $31,20($29)
  402da4:	14 00 1f 1d 
  402da8:	28 00 00 00 	lw $16,16($29)
  402dac:	10 00 10 1d 
  402db0:	43 00 00 00 	addiu $29,$29,24
  402db4:	18 00 1d 1d 
  402db8:	03 00 00 00 	jr $31
  402dbc:	00 00 00 1f 

00402dc0 <Send_TC>:
  402dc0:	43 00 00 00 	addiu $29,$29,-24
  402dc4:	e8 ff 1d 1d 
  402dc8:	55 00 00 00 	sll $4,$4,0x1
  402dcc:	01 04 04 00 
  402dd0:	42 00 00 00 	addu $6,$0,$5
  402dd4:	00 06 05 00 
  402dd8:	52 00 00 00 	xor $5,$4,$5
  402ddc:	00 05 05 04 
  402de0:	4f 00 00 00 	andi $3,$5,15
  402de4:	0f 00 03 05 
  402de8:	4f 00 00 00 	andi $5,$5,255
  402dec:	ff 00 05 05 
  402df0:	57 00 00 00 	srl $5,$5,0x4
  402df4:	04 05 05 00 
  402df8:	52 00 00 00 	xor $3,$3,$5
  402dfc:	00 03 05 03 
  402e00:	4f 00 00 00 	andi $2,$3,3
  402e04:	03 00 02 03 
  402e08:	57 00 00 00 	srl $3,$3,0x2
  402e0c:	02 03 03 00 
  402e10:	52 00 00 00 	xor $2,$2,$3
  402e14:	00 02 03 02 
  402e18:	4f 00 00 00 	andi $3,$2,1
  402e1c:	01 00 03 02 
  402e20:	57 00 00 00 	srl $2,$2,0x1
  402e24:	01 02 02 00 
  402e28:	52 00 00 00 	xor $3,$3,$2
  402e2c:	00 03 02 03 
  402e30:	30 00 00 00 	sb $4,-32176($28)
  402e34:	50 82 04 1c 
  402e38:	50 00 00 00 	or $4,$4,$3
  402e3c:	00 04 03 04 
  402e40:	30 00 00 00 	sb $4,-32176($28)
  402e44:	50 82 04 1c 
  402e48:	4f 00 00 00 	andi $4,$4,255
  402e4c:	ff 00 04 04 
  402e50:	55 00 00 00 	sll $4,$4,0x8
  402e54:	08 04 04 00 
  402e58:	30 00 00 00 	sb $6,-32175($28)
  402e5c:	51 82 06 1c 
  402e60:	4f 00 00 00 	andi $6,$6,255
  402e64:	ff 00 06 06 
  402e68:	50 00 00 00 	or $6,$6,$4
  402e6c:	00 06 04 06 
  402e70:	43 00 00 00 	addiu $2,$0,1
  402e74:	01 00 02 00 
  402e78:	34 00 00 00 	sw $31,16($29)
  402e7c:	10 00 1f 1d 
  402e80:	32 00 00 00 	sh $6,-32174($28)
  402e84:	52 82 06 1c 
  402e88:	30 00 00 00 	sb $2,-32708($28)
  402e8c:	3c 80 02 1c 
  402e90:	02 00 00 00 	jal 402d10 <TC_Interrupt>
  402e94:	44 0b 10 00 
  402e98:	28 00 00 00 	lw $31,16($29)
  402e9c:	10 00 1f 1d 
  402ea0:	43 00 00 00 	addiu $29,$29,24
  402ea4:	18 00 1d 1d 
  402ea8:	03 00 00 00 	jr $31
  402eac:	00 00 00 1f 

00402eb0 <Send_TC_Word>:
  402eb0:	43 00 00 00 	addiu $29,$29,-24
  402eb4:	e8 ff 1d 1d 
  402eb8:	57 00 00 00 	srl $2,$4,0x8
  402ebc:	08 02 04 00 
  402ec0:	30 00 00 00 	sb $2,-32176($28)
  402ec4:	50 82 02 1c 
  402ec8:	4f 00 00 00 	andi $2,$2,255
  402ecc:	ff 00 02 02 
  402ed0:	55 00 00 00 	sll $2,$2,0x8
  402ed4:	08 02 02 00 
  402ed8:	30 00 00 00 	sb $4,-32175($28)
  402edc:	51 82 04 1c 
  402ee0:	4f 00 00 00 	andi $4,$4,255
  402ee4:	ff 00 04 04 
  402ee8:	50 00 00 00 	or $4,$4,$2
  402eec:	00 04 02 04 
  402ef0:	43 00 00 00 	addiu $2,$0,1
  402ef4:	01 00 02 00 
  402ef8:	34 00 00 00 	sw $31,16($29)
  402efc:	10 00 1f 1d 
  402f00:	32 00 00 00 	sh $4,-32174($28)
  402f04:	52 82 04 1c 
  402f08:	30 00 00 00 	sb $2,-32708($28)
  402f0c:	3c 80 02 1c 
  402f10:	02 00 00 00 	jal 402d10 <TC_Interrupt>
  402f14:	44 0b 10 00 
  402f18:	28 00 00 00 	lw $31,16($29)
  402f1c:	10 00 1f 1d 
  402f20:	43 00 00 00 	addiu $29,$29,24
  402f24:	18 00 1d 1d 
  402f28:	03 00 00 00 	jr $31
  402f2c:	00 00 00 1f 

00402f30 <TC_ISR_Tests>:
  402f30:	43 00 00 00 	addiu $29,$29,-32
  402f34:	e0 ff 1d 1d 
  402f38:	a2 00 00 00 	lui $4,4096
  402f3c:	00 10 04 00 
  402f40:	43 00 00 00 	addiu $4,$4,1756
  402f44:	dc 06 04 04 
  402f48:	34 00 00 00 	sw $31,28($29)
  402f4c:	1c 00 1f 1d 
  402f50:	34 00 00 00 	sw $18,24($29)
  402f54:	18 00 12 1d 
  402f58:	34 00 00 00 	sw $17,20($29)
  402f5c:	14 00 11 1d 
  402f60:	34 00 00 00 	sw $16,16($29)
  402f64:	10 00 10 1d 
  402f68:	02 00 00 00 	jal 410990 <printf>
  402f6c:	64 42 10 00 
  402f70:	a2 00 00 00 	lui $17,4096
  402f74:	00 10 11 00 
  402f78:	43 00 00 00 	addiu $17,$17,1772
  402f7c:	ec 06 11 11 
  402f80:	42 00 00 00 	addu $4,$0,$17
  402f84:	00 04 11 00 
  402f88:	a2 00 00 00 	lui $5,4096
  402f8c:	00 10 05 00 
  402f90:	43 00 00 00 	addiu $5,$5,1788
  402f94:	fc 06 05 05 
  402f98:	02 00 00 00 	jal 410990 <printf>
  402f9c:	64 42 10 00 
  402fa0:	30 00 00 00 	sb $0,-32708($28)
  402fa4:	3c 80 00 1c 
  402fa8:	02 00 00 00 	jal 402d10 <TC_Interrupt>
  402fac:	44 0b 10 00 
  402fb0:	42 00 00 00 	addu $4,$0,$17
  402fb4:	00 04 11 00 
  402fb8:	a2 00 00 00 	lui $5,4096
  402fbc:	00 10 05 00 
  402fc0:	43 00 00 00 	addiu $5,$5,1836
  402fc4:	2c 07 05 05 
  402fc8:	02 00 00 00 	jal 410990 <printf>
  402fcc:	64 42 10 00 
  402fd0:	42 00 00 00 	addu $4,$0,$0
  402fd4:	00 04 00 00 
  402fd8:	42 00 00 00 	addu $5,$0,$0
  402fdc:	00 05 00 00 
  402fe0:	43 00 00 00 	addiu $2,$0,6
  402fe4:	06 00 02 00 
  402fe8:	34 00 00 00 	sw $2,-32012($28)
  402fec:	f4 82 02 1c 
  402ff0:	02 00 00 00 	jal 402dc0 <Send_TC>
  402ff4:	70 0b 10 00 
  402ff8:	42 00 00 00 	addu $4,$0,$17
  402ffc:	00 04 11 00 
  403000:	a2 00 00 00 	lui $5,4096
  403004:	00 10 05 00 
  403008:	43 00 00 00 	addiu $5,$5,1876
  40300c:	54 07 05 05 
  403010:	02 00 00 00 	jal 410990 <printf>
  403014:	64 42 10 00 
  403018:	42 00 00 00 	addu $4,$0,$0
  40301c:	00 04 00 00 
  403020:	42 00 00 00 	addu $5,$0,$0
  403024:	00 05 00 00 
  403028:	43 00 00 00 	addiu $2,$0,2
  40302c:	02 00 02 00 
  403030:	34 00 00 00 	sw $2,-32012($28)
  403034:	f4 82 02 1c 
  403038:	02 00 00 00 	jal 402dc0 <Send_TC>
  40303c:	70 0b 10 00 
  403040:	42 00 00 00 	addu $4,$0,$17
  403044:	00 04 11 00 
  403048:	a2 00 00 00 	lui $5,4096
  40304c:	00 10 05 00 
  403050:	43 00 00 00 	addiu $5,$5,1924
  403054:	84 07 05 05 
  403058:	02 00 00 00 	jal 410990 <printf>
  40305c:	64 42 10 00 
  403060:	42 00 00 00 	addu $4,$0,$0
  403064:	00 04 00 00 
  403068:	42 00 00 00 	addu $5,$0,$0
  40306c:	00 05 00 00 
  403070:	43 00 00 00 	addiu $2,$0,4
  403074:	04 00 02 00 
  403078:	34 00 00 00 	sw $2,-32012($28)
  40307c:	f4 82 02 1c 
  403080:	02 00 00 00 	jal 402dc0 <Send_TC>
  403084:	70 0b 10 00 
  403088:	a2 00 00 00 	lui $18,4096
  40308c:	00 10 12 00 
  403090:	43 00 00 00 	addiu $18,$18,11424
  403094:	a0 2c 12 12 
  403098:	28 00 00 00 	lw $4,0($18)
  40309c:	00 00 04 12 
  4030a0:	53 00 00 00 	xori $4,$4,1
  4030a4:	01 00 04 04 
  4030a8:	5e 00 00 00 	sltiu $4,$4,1
  4030ac:	01 00 04 04 
  4030b0:	02 00 00 00 	jal 402c70 <Check_Nonzero>
  4030b4:	1c 0b 10 00 
  4030b8:	42 00 00 00 	addu $4,$0,$0
  4030bc:	00 04 00 00 
  4030c0:	02 00 00 00 	jal 4012a0 <FlushMail>
  4030c4:	a8 04 10 00 
  4030c8:	42 00 00 00 	addu $4,$0,$17
  4030cc:	00 04 11 00 
  4030d0:	a2 00 00 00 	lui $5,4096
  4030d4:	00 10 05 00 
  4030d8:	43 00 00 00 	addiu $5,$5,1956
  4030dc:	a4 07 05 05 
  4030e0:	02 00 00 00 	jal 410990 <printf>
  4030e4:	64 42 10 00 
  4030e8:	43 00 00 00 	addiu $2,$0,1
  4030ec:	01 00 02 00 
  4030f0:	30 00 00 00 	sb $2,-32708($28)
  4030f4:	3c 80 02 1c 
  4030f8:	30 00 00 00 	sb $2,-32175($28)
  4030fc:	51 82 02 1c 
  403100:	43 00 00 00 	addiu $2,$0,1
  403104:	01 00 02 00 
  403108:	34 00 00 00 	sw $0,-32012($28)
  40310c:	f4 82 00 1c 
  403110:	30 00 00 00 	sb $0,-32176($28)
  403114:	50 82 00 1c 
  403118:	32 00 00 00 	sh $2,-32174($28)
  40311c:	52 82 02 1c 
  403120:	02 00 00 00 	jal 402d10 <TC_Interrupt>
  403124:	44 0b 10 00 
  403128:	a2 00 00 00 	lui $16,4098
  40312c:	02 10 10 00 
  403130:	43 00 00 00 	addiu $16,$16,-14576
  403134:	10 c7 10 10 
  403138:	22 00 00 00 	lbu $4,0($16)
  40313c:	00 00 04 10 
  403140:	4f 00 00 00 	andi $4,$4,2
  403144:	02 00 04 04 
  403148:	02 00 00 00 	jal 402c70 <Check_Nonzero>
  40314c:	1c 0b 10 00 
  403150:	42 00 00 00 	addu $4,$0,$17
  403154:	00 04 11 00 
  403158:	a2 00 00 00 	lui $5,4096
  40315c:	00 10 05 00 
  403160:	43 00 00 00 	addiu $5,$5,1980
  403164:	bc 07 05 05 
  403168:	02 00 00 00 	jal 410990 <printf>
  40316c:	64 42 10 00 
  403170:	43 00 00 00 	addiu $4,$0,3
  403174:	03 00 04 00 
  403178:	43 00 00 00 	addiu $5,$0,3
  40317c:	03 00 05 00 
  403180:	02 00 00 00 	jal 402dc0 <Send_TC>
  403184:	70 0b 10 00 
  403188:	22 00 00 00 	lbu $4,0($16)
  40318c:	00 00 04 10 
  403190:	4f 00 00 00 	andi $4,$4,2
  403194:	02 00 04 04 
  403198:	02 00 00 00 	jal 402c70 <Check_Nonzero>
  40319c:	1c 0b 10 00 
  4031a0:	28 00 00 00 	lw $4,0($18)
  4031a4:	00 00 04 12 
  4031a8:	53 00 00 00 	xori $4,$4,1
  4031ac:	01 00 04 04 
  4031b0:	5e 00 00 00 	sltiu $4,$4,1
  4031b4:	01 00 04 04 
  4031b8:	02 00 00 00 	jal 402c70 <Check_Nonzero>
  4031bc:	1c 0b 10 00 
  4031c0:	42 00 00 00 	addu $4,$0,$0
  4031c4:	00 04 00 00 
  4031c8:	02 00 00 00 	jal 4012a0 <FlushMail>
  4031cc:	a8 04 10 00 
  4031d0:	30 00 00 00 	sb $0,0($16)
  4031d4:	00 00 00 10 
  4031d8:	02 00 00 00 	jal 402cd0 <Check_No_Errors>
  4031dc:	34 0b 10 00 
  4031e0:	42 00 00 00 	addu $4,$0,$17
  4031e4:	00 04 11 00 
  4031e8:	a2 00 00 00 	lui $5,4096
  4031ec:	00 10 05 00 
  4031f0:	43 00 00 00 	addiu $5,$5,2008
  4031f4:	d8 07 05 05 
  4031f8:	02 00 00 00 	jal 410990 <printf>
  4031fc:	64 42 10 00 
  403200:	43 00 00 00 	addiu $4,$0,5
  403204:	05 00 04 00 
  403208:	43 00 00 00 	addiu $5,$0,8
  40320c:	08 00 05 00 
  403210:	02 00 00 00 	jal 402dc0 <Send_TC>
  403214:	70 0b 10 00 
  403218:	02 00 00 00 	jal 402cd0 <Check_No_Errors>
  40321c:	34 0b 10 00 
  403220:	28 00 00 00 	lw $4,-32012($28)
  403224:	f4 82 04 1c 
  403228:	53 00 00 00 	xori $4,$4,5
  40322c:	05 00 04 04 
  403230:	5e 00 00 00 	sltiu $4,$4,1
  403234:	01 00 04 04 
  403238:	02 00 00 00 	jal 402c70 <Check_Nonzero>
  40323c:	1c 0b 10 00 
  403240:	28 00 00 00 	lw $4,0($18)
  403244:	00 00 04 12 
  403248:	53 00 00 00 	xori $4,$4,1
  40324c:	01 00 04 04 
  403250:	5e 00 00 00 	sltiu $4,$4,1
  403254:	01 00 04 04 
  403258:	02 00 00 00 	jal 402c70 <Check_Nonzero>
  40325c:	1c 0b 10 00 
  403260:	42 00 00 00 	addu $4,$0,$0
  403264:	00 04 00 00 
  403268:	02 00 00 00 	jal 4012a0 <FlushMail>
  40326c:	a8 04 10 00 
  403270:	42 00 00 00 	addu $4,$0,$17
  403274:	00 04 11 00 
  403278:	a2 00 00 00 	lui $5,4096
  40327c:	00 10 05 00 
  403280:	43 00 00 00 	addiu $5,$5,2040
  403284:	f8 07 05 05 
  403288:	02 00 00 00 	jal 410990 <printf>
  40328c:	64 42 10 00 
  403290:	43 00 00 00 	addiu $4,$0,4
  403294:	04 00 04 00 
  403298:	43 00 00 00 	addiu $5,$0,4
  40329c:	04 00 05 00 
  4032a0:	02 00 00 00 	jal 402dc0 <Send_TC>
  4032a4:	70 0b 10 00 
  4032a8:	22 00 00 00 	lbu $4,0($16)
  4032ac:	00 00 04 10 
  4032b0:	53 00 00 00 	xori $4,$4,1
  4032b4:	01 00 04 04 
  4032b8:	5e 00 00 00 	sltiu $4,$4,1
  4032bc:	01 00 04 04 
  4032c0:	02 00 00 00 	jal 402c70 <Check_Nonzero>
  4032c4:	1c 0b 10 00 
  4032c8:	28 00 00 00 	lw $4,0($18)
  4032cc:	00 00 04 12 
  4032d0:	5e 00 00 00 	sltiu $4,$4,1
  4032d4:	01 00 04 04 
  4032d8:	02 00 00 00 	jal 402c70 <Check_Nonzero>
  4032dc:	1c 0b 10 00 
  4032e0:	42 00 00 00 	addu $4,$0,$17
  4032e4:	00 04 11 00 
  4032e8:	a2 00 00 00 	lui $5,4096
  4032ec:	00 10 05 00 
  4032f0:	43 00 00 00 	addiu $5,$5,2060
  4032f4:	0c 08 05 05 
  4032f8:	30 00 00 00 	sb $0,0($16)
  4032fc:	00 00 00 10 
  403300:	02 00 00 00 	jal 410990 <printf>
  403304:	64 42 10 00 
  403308:	43 00 00 00 	addiu $4,$0,3
  40330c:	03 00 04 00 
  403310:	43 00 00 00 	addiu $5,$0,252
  403314:	fc 00 05 00 
  403318:	02 00 00 00 	jal 402dc0 <Send_TC>
  40331c:	70 0b 10 00 
  403320:	22 00 00 00 	lbu $4,0($16)
  403324:	00 00 04 10 
  403328:	53 00 00 00 	xori $4,$4,1
  40332c:	01 00 04 04 
  403330:	5e 00 00 00 	sltiu $4,$4,1
  403334:	01 00 04 04 
  403338:	02 00 00 00 	jal 402c70 <Check_Nonzero>
  40333c:	1c 0b 10 00 
  403340:	28 00 00 00 	lw $4,0($18)
  403344:	00 00 04 12 
  403348:	5e 00 00 00 	sltiu $4,$4,1
  40334c:	01 00 04 04 
  403350:	02 00 00 00 	jal 402c70 <Check_Nonzero>
  403354:	1c 0b 10 00 
  403358:	42 00 00 00 	addu $4,$0,$17
  40335c:	00 04 11 00 
  403360:	a2 00 00 00 	lui $5,4096
  403364:	00 10 05 00 
  403368:	43 00 00 00 	addiu $5,$5,2088
  40336c:	28 08 05 05 
  403370:	30 00 00 00 	sb $0,0($16)
  403374:	00 00 00 10 
  403378:	02 00 00 00 	jal 410990 <printf>
  40337c:	64 42 10 00 
  403380:	43 00 00 00 	addiu $4,$0,64
  403384:	40 00 04 00 
  403388:	43 00 00 00 	addiu $5,$0,63
  40338c:	3f 00 05 00 
  403390:	02 00 00 00 	jal 402dc0 <Send_TC>
  403394:	70 0b 10 00 
  403398:	22 00 00 00 	lbu $4,0($16)
  40339c:	00 00 04 10 
  4033a0:	53 00 00 00 	xori $4,$4,1
  4033a4:	01 00 04 04 
  4033a8:	5e 00 00 00 	sltiu $4,$4,1
  4033ac:	01 00 04 04 
  4033b0:	02 00 00 00 	jal 402c70 <Check_Nonzero>
  4033b4:	1c 0b 10 00 
  4033b8:	28 00 00 00 	lw $4,0($18)
  4033bc:	00 00 04 12 
  4033c0:	5e 00 00 00 	sltiu $4,$4,1
  4033c4:	01 00 04 04 
  4033c8:	02 00 00 00 	jal 402c70 <Check_Nonzero>
  4033cc:	1c 0b 10 00 
  4033d0:	42 00 00 00 	addu $4,$0,$17
  4033d4:	00 04 11 00 
  4033d8:	a2 00 00 00 	lui $5,4096
  4033dc:	00 10 05 00 
  4033e0:	43 00 00 00 	addiu $5,$5,2112
  4033e4:	40 08 05 05 
  4033e8:	30 00 00 00 	sb $0,0($16)
  4033ec:	00 00 00 10 
  4033f0:	02 00 00 00 	jal 410990 <printf>
  4033f4:	64 42 10 00 
  4033f8:	43 00 00 00 	addiu $4,$0,5
  4033fc:	05 00 04 00 
  403400:	43 00 00 00 	addiu $5,$0,5
  403404:	05 00 05 00 
  403408:	02 00 00 00 	jal 402dc0 <Send_TC>
  40340c:	70 0b 10 00 
  403410:	28 00 00 00 	lw $4,-32012($28)
  403414:	f4 82 04 1c 
  403418:	5e 00 00 00 	sltiu $4,$4,1
  40341c:	01 00 04 04 
  403420:	02 00 00 00 	jal 402c70 <Check_Nonzero>
  403424:	1c 0b 10 00 
  403428:	22 00 00 00 	lbu $4,0($16)
  40342c:	00 00 04 10 
  403430:	53 00 00 00 	xori $4,$4,1
  403434:	01 00 04 04 
  403438:	5e 00 00 00 	sltiu $4,$4,1
  40343c:	01 00 04 04 
  403440:	02 00 00 00 	jal 402c70 <Check_Nonzero>
  403444:	1c 0b 10 00 
  403448:	28 00 00 00 	lw $4,0($18)
  40344c:	00 00 04 12 
  403450:	5e 00 00 00 	sltiu $4,$4,1
  403454:	01 00 04 04 
  403458:	02 00 00 00 	jal 402c70 <Check_Nonzero>
  40345c:	1c 0b 10 00 
  403460:	42 00 00 00 	addu $4,$0,$17
  403464:	00 04 11 00 
  403468:	a2 00 00 00 	lui $5,4096
  40346c:	00 10 05 00 
  403470:	43 00 00 00 	addiu $5,$5,2144
  403474:	60 08 05 05 
  403478:	30 00 00 00 	sb $0,0($16)
  40347c:	00 00 00 10 
  403480:	02 00 00 00 	jal 410990 <printf>
  403484:	64 42 10 00 
  403488:	43 00 00 00 	addiu $4,$0,5
  40348c:	05 00 04 00 
  403490:	43 00 00 00 	addiu $5,$0,118
  403494:	76 00 05 00 
  403498:	02 00 00 00 	jal 402dc0 <Send_TC>
  40349c:	70 0b 10 00 
  4034a0:	28 00 00 00 	lw $4,-32012($28)
  4034a4:	f4 82 04 1c 
  4034a8:	5e 00 00 00 	sltiu $4,$4,1
  4034ac:	01 00 04 04 
  4034b0:	02 00 00 00 	jal 402c70 <Check_Nonzero>
  4034b4:	1c 0b 10 00 
  4034b8:	22 00 00 00 	lbu $4,0($16)
  4034bc:	00 00 04 10 
  4034c0:	53 00 00 00 	xori $4,$4,1
  4034c4:	01 00 04 04 
  4034c8:	5e 00 00 00 	sltiu $4,$4,1
  4034cc:	01 00 04 04 
  4034d0:	02 00 00 00 	jal 402c70 <Check_Nonzero>
  4034d4:	1c 0b 10 00 
  4034d8:	28 00 00 00 	lw $4,0($18)
  4034dc:	00 00 04 12 
  4034e0:	5e 00 00 00 	sltiu $4,$4,1
  4034e4:	01 00 04 04 
  4034e8:	02 00 00 00 	jal 402c70 <Check_Nonzero>
  4034ec:	1c 0b 10 00 
  4034f0:	30 00 00 00 	sb $0,0($16)
  4034f4:	00 00 00 10 
  4034f8:	28 00 00 00 	lw $31,28($29)
  4034fc:	1c 00 1f 1d 
  403500:	28 00 00 00 	lw $18,24($29)
  403504:	18 00 12 1d 
  403508:	28 00 00 00 	lw $17,20($29)
  40350c:	14 00 11 1d 
  403510:	28 00 00 00 	lw $16,16($29)
  403514:	10 00 10 1d 
  403518:	43 00 00 00 	addiu $29,$29,32
  40351c:	20 00 1d 1d 
  403520:	03 00 00 00 	jr $31
  403524:	00 00 00 1f 

00403528 <Handle_TC>:
  403528:	43 00 00 00 	addiu $29,$29,-32
  40352c:	e0 ff 1d 1d 
  403530:	34 00 00 00 	sw $17,20($29)
  403534:	14 00 11 1d 
  403538:	42 00 00 00 	addu $17,$0,$4
  40353c:	00 11 04 00 
  403540:	34 00 00 00 	sw $18,24($29)
  403544:	18 00 12 1d 
  403548:	a2 00 00 00 	lui $18,4096
  40354c:	00 10 12 00 
  403550:	43 00 00 00 	addiu $18,$18,11424
  403554:	a0 2c 12 12 
  403558:	34 00 00 00 	sw $31,28($29)
  40355c:	1c 00 1f 1d 
  403560:	34 00 00 00 	sw $16,16($29)
  403564:	10 00 10 1d 
  403568:	28 00 00 00 	lw $4,0($18)
  40356c:	00 00 04 12 
  403570:	53 00 00 00 	xori $4,$4,1
  403574:	01 00 04 04 
  403578:	5e 00 00 00 	sltiu $4,$4,1
  40357c:	01 00 04 04 
  403580:	02 00 00 00 	jal 402c70 <Check_Nonzero>
  403584:	1c 0b 10 00 
  403588:	a2 00 00 00 	lui $16,4096
  40358c:	00 10 10 00 
  403590:	43 00 00 00 	addiu $16,$16,1740
  403594:	cc 06 10 10 
  403598:	42 00 00 00 	addu $4,$0,$16
  40359c:	00 04 10 00 
  4035a0:	43 00 00 00 	addiu $5,$0,3
  4035a4:	03 00 05 00 
  4035a8:	02 00 00 00 	jal 410990 <printf>
  4035ac:	64 42 10 00 
  4035b0:	42 00 00 00 	addu $4,$0,$16
  4035b4:	00 04 10 00 
  4035b8:	42 00 00 00 	addu $5,$0,$17
  4035bc:	00 05 11 00 
  4035c0:	02 00 00 00 	jal 410990 <printf>
  4035c4:	64 42 10 00 
  4035c8:	02 00 00 00 	jal 40fa80 <HandleTelecommand>
  4035cc:	a0 3e 10 00 
  4035d0:	42 00 00 00 	addu $4,$0,$16
  4035d4:	00 04 10 00 
  4035d8:	43 00 00 00 	addiu $5,$0,3
  4035dc:	03 00 05 00 
  4035e0:	02 00 00 00 	jal 410990 <printf>
  4035e4:	64 42 10 00 
  4035e8:	42 00 00 00 	addu $4,$0,$16
  4035ec:	00 04 10 00 
  4035f0:	42 00 00 00 	addu $5,$0,$0
  4035f4:	00 05 00 00 
  4035f8:	02 00 00 00 	jal 410990 <printf>
  4035fc:	64 42 10 00 
  403600:	28 00 00 00 	lw $4,0($18)
  403604:	00 00 04 12 
  403608:	5e 00 00 00 	sltiu $4,$4,1
  40360c:	01 00 04 04 
  403610:	02 00 00 00 	jal 402c70 <Check_Nonzero>
  403614:	1c 0b 10 00 
  403618:	28 00 00 00 	lw $31,28($29)
  40361c:	1c 00 1f 1d 
  403620:	28 00 00 00 	lw $18,24($29)
  403624:	18 00 12 1d 
  403628:	28 00 00 00 	lw $17,20($29)
  40362c:	14 00 11 1d 
  403630:	28 00 00 00 	lw $16,16($29)
  403634:	10 00 10 1d 
  403638:	43 00 00 00 	addiu $29,$29,32
  40363c:	20 00 1d 1d 
  403640:	03 00 00 00 	jr $31
  403644:	00 00 00 1f 

00403648 <Exec_TC>:
  403648:	43 00 00 00 	addiu $29,$29,-24
  40364c:	e8 ff 1d 1d 
  403650:	34 00 00 00 	sw $16,16($29)
  403654:	10 00 10 1d 
  403658:	42 00 00 00 	addu $16,$0,$6
  40365c:	00 10 06 00 
  403660:	4f 00 00 00 	andi $4,$4,255
  403664:	ff 00 04 04 
  403668:	4f 00 00 00 	andi $5,$5,255
  40366c:	ff 00 05 05 
  403670:	34 00 00 00 	sw $31,20($29)
  403674:	14 00 1f 1d 
  403678:	02 00 00 00 	jal 402dc0 <Send_TC>
  40367c:	70 0b 10 00 
  403680:	42 00 00 00 	addu $4,$0,$16
  403684:	00 04 10 00 
  403688:	02 00 00 00 	jal 403528 <Handle_TC>
  40368c:	4a 0d 10 00 
  403690:	28 00 00 00 	lw $31,20($29)
  403694:	14 00 1f 1d 
  403698:	28 00 00 00 	lw $16,16($29)
  40369c:	10 00 10 1d 
  4036a0:	43 00 00 00 	addiu $29,$29,24
  4036a4:	18 00 1d 1d 
  4036a8:	03 00 00 00 	jr $31
  4036ac:	00 00 00 1f 

004036b0 <Send_Patch_Code>:
  4036b0:	43 00 00 00 	addiu $29,$29,-32
  4036b4:	e0 ff 1d 1d 
  4036b8:	34 00 00 00 	sw $18,24($29)
  4036bc:	18 00 12 1d 
  4036c0:	42 00 00 00 	addu $18,$0,$5
  4036c4:	00 12 05 00 
  4036c8:	34 00 00 00 	sw $17,20($29)
  4036cc:	14 00 11 1d 
  4036d0:	42 00 00 00 	addu $17,$0,$4
  4036d4:	00 11 04 00 
  4036d8:	57 00 00 00 	srl $5,$17,0x8
  4036dc:	08 05 11 00 
  4036e0:	43 00 00 00 	addiu $4,$0,16
  4036e4:	10 00 04 00 
  4036e8:	4f 00 00 00 	andi $5,$5,255
  4036ec:	ff 00 05 05 
  4036f0:	43 00 00 00 	addiu $6,$0,42
  4036f4:	2a 00 06 00 
  4036f8:	34 00 00 00 	sw $31,28($29)
  4036fc:	1c 00 1f 1d 
  403700:	34 00 00 00 	sw $16,16($29)
  403704:	10 00 10 1d 
  403708:	02 00 00 00 	jal 403648 <Exec_TC>
  40370c:	92 0d 10 00 
  403710:	26 00 00 00 	lhu $16,-32174($28)
  403714:	52 82 10 1c 
  403718:	57 00 00 00 	srl $2,$16,0x8
  40371c:	08 02 10 00 
  403720:	52 00 00 00 	xor $16,$16,$2
  403724:	00 10 02 10 
  403728:	02 00 00 00 	jal 402cd0 <Check_No_Errors>
  40372c:	34 0b 10 00 
  403730:	28 00 00 00 	lw $4,-32012($28)
  403734:	f4 82 04 1c 
  403738:	53 00 00 00 	xori $4,$4,3
  40373c:	03 00 04 04 
  403740:	5e 00 00 00 	sltiu $4,$4,1
  403744:	01 00 04 04 
  403748:	02 00 00 00 	jal 402c70 <Check_Nonzero>
  40374c:	1c 0b 10 00 
  403750:	43 00 00 00 	addiu $4,$0,111
  403754:	6f 00 04 00 
  403758:	4f 00 00 00 	andi $5,$17,255
  40375c:	ff 00 05 11 
  403760:	43 00 00 00 	addiu $6,$0,43
  403764:	2b 00 06 00 
  403768:	02 00 00 00 	jal 403648 <Exec_TC>
  40376c:	92 0d 10 00 
  403770:	26 00 00 00 	lhu $2,-32174($28)
  403774:	52 82 02 1c 
  403778:	57 00 00 00 	srl $3,$2,0x8
  40377c:	08 03 02 00 
  403780:	52 00 00 00 	xor $2,$2,$3
  403784:	00 02 03 02 
  403788:	52 00 00 00 	xor $16,$16,$2
  40378c:	00 10 02 10 
  403790:	02 00 00 00 	jal 402cd0 <Check_No_Errors>
  403794:	34 0b 10 00 
  403798:	28 00 00 00 	lw $4,-32012($28)
  40379c:	f4 82 04 1c 
  4037a0:	42 00 00 00 	addu $17,$0,$0
  4037a4:	00 11 00 00 
  4037a8:	53 00 00 00 	xori $4,$4,4
  4037ac:	04 00 04 04 
  4037b0:	5e 00 00 00 	sltiu $4,$4,1
  4037b4:	01 00 04 04 
  4037b8:	02 00 00 00 	jal 402c70 <Check_Nonzero>
  4037bc:	1c 0b 10 00 
  4037c0:	55 00 00 00 	sll $4,$17,0x6
  4037c4:	06 04 11 00 
  4037c8:	02 00 00 00 	jal 402eb0 <Send_TC_Word>
  4037cc:	ac 0b 10 00 
  4037d0:	26 00 00 00 	lhu $2,-32174($28)
  4037d4:	52 82 02 1c 
  4037d8:	43 00 00 00 	addiu $4,$0,44
  4037dc:	2c 00 04 00 
  4037e0:	43 00 00 00 	addiu $17,$17,1
  4037e4:	01 00 11 11 
  4037e8:	57 00 00 00 	srl $3,$2,0x8
  4037ec:	08 03 02 00 
  4037f0:	52 00 00 00 	xor $2,$2,$3
  4037f4:	00 02 03 02 
  4037f8:	52 00 00 00 	xor $16,$16,$2
  4037fc:	00 10 02 10 
  403800:	02 00 00 00 	jal 403528 <Handle_TC>
  403804:	4a 0d 10 00 
  403808:	5e 00 00 00 	sltiu $2,$17,16
  40380c:	10 00 02 11 
  403810:	06 00 00 00 	bne $2,$0,4037c0 <Send_Patch_Code+0x110>
  403814:	ea ff 00 02 
  403818:	30 00 00 00 	sb $16,0($18)
  40381c:	00 00 10 12 
  403820:	28 00 00 00 	lw $31,28($29)
  403824:	1c 00 1f 1d 
  403828:	28 00 00 00 	lw $18,24($29)
  40382c:	18 00 12 1d 
  403830:	28 00 00 00 	lw $17,20($29)
  403834:	14 00 11 1d 
  403838:	28 00 00 00 	lw $16,16($29)
  40383c:	10 00 10 1d 
  403840:	43 00 00 00 	addiu $29,$29,32
  403844:	20 00 1d 1d 
  403848:	03 00 00 00 	jr $31
  40384c:	00 00 00 1f 

00403850 <Send_Patch_Data>:
  403850:	43 00 00 00 	addiu $29,$29,-32
  403854:	e0 ff 1d 1d 
  403858:	34 00 00 00 	sw $18,24($29)
  40385c:	18 00 12 1d 
  403860:	42 00 00 00 	addu $18,$0,$5
  403864:	00 12 05 00 
  403868:	34 00 00 00 	sw $17,20($29)
  40386c:	14 00 11 1d 
  403870:	42 00 00 00 	addu $17,$0,$4
  403874:	00 11 04 00 
  403878:	57 00 00 00 	srl $5,$17,0x8
  40387c:	08 05 11 00 
  403880:	43 00 00 00 	addiu $4,$0,21
  403884:	15 00 04 00 
  403888:	4f 00 00 00 	andi $5,$5,255
  40388c:	ff 00 05 05 
  403890:	43 00 00 00 	addiu $6,$0,42
  403894:	2a 00 06 00 
  403898:	34 00 00 00 	sw $31,28($29)
  40389c:	1c 00 1f 1d 
  4038a0:	34 00 00 00 	sw $16,16($29)
  4038a4:	10 00 10 1d 
  4038a8:	02 00 00 00 	jal 403648 <Exec_TC>
  4038ac:	92 0d 10 00 
  4038b0:	26 00 00 00 	lhu $16,-32174($28)
  4038b4:	52 82 10 1c 
  4038b8:	57 00 00 00 	srl $2,$16,0x8
  4038bc:	08 02 10 00 
  4038c0:	52 00 00 00 	xor $16,$16,$2
  4038c4:	00 10 02 10 
  4038c8:	02 00 00 00 	jal 402cd0 <Check_No_Errors>
  4038cc:	34 0b 10 00 
  4038d0:	28 00 00 00 	lw $4,-32012($28)
  4038d4:	f4 82 04 1c 
  4038d8:	53 00 00 00 	xori $4,$4,3
  4038dc:	03 00 04 04 
  4038e0:	5e 00 00 00 	sltiu $4,$4,1
  4038e4:	01 00 04 04 
  4038e8:	02 00 00 00 	jal 402c70 <Check_Nonzero>
  4038ec:	1c 0b 10 00 
  4038f0:	43 00 00 00 	addiu $4,$0,106
  4038f4:	6a 00 04 00 
  4038f8:	4f 00 00 00 	andi $5,$17,255
  4038fc:	ff 00 05 11 
  403900:	43 00 00 00 	addiu $6,$0,43
  403904:	2b 00 06 00 
  403908:	02 00 00 00 	jal 403648 <Exec_TC>
  40390c:	92 0d 10 00 
  403910:	26 00 00 00 	lhu $2,-32174($28)
  403914:	52 82 02 1c 
  403918:	57 00 00 00 	srl $3,$2,0x8
  40391c:	08 03 02 00 
  403920:	52 00 00 00 	xor $2,$2,$3
  403924:	00 02 03 02 
  403928:	52 00 00 00 	xor $16,$16,$2
  40392c:	00 10 02 10 
  403930:	02 00 00 00 	jal 402cd0 <Check_No_Errors>
  403934:	34 0b 10 00 
  403938:	28 00 00 00 	lw $4,-32012($28)
  40393c:	f4 82 04 1c 
  403940:	42 00 00 00 	addu $17,$0,$0
  403944:	00 11 00 00 
  403948:	53 00 00 00 	xori $4,$4,4
  40394c:	04 00 04 04 
  403950:	5e 00 00 00 	sltiu $4,$4,1
  403954:	01 00 04 04 
  403958:	02 00 00 00 	jal 402c70 <Check_Nonzero>
  40395c:	1c 0b 10 00 
  403960:	55 00 00 00 	sll $4,$17,0x6
  403964:	06 04 11 00 
  403968:	02 00 00 00 	jal 402eb0 <Send_TC_Word>
  40396c:	ac 0b 10 00 
  403970:	26 00 00 00 	lhu $2,-32174($28)
  403974:	52 82 02 1c 
  403978:	43 00 00 00 	addiu $4,$0,44
  40397c:	2c 00 04 00 
  403980:	43 00 00 00 	addiu $17,$17,1
  403984:	01 00 11 11 
  403988:	57 00 00 00 	srl $3,$2,0x8
  40398c:	08 03 02 00 
  403990:	52 00 00 00 	xor $2,$2,$3
  403994:	00 02 03 02 
  403998:	52 00 00 00 	xor $16,$16,$2
  40399c:	00 10 02 10 
  4039a0:	02 00 00 00 	jal 403528 <Handle_TC>
  4039a4:	4a 0d 10 00 
  4039a8:	5e 00 00 00 	sltiu $2,$17,16
  4039ac:	10 00 02 11 
  4039b0:	06 00 00 00 	bne $2,$0,403960 <Send_Patch_Data+0x110>
  4039b4:	ea ff 00 02 
  4039b8:	30 00 00 00 	sb $16,0($18)
  4039bc:	00 00 10 12 
  4039c0:	28 00 00 00 	lw $31,28($29)
  4039c4:	1c 00 1f 1d 
  4039c8:	28 00 00 00 	lw $18,24($29)
  4039cc:	18 00 12 1d 
  4039d0:	28 00 00 00 	lw $17,20($29)
  4039d4:	14 00 11 1d 
  4039d8:	28 00 00 00 	lw $16,16($29)
  4039dc:	10 00 10 1d 
  4039e0:	43 00 00 00 	addiu $29,$29,32
  4039e4:	20 00 1d 1d 
  4039e8:	03 00 00 00 	jr $31
  4039ec:	00 00 00 1f 

004039f0 <Read_Data_Memory>:
  4039f0:	43 00 00 00 	addiu $29,$29,-32
  4039f4:	e0 ff 1d 1d 
  4039f8:	34 00 00 00 	sw $16,16($29)
  4039fc:	10 00 10 1d 
  403a00:	42 00 00 00 	addu $16,$0,$4
  403a04:	00 10 04 00 
  403a08:	57 00 00 00 	srl $5,$16,0x8
  403a0c:	08 05 10 00 
  403a10:	43 00 00 00 	addiu $4,$0,31
  403a14:	1f 00 04 00 
  403a18:	4f 00 00 00 	andi $5,$5,255
  403a1c:	ff 00 05 05 
  403a20:	43 00 00 00 	addiu $6,$0,41
  403a24:	29 00 06 00 
  403a28:	34 00 00 00 	sw $31,24($29)
  403a2c:	18 00 1f 1d 
  403a30:	34 00 00 00 	sw $17,20($29)
  403a34:	14 00 11 1d 
  403a38:	02 00 00 00 	jal 403648 <Exec_TC>
  403a3c:	92 0d 10 00 
  403a40:	02 00 00 00 	jal 402cd0 <Check_No_Errors>
  403a44:	34 0b 10 00 
  403a48:	28 00 00 00 	lw $4,-32012($28)
  403a4c:	f4 82 04 1c 
  403a50:	53 00 00 00 	xori $4,$4,1
  403a54:	01 00 04 04 
  403a58:	5e 00 00 00 	sltiu $4,$4,1
  403a5c:	01 00 04 04 
  403a60:	02 00 00 00 	jal 402c70 <Check_Nonzero>
  403a64:	1c 0b 10 00 
  403a68:	43 00 00 00 	addiu $4,$0,96
  403a6c:	60 00 04 00 
  403a70:	4f 00 00 00 	andi $5,$16,255
  403a74:	ff 00 05 10 
  403a78:	43 00 00 00 	addiu $6,$0,41
  403a7c:	29 00 06 00 
  403a80:	02 00 00 00 	jal 403648 <Exec_TC>
  403a84:	92 0d 10 00 
  403a88:	02 00 00 00 	jal 402cd0 <Check_No_Errors>
  403a8c:	34 0b 10 00 
  403a90:	28 00 00 00 	lw $4,-32012($28)
  403a94:	f4 82 04 1c 
  403a98:	42 00 00 00 	addu $16,$0,$0
  403a9c:	00 10 00 00 
  403aa0:	a2 00 00 00 	lui $17,4096
  403aa4:	00 10 11 00 
  403aa8:	43 00 00 00 	addiu $17,$17,1740
  403aac:	cc 06 11 11 
  403ab0:	53 00 00 00 	xori $4,$4,2
  403ab4:	02 00 04 04 
  403ab8:	5e 00 00 00 	sltiu $4,$4,1
  403abc:	01 00 04 04 
  403ac0:	02 00 00 00 	jal 402c70 <Check_Nonzero>
  403ac4:	1c 0b 10 00 
  403ac8:	28 00 00 00 	lw $2,-31972($28)
  403acc:	1c 83 02 1c 
  403ad0:	28 00 00 00 	lw $4,-31984($28)
  403ad4:	10 83 04 1c 
  403ad8:	5d 00 00 00 	sltu $4,$2,$4
  403adc:	00 04 04 02 
  403ae0:	02 00 00 00 	jal 402c70 <Check_Nonzero>
  403ae4:	1c 0b 10 00 
  403ae8:	42 00 00 00 	addu $4,$0,$17
  403aec:	00 04 11 00 
  403af0:	43 00 00 00 	addiu $5,$0,3
  403af4:	03 00 05 00 
  403af8:	02 00 00 00 	jal 410990 <printf>
  403afc:	64 42 10 00 
  403b00:	42 00 00 00 	addu $4,$0,$17
  403b04:	00 04 11 00 
  403b08:	43 00 00 00 	addiu $5,$0,21
  403b0c:	15 00 05 00 
  403b10:	02 00 00 00 	jal 410990 <printf>
  403b14:	64 42 10 00 
  403b18:	02 00 00 00 	jal 40fda8 <TM_InterruptService>
  403b1c:	6a 3f 10 00 
  403b20:	42 00 00 00 	addu $4,$0,$17
  403b24:	00 04 11 00 
  403b28:	43 00 00 00 	addiu $5,$0,3
  403b2c:	03 00 05 00 
  403b30:	02 00 00 00 	jal 410990 <printf>
  403b34:	64 42 10 00 
  403b38:	42 00 00 00 	addu $4,$0,$17
  403b3c:	00 04 11 00 
  403b40:	42 00 00 00 	addu $5,$0,$0
  403b44:	00 05 00 00 
  403b48:	02 00 00 00 	jal 410990 <printf>
  403b4c:	64 42 10 00 
  403b50:	28 00 00 00 	lw $4,-32012($28)
  403b54:	f4 82 04 1c 
  403b58:	43 00 00 00 	addiu $16,$16,1
  403b5c:	01 00 10 10 
  403b60:	53 00 00 00 	xori $4,$4,2
  403b64:	02 00 04 04 
  403b68:	5e 00 00 00 	sltiu $4,$4,1
  403b6c:	01 00 04 04 
  403b70:	02 00 00 00 	jal 402c70 <Check_Nonzero>
  403b74:	1c 0b 10 00 
  403b78:	5e 00 00 00 	sltiu $2,$16,16
  403b7c:	10 00 02 10 
  403b80:	06 00 00 00 	bne $2,$0,403ac8 <Read_Data_Memory+0xd8>
  403b84:	d0 ff 00 02 
  403b88:	28 00 00 00 	lw $4,-31972($28)
  403b8c:	1c 83 04 1c 
  403b90:	28 00 00 00 	lw $2,-31984($28)
  403b94:	10 83 02 1c 
  403b98:	52 00 00 00 	xor $4,$4,$2
  403b9c:	00 04 02 04 
  403ba0:	5e 00 00 00 	sltiu $4,$4,1
  403ba4:	01 00 04 04 
  403ba8:	02 00 00 00 	jal 402c70 <Check_Nonzero>
  403bac:	1c 0b 10 00 
  403bb0:	42 00 00 00 	addu $4,$0,$17
  403bb4:	00 04 11 00 
  403bb8:	43 00 00 00 	addiu $5,$0,3
  403bbc:	03 00 05 00 
  403bc0:	02 00 00 00 	jal 410990 <printf>
  403bc4:	64 42 10 00 
  403bc8:	42 00 00 00 	addu $4,$0,$17
  403bcc:	00 04 11 00 
  403bd0:	43 00 00 00 	addiu $5,$0,23
  403bd4:	17 00 05 00 
  403bd8:	02 00 00 00 	jal 410990 <printf>
  403bdc:	64 42 10 00 
  403be0:	02 00 00 00 	jal 40fda8 <TM_InterruptService>
  403be4:	6a 3f 10 00 
  403be8:	42 00 00 00 	addu $4,$0,$17
  403bec:	00 04 11 00 
  403bf0:	43 00 00 00 	addiu $5,$0,3
  403bf4:	03 00 05 00 
  403bf8:	02 00 00 00 	jal 410990 <printf>
  403bfc:	64 42 10 00 
  403c00:	42 00 00 00 	addu $4,$0,$17
  403c04:	00 04 11 00 
  403c08:	42 00 00 00 	addu $5,$0,$0
  403c0c:	00 05 00 00 
  403c10:	02 00 00 00 	jal 410990 <printf>
  403c14:	64 42 10 00 
  403c18:	43 00 00 00 	addiu $4,$0,10
  403c1c:	0a 00 04 00 
  403c20:	02 00 00 00 	jal 403528 <Handle_TC>
  403c24:	4a 0d 10 00 
  403c28:	02 00 00 00 	jal 402cd0 <Check_No_Errors>
  403c2c:	34 0b 10 00 
  403c30:	28 00 00 00 	lw $4,-32012($28)
  403c34:	f4 82 04 1c 
  403c38:	5e 00 00 00 	sltiu $4,$4,1
  403c3c:	01 00 04 04 
  403c40:	02 00 00 00 	jal 402c70 <Check_Nonzero>
  403c44:	1c 0b 10 00 
  403c48:	28 00 00 00 	lw $31,24($29)
  403c4c:	18 00 1f 1d 
  403c50:	28 00 00 00 	lw $17,20($29)
  403c54:	14 00 11 1d 
  403c58:	28 00 00 00 	lw $16,16($29)
  403c5c:	10 00 10 1d 
  403c60:	43 00 00 00 	addiu $29,$29,32
  403c64:	20 00 1d 1d 
  403c68:	03 00 00 00 	jr $31
  403c6c:	00 00 00 1f 

00403c70 <Clear_Errors>:
  403c70:	43 00 00 00 	addiu $29,$29,-24
  403c74:	e8 ff 1d 1d 
  403c78:	43 00 00 00 	addiu $4,$0,3
  403c7c:	03 00 04 00 
  403c80:	43 00 00 00 	addiu $5,$0,3
  403c84:	03 00 05 00 
  403c88:	43 00 00 00 	addiu $6,$0,41
  403c8c:	29 00 06 00 
  403c90:	34 00 00 00 	sw $31,16($29)
  403c94:	10 00 1f 1d 
  403c98:	02 00 00 00 	jal 403648 <Exec_TC>
  403c9c:	92 0d 10 00 
  403ca0:	02 00 00 00 	jal 402cd0 <Check_No_Errors>
  403ca4:	34 0b 10 00 
  403ca8:	28 00 00 00 	lw $4,-32012($28)
  403cac:	f4 82 04 1c 
  403cb0:	5e 00 00 00 	sltiu $4,$4,1
  403cb4:	01 00 04 04 
  403cb8:	02 00 00 00 	jal 402c70 <Check_Nonzero>
  403cbc:	1c 0b 10 00 
  403cc0:	28 00 00 00 	lw $31,16($29)
  403cc4:	10 00 1f 1d 
  403cc8:	43 00 00 00 	addiu $29,$29,24
  403ccc:	18 00 1d 1d 
  403cd0:	03 00 00 00 	jr $31
  403cd4:	00 00 00 1f 

00403cd8 <TC_Task_Tests>:
  403cd8:	43 00 00 00 	addiu $29,$29,-48
  403cdc:	d0 ff 1d 1d 
  403ce0:	a2 00 00 00 	lui $4,4096
  403ce4:	00 10 04 00 
  403ce8:	43 00 00 00 	addiu $4,$4,2180
  403cec:	84 08 04 04 
  403cf0:	34 00 00 00 	sw $31,40($29)
  403cf4:	28 00 1f 1d 
  403cf8:	34 00 00 00 	sw $19,36($29)
  403cfc:	24 00 13 1d 
  403d00:	34 00 00 00 	sw $18,32($29)
  403d04:	20 00 12 1d 
  403d08:	34 00 00 00 	sw $17,28($29)
  403d0c:	1c 00 11 1d 
  403d10:	34 00 00 00 	sw $16,24($29)
  403d14:	18 00 10 1d 
  403d18:	02 00 00 00 	jal 410990 <printf>
  403d1c:	64 42 10 00 
  403d20:	a2 00 00 00 	lui $17,4096
  403d24:	00 10 11 00 
  403d28:	43 00 00 00 	addiu $17,$17,1772
  403d2c:	ec 06 11 11 
  403d30:	42 00 00 00 	addu $4,$0,$17
  403d34:	00 04 11 00 
  403d38:	a2 00 00 00 	lui $5,4096
  403d3c:	00 10 05 00 
  403d40:	43 00 00 00 	addiu $5,$5,1980
  403d44:	bc 07 05 05 
  403d48:	02 00 00 00 	jal 410990 <printf>
  403d4c:	64 42 10 00 
  403d50:	43 00 00 00 	addiu $4,$0,3
  403d54:	03 00 04 00 
  403d58:	43 00 00 00 	addiu $5,$0,3
  403d5c:	03 00 05 00 
  403d60:	a2 00 00 00 	lui $19,4098
  403d64:	02 10 13 00 
  403d68:	43 00 00 00 	addiu $19,$19,-14576
  403d6c:	10 c7 13 13 
  403d70:	43 00 00 00 	addiu $2,$0,2
  403d74:	02 00 02 00 
  403d78:	30 00 00 00 	sb $2,0($19)
  403d7c:	00 00 02 13 
  403d80:	02 00 00 00 	jal 402dc0 <Send_TC>
  403d84:	70 0b 10 00 
  403d88:	22 00 00 00 	lbu $4,0($19)
  403d8c:	00 00 04 13 
  403d90:	4f 00 00 00 	andi $4,$4,2
  403d94:	02 00 04 04 
  403d98:	02 00 00 00 	jal 402c70 <Check_Nonzero>
  403d9c:	1c 0b 10 00 
  403da0:	43 00 00 00 	addiu $4,$0,41
  403da4:	29 00 04 00 
  403da8:	02 00 00 00 	jal 403528 <Handle_TC>
  403dac:	4a 0d 10 00 
  403db0:	02 00 00 00 	jal 402cd0 <Check_No_Errors>
  403db4:	34 0b 10 00 
  403db8:	42 00 00 00 	addu $4,$0,$17
  403dbc:	00 04 11 00 
  403dc0:	a2 00 00 00 	lui $5,4096
  403dc4:	00 10 05 00 
  403dc8:	43 00 00 00 	addiu $5,$5,2196
  403dcc:	94 08 05 05 
  403dd0:	02 00 00 00 	jal 410990 <printf>
  403dd4:	64 42 10 00 
  403dd8:	43 00 00 00 	addiu $4,$0,33
  403ddc:	21 00 04 00 
  403de0:	43 00 00 00 	addiu $5,$0,23
  403de4:	17 00 05 00 
  403de8:	43 00 00 00 	addiu $6,$0,41
  403dec:	29 00 06 00 
  403df0:	02 00 00 00 	jal 403648 <Exec_TC>
  403df4:	92 0d 10 00 
  403df8:	43 00 00 00 	addiu $4,$0,49
  403dfc:	31 00 04 00 
  403e00:	43 00 00 00 	addiu $5,$0,26
  403e04:	1a 00 05 00 
  403e08:	43 00 00 00 	addiu $6,$0,41
  403e0c:	29 00 06 00 
  403e10:	02 00 00 00 	jal 403648 <Exec_TC>
  403e14:	92 0d 10 00 
  403e18:	43 00 00 00 	addiu $4,$0,65
  403e1c:	41 00 04 00 
  403e20:	43 00 00 00 	addiu $5,$0,32
  403e24:	20 00 05 00 
  403e28:	43 00 00 00 	addiu $6,$0,41
  403e2c:	29 00 06 00 
  403e30:	02 00 00 00 	jal 403648 <Exec_TC>
  403e34:	92 0d 10 00 
  403e38:	43 00 00 00 	addiu $4,$0,81
  403e3c:	51 00 04 00 
  403e40:	43 00 00 00 	addiu $5,$0,102
  403e44:	66 00 05 00 
  403e48:	43 00 00 00 	addiu $6,$0,41
  403e4c:	29 00 06 00 
  403e50:	02 00 00 00 	jal 403648 <Exec_TC>
  403e54:	92 0d 10 00 
  403e58:	02 00 00 00 	jal 402cd0 <Check_No_Errors>
  403e5c:	34 0b 10 00 
  403e60:	43 00 00 00 	addiu $4,$0,34
  403e64:	22 00 04 00 
  403e68:	43 00 00 00 	addiu $5,$0,205
  403e6c:	cd 00 05 00 
  403e70:	43 00 00 00 	addiu $6,$0,41
  403e74:	29 00 06 00 
  403e78:	02 00 00 00 	jal 403648 <Exec_TC>
  403e7c:	92 0d 10 00 
  403e80:	43 00 00 00 	addiu $4,$0,50
  403e84:	32 00 04 00 
  403e88:	43 00 00 00 	addiu $5,$0,123
  403e8c:	7b 00 05 00 
  403e90:	43 00 00 00 	addiu $6,$0,41
  403e94:	29 00 06 00 
  403e98:	02 00 00 00 	jal 403648 <Exec_TC>
  403e9c:	92 0d 10 00 
  403ea0:	43 00 00 00 	addiu $4,$0,66
  403ea4:	42 00 04 00 
  403ea8:	43 00 00 00 	addiu $5,$0,99
  403eac:	63 00 05 00 
  403eb0:	43 00 00 00 	addiu $6,$0,41
  403eb4:	29 00 06 00 
  403eb8:	02 00 00 00 	jal 403648 <Exec_TC>
  403ebc:	92 0d 10 00 
  403ec0:	43 00 00 00 	addiu $4,$0,82
  403ec4:	52 00 04 00 
  403ec8:	43 00 00 00 	addiu $5,$0,1
  403ecc:	01 00 05 00 
  403ed0:	43 00 00 00 	addiu $6,$0,41
  403ed4:	29 00 06 00 
  403ed8:	02 00 00 00 	jal 403648 <Exec_TC>
  403edc:	92 0d 10 00 
  403ee0:	02 00 00 00 	jal 402cd0 <Check_No_Errors>
  403ee4:	34 0b 10 00 
  403ee8:	43 00 00 00 	addiu $4,$0,35
  403eec:	23 00 04 00 
  403ef0:	43 00 00 00 	addiu $5,$0,14
  403ef4:	0e 00 05 00 
  403ef8:	43 00 00 00 	addiu $6,$0,41
  403efc:	29 00 06 00 
  403f00:	02 00 00 00 	jal 403648 <Exec_TC>
  403f04:	92 0d 10 00 
  403f08:	43 00 00 00 	addiu $4,$0,51
  403f0c:	33 00 04 00 
  403f10:	43 00 00 00 	addiu $5,$0,54
  403f14:	36 00 05 00 
  403f18:	43 00 00 00 	addiu $6,$0,41
  403f1c:	29 00 06 00 
  403f20:	02 00 00 00 	jal 403648 <Exec_TC>
  403f24:	92 0d 10 00 
  403f28:	43 00 00 00 	addiu $4,$0,67
  403f2c:	43 00 04 00 
  403f30:	43 00 00 00 	addiu $5,$0,74
  403f34:	4a 00 05 00 
  403f38:	43 00 00 00 	addiu $6,$0,41
  403f3c:	29 00 06 00 
  403f40:	02 00 00 00 	jal 403648 <Exec_TC>
  403f44:	92 0d 10 00 
  403f48:	43 00 00 00 	addiu $4,$0,83
  403f4c:	53 00 04 00 
  403f50:	43 00 00 00 	addiu $5,$0,104
  403f54:	68 00 05 00 
  403f58:	43 00 00 00 	addiu $6,$0,41
  403f5c:	29 00 06 00 
  403f60:	02 00 00 00 	jal 403648 <Exec_TC>
  403f64:	92 0d 10 00 
  403f68:	02 00 00 00 	jal 402cd0 <Check_No_Errors>
  403f6c:	34 0b 10 00 
  403f70:	43 00 00 00 	addiu $4,$0,36
  403f74:	24 00 04 00 
  403f78:	43 00 00 00 	addiu $5,$0,104
  403f7c:	68 00 05 00 
  403f80:	43 00 00 00 	addiu $6,$0,41
  403f84:	29 00 06 00 
  403f88:	02 00 00 00 	jal 403648 <Exec_TC>
  403f8c:	92 0d 10 00 
  403f90:	43 00 00 00 	addiu $4,$0,52
  403f94:	34 00 04 00 
  403f98:	43 00 00 00 	addiu $5,$0,204
  403f9c:	cc 00 05 00 
  403fa0:	43 00 00 00 	addiu $6,$0,41
  403fa4:	29 00 06 00 
  403fa8:	02 00 00 00 	jal 403648 <Exec_TC>
  403fac:	92 0d 10 00 
  403fb0:	43 00 00 00 	addiu $4,$0,68
  403fb4:	44 00 04 00 
  403fb8:	43 00 00 00 	addiu $5,$0,214
  403fbc:	d6 00 05 00 
  403fc0:	43 00 00 00 	addiu $6,$0,41
  403fc4:	29 00 06 00 
  403fc8:	02 00 00 00 	jal 403648 <Exec_TC>
  403fcc:	92 0d 10 00 
  403fd0:	43 00 00 00 	addiu $4,$0,84
  403fd4:	54 00 04 00 
  403fd8:	43 00 00 00 	addiu $5,$0,234
  403fdc:	ea 00 05 00 
  403fe0:	43 00 00 00 	addiu $6,$0,41
  403fe4:	29 00 06 00 
  403fe8:	02 00 00 00 	jal 403648 <Exec_TC>
  403fec:	92 0d 10 00 
  403ff0:	02 00 00 00 	jal 402cd0 <Check_No_Errors>
  403ff4:	34 0b 10 00 
  403ff8:	43 00 00 00 	addiu $4,$0,37
  403ffc:	25 00 04 00 
  404000:	43 00 00 00 	addiu $5,$0,104
  404004:	68 00 05 00 
  404008:	43 00 00 00 	addiu $6,$0,41
  40400c:	29 00 06 00 
  404010:	02 00 00 00 	jal 403648 <Exec_TC>
  404014:	92 0d 10 00 
  404018:	43 00 00 00 	addiu $4,$0,53
  40401c:	35 00 04 00 
  404020:	43 00 00 00 	addiu $5,$0,88
  404024:	58 00 05 00 
  404028:	43 00 00 00 	addiu $6,$0,41
  40402c:	29 00 06 00 
  404030:	02 00 00 00 	jal 403648 <Exec_TC>
  404034:	92 0d 10 00 
  404038:	43 00 00 00 	addiu $4,$0,69
  40403c:	45 00 04 00 
  404040:	43 00 00 00 	addiu $5,$0,66
  404044:	42 00 05 00 
  404048:	43 00 00 00 	addiu $6,$0,41
  40404c:	29 00 06 00 
  404050:	02 00 00 00 	jal 403648 <Exec_TC>
  404054:	92 0d 10 00 
  404058:	43 00 00 00 	addiu $4,$0,85
  40405c:	55 00 04 00 
  404060:	43 00 00 00 	addiu $5,$0,33
  404064:	21 00 05 00 
  404068:	43 00 00 00 	addiu $6,$0,41
  40406c:	29 00 06 00 
  404070:	02 00 00 00 	jal 403648 <Exec_TC>
  404074:	92 0d 10 00 
  404078:	02 00 00 00 	jal 402cd0 <Check_No_Errors>
  40407c:	34 0b 10 00 
  404080:	43 00 00 00 	addiu $4,$0,40
  404084:	28 00 04 00 
  404088:	43 00 00 00 	addiu $5,$0,61
  40408c:	3d 00 05 00 
  404090:	43 00 00 00 	addiu $6,$0,41
  404094:	29 00 06 00 
  404098:	02 00 00 00 	jal 403648 <Exec_TC>
  40409c:	92 0d 10 00 
  4040a0:	43 00 00 00 	addiu $4,$0,56
  4040a4:	38 00 04 00 
  4040a8:	43 00 00 00 	addiu $5,$0,21
  4040ac:	15 00 05 00 
  4040b0:	43 00 00 00 	addiu $6,$0,41
  4040b4:	29 00 06 00 
  4040b8:	02 00 00 00 	jal 403648 <Exec_TC>
  4040bc:	92 0d 10 00 
  4040c0:	43 00 00 00 	addiu $4,$0,72
  4040c4:	48 00 04 00 
  4040c8:	43 00 00 00 	addiu $5,$0,81
  4040cc:	51 00 05 00 
  4040d0:	43 00 00 00 	addiu $6,$0,41
  4040d4:	29 00 06 00 
  4040d8:	02 00 00 00 	jal 403648 <Exec_TC>
  4040dc:	92 0d 10 00 
  4040e0:	43 00 00 00 	addiu $4,$0,88
  4040e4:	58 00 04 00 
  4040e8:	43 00 00 00 	addiu $5,$0,11
  4040ec:	0b 00 05 00 
  4040f0:	43 00 00 00 	addiu $6,$0,41
  4040f4:	29 00 06 00 
  4040f8:	02 00 00 00 	jal 403648 <Exec_TC>
  4040fc:	92 0d 10 00 
  404100:	02 00 00 00 	jal 402cd0 <Check_No_Errors>
  404104:	34 0b 10 00 
  404108:	43 00 00 00 	addiu $4,$0,38
  40410c:	26 00 04 00 
  404110:	43 00 00 00 	addiu $5,$0,14
  404114:	0e 00 05 00 
  404118:	43 00 00 00 	addiu $6,$0,41
  40411c:	29 00 06 00 
  404120:	02 00 00 00 	jal 403648 <Exec_TC>
  404124:	92 0d 10 00 
  404128:	43 00 00 00 	addiu $4,$0,54
  40412c:	36 00 04 00 
  404130:	43 00 00 00 	addiu $5,$0,24
  404134:	18 00 05 00 
  404138:	43 00 00 00 	addiu $6,$0,41
  40413c:	29 00 06 00 
  404140:	02 00 00 00 	jal 403648 <Exec_TC>
  404144:	92 0d 10 00 
  404148:	43 00 00 00 	addiu $4,$0,70
  40414c:	46 00 04 00 
  404150:	43 00 00 00 	addiu $5,$0,33
  404154:	21 00 05 00 
  404158:	43 00 00 00 	addiu $6,$0,41
  40415c:	29 00 06 00 
  404160:	02 00 00 00 	jal 403648 <Exec_TC>
  404164:	92 0d 10 00 
  404168:	43 00 00 00 	addiu $4,$0,86
  40416c:	56 00 04 00 
  404170:	43 00 00 00 	addiu $5,$0,77
  404174:	4d 00 05 00 
  404178:	43 00 00 00 	addiu $6,$0,41
  40417c:	29 00 06 00 
  404180:	02 00 00 00 	jal 403648 <Exec_TC>
  404184:	92 0d 10 00 
  404188:	02 00 00 00 	jal 402cd0 <Check_No_Errors>
  40418c:	34 0b 10 00 
  404190:	43 00 00 00 	addiu $4,$0,39
  404194:	27 00 04 00 
  404198:	43 00 00 00 	addiu $5,$0,14
  40419c:	0e 00 05 00 
  4041a0:	43 00 00 00 	addiu $6,$0,41
  4041a4:	29 00 06 00 
  4041a8:	02 00 00 00 	jal 403648 <Exec_TC>
  4041ac:	92 0d 10 00 
  4041b0:	43 00 00 00 	addiu $4,$0,55
  4041b4:	37 00 04 00 
  4041b8:	43 00 00 00 	addiu $5,$0,14
  4041bc:	0e 00 05 00 
  4041c0:	43 00 00 00 	addiu $6,$0,41
  4041c4:	29 00 06 00 
  4041c8:	02 00 00 00 	jal 403648 <Exec_TC>
  4041cc:	92 0d 10 00 
  4041d0:	43 00 00 00 	addiu $4,$0,71
  4041d4:	47 00 04 00 
  4041d8:	43 00 00 00 	addiu $5,$0,14
  4041dc:	0e 00 05 00 
  4041e0:	43 00 00 00 	addiu $6,$0,41
  4041e4:	29 00 06 00 
  4041e8:	02 00 00 00 	jal 403648 <Exec_TC>
  4041ec:	92 0d 10 00 
  4041f0:	43 00 00 00 	addiu $4,$0,87
  4041f4:	57 00 04 00 
  4041f8:	43 00 00 00 	addiu $5,$0,14
  4041fc:	0e 00 05 00 
  404200:	43 00 00 00 	addiu $6,$0,41
  404204:	29 00 06 00 
  404208:	02 00 00 00 	jal 403648 <Exec_TC>
  40420c:	92 0d 10 00 
  404210:	02 00 00 00 	jal 402cd0 <Check_No_Errors>
  404214:	34 0b 10 00 
  404218:	43 00 00 00 	addiu $4,$0,41
  40421c:	29 00 04 00 
  404220:	43 00 00 00 	addiu $5,$0,191
  404224:	bf 00 05 00 
  404228:	43 00 00 00 	addiu $6,$0,41
  40422c:	29 00 06 00 
  404230:	02 00 00 00 	jal 403648 <Exec_TC>
  404234:	92 0d 10 00 
  404238:	43 00 00 00 	addiu $4,$0,57
  40423c:	39 00 04 00 
  404240:	43 00 00 00 	addiu $5,$0,171
  404244:	ab 00 05 00 
  404248:	43 00 00 00 	addiu $6,$0,41
  40424c:	29 00 06 00 
  404250:	02 00 00 00 	jal 403648 <Exec_TC>
  404254:	92 0d 10 00 
  404258:	43 00 00 00 	addiu $4,$0,73
  40425c:	49 00 04 00 
  404260:	43 00 00 00 	addiu $5,$0,161
  404264:	a1 00 05 00 
  404268:	43 00 00 00 	addiu $6,$0,41
  40426c:	29 00 06 00 
  404270:	02 00 00 00 	jal 403648 <Exec_TC>
  404274:	92 0d 10 00 
  404278:	43 00 00 00 	addiu $4,$0,89
  40427c:	59 00 04 00 
  404280:	43 00 00 00 	addiu $5,$0,151
  404284:	97 00 05 00 
  404288:	43 00 00 00 	addiu $6,$0,41
  40428c:	29 00 06 00 
  404290:	02 00 00 00 	jal 403648 <Exec_TC>
  404294:	92 0d 10 00 
  404298:	02 00 00 00 	jal 402cd0 <Check_No_Errors>
  40429c:	34 0b 10 00 
  4042a0:	43 00 00 00 	addiu $4,$0,42
  4042a4:	2a 00 04 00 
  4042a8:	43 00 00 00 	addiu $5,$0,11
  4042ac:	0b 00 05 00 
  4042b0:	43 00 00 00 	addiu $6,$0,41
  4042b4:	29 00 06 00 
  4042b8:	02 00 00 00 	jal 403648 <Exec_TC>
  4042bc:	92 0d 10 00 
  4042c0:	43 00 00 00 	addiu $4,$0,58
  4042c4:	3a 00 04 00 
  4042c8:	43 00 00 00 	addiu $5,$0,22
  4042cc:	16 00 05 00 
  4042d0:	43 00 00 00 	addiu $6,$0,41
  4042d4:	29 00 06 00 
  4042d8:	02 00 00 00 	jal 403648 <Exec_TC>
  4042dc:	92 0d 10 00 
  4042e0:	43 00 00 00 	addiu $4,$0,74
  4042e4:	4a 00 04 00 
  4042e8:	43 00 00 00 	addiu $5,$0,33
  4042ec:	21 00 05 00 
  4042f0:	43 00 00 00 	addiu $6,$0,41
  4042f4:	29 00 06 00 
  4042f8:	02 00 00 00 	jal 403648 <Exec_TC>
  4042fc:	92 0d 10 00 
  404300:	43 00 00 00 	addiu $4,$0,90
  404304:	5a 00 04 00 
  404308:	43 00 00 00 	addiu $5,$0,44
  40430c:	2c 00 05 00 
  404310:	43 00 00 00 	addiu $6,$0,41
  404314:	29 00 06 00 
  404318:	02 00 00 00 	jal 403648 <Exec_TC>
  40431c:	92 0d 10 00 
  404320:	02 00 00 00 	jal 402cd0 <Check_No_Errors>
  404324:	34 0b 10 00 
  404328:	43 00 00 00 	addiu $4,$0,43
  40432c:	2b 00 04 00 
  404330:	43 00 00 00 	addiu $5,$0,111
  404334:	6f 00 05 00 
  404338:	43 00 00 00 	addiu $6,$0,41
  40433c:	29 00 06 00 
  404340:	02 00 00 00 	jal 403648 <Exec_TC>
  404344:	92 0d 10 00 
  404348:	43 00 00 00 	addiu $4,$0,59
  40434c:	3b 00 04 00 
  404350:	43 00 00 00 	addiu $5,$0,122
  404354:	7a 00 05 00 
  404358:	43 00 00 00 	addiu $6,$0,41
  40435c:	29 00 06 00 
  404360:	02 00 00 00 	jal 403648 <Exec_TC>
  404364:	92 0d 10 00 
  404368:	43 00 00 00 	addiu $4,$0,75
  40436c:	4b 00 04 00 
  404370:	43 00 00 00 	addiu $5,$0,133
  404374:	85 00 05 00 
  404378:	43 00 00 00 	addiu $6,$0,41
  40437c:	29 00 06 00 
  404380:	02 00 00 00 	jal 403648 <Exec_TC>
  404384:	92 0d 10 00 
  404388:	43 00 00 00 	addiu $4,$0,91
  40438c:	5b 00 04 00 
  404390:	43 00 00 00 	addiu $5,$0,144
  404394:	90 00 05 00 
  404398:	43 00 00 00 	addiu $6,$0,41
  40439c:	29 00 06 00 
  4043a0:	02 00 00 00 	jal 403648 <Exec_TC>
  4043a4:	92 0d 10 00 
  4043a8:	02 00 00 00 	jal 402cd0 <Check_No_Errors>
  4043ac:	34 0b 10 00 
  4043b0:	43 00 00 00 	addiu $4,$0,44
  4043b4:	2c 00 04 00 
  4043b8:	43 00 00 00 	addiu $5,$0,11
  4043bc:	0b 00 05 00 
  4043c0:	43 00 00 00 	addiu $6,$0,41
  4043c4:	29 00 06 00 
  4043c8:	02 00 00 00 	jal 403648 <Exec_TC>
  4043cc:	92 0d 10 00 
  4043d0:	43 00 00 00 	addiu $4,$0,60
  4043d4:	3c 00 04 00 
  4043d8:	43 00 00 00 	addiu $5,$0,10
  4043dc:	0a 00 05 00 
  4043e0:	43 00 00 00 	addiu $6,$0,41
  4043e4:	29 00 06 00 
  4043e8:	02 00 00 00 	jal 403648 <Exec_TC>
  4043ec:	92 0d 10 00 
  4043f0:	43 00 00 00 	addiu $4,$0,76
  4043f4:	4c 00 04 00 
  4043f8:	43 00 00 00 	addiu $5,$0,9
  4043fc:	09 00 05 00 
  404400:	43 00 00 00 	addiu $6,$0,41
  404404:	29 00 06 00 
  404408:	02 00 00 00 	jal 403648 <Exec_TC>
  40440c:	92 0d 10 00 
  404410:	43 00 00 00 	addiu $4,$0,92
  404414:	5c 00 04 00 
  404418:	43 00 00 00 	addiu $5,$0,8
  40441c:	08 00 05 00 
  404420:	43 00 00 00 	addiu $6,$0,41
  404424:	29 00 06 00 
  404428:	02 00 00 00 	jal 403648 <Exec_TC>
  40442c:	92 0d 10 00 
  404430:	02 00 00 00 	jal 402cd0 <Check_No_Errors>
  404434:	34 0b 10 00 
  404438:	43 00 00 00 	addiu $4,$0,45
  40443c:	2d 00 04 00 
  404440:	43 00 00 00 	addiu $5,$0,211
  404444:	d3 00 05 00 
  404448:	43 00 00 00 	addiu $6,$0,41
  40444c:	29 00 06 00 
  404450:	02 00 00 00 	jal 403648 <Exec_TC>
  404454:	92 0d 10 00 
  404458:	43 00 00 00 	addiu $4,$0,61
  40445c:	3d 00 04 00 
  404460:	43 00 00 00 	addiu $5,$0,210
  404464:	d2 00 05 00 
  404468:	43 00 00 00 	addiu $6,$0,41
  40446c:	29 00 06 00 
  404470:	02 00 00 00 	jal 403648 <Exec_TC>
  404474:	92 0d 10 00 
  404478:	43 00 00 00 	addiu $4,$0,77
  40447c:	4d 00 04 00 
  404480:	43 00 00 00 	addiu $5,$0,209
  404484:	d1 00 05 00 
  404488:	43 00 00 00 	addiu $6,$0,41
  40448c:	29 00 06 00 
  404490:	02 00 00 00 	jal 403648 <Exec_TC>
  404494:	92 0d 10 00 
  404498:	43 00 00 00 	addiu $4,$0,93
  40449c:	5d 00 04 00 
  4044a0:	43 00 00 00 	addiu $5,$0,208
  4044a4:	d0 00 05 00 
  4044a8:	43 00 00 00 	addiu $6,$0,41
  4044ac:	29 00 06 00 
  4044b0:	02 00 00 00 	jal 403648 <Exec_TC>
  4044b4:	92 0d 10 00 
  4044b8:	02 00 00 00 	jal 402cd0 <Check_No_Errors>
  4044bc:	34 0b 10 00 
  4044c0:	42 00 00 00 	addu $4,$0,$17
  4044c4:	00 04 11 00 
  4044c8:	a2 00 00 00 	lui $5,4096
  4044cc:	00 10 05 00 
  4044d0:	43 00 00 00 	addiu $5,$5,2220
  4044d4:	ac 08 05 05 
  4044d8:	02 00 00 00 	jal 410990 <printf>
  4044dc:	64 42 10 00 
  4044e0:	43 00 00 00 	addiu $4,$0,112
  4044e4:	70 00 04 00 
  4044e8:	43 00 00 00 	addiu $5,$0,1
  4044ec:	01 00 05 00 
  4044f0:	43 00 00 00 	addiu $6,$0,41
  4044f4:	29 00 06 00 
  4044f8:	02 00 00 00 	jal 403648 <Exec_TC>
  4044fc:	92 0d 10 00 
  404500:	43 00 00 00 	addiu $4,$0,113
  404504:	71 00 04 00 
  404508:	43 00 00 00 	addiu $5,$0,2
  40450c:	02 00 05 00 
  404510:	43 00 00 00 	addiu $6,$0,41
  404514:	29 00 06 00 
  404518:	02 00 00 00 	jal 403648 <Exec_TC>
  40451c:	92 0d 10 00 
  404520:	43 00 00 00 	addiu $4,$0,114
  404524:	72 00 04 00 
  404528:	43 00 00 00 	addiu $5,$0,3
  40452c:	03 00 05 00 
  404530:	43 00 00 00 	addiu $6,$0,41
  404534:	29 00 06 00 
  404538:	02 00 00 00 	jal 403648 <Exec_TC>
  40453c:	92 0d 10 00 
  404540:	43 00 00 00 	addiu $4,$0,115
  404544:	73 00 04 00 
  404548:	43 00 00 00 	addiu $5,$0,4
  40454c:	04 00 05 00 
  404550:	43 00 00 00 	addiu $6,$0,41
  404554:	29 00 06 00 
  404558:	02 00 00 00 	jal 403648 <Exec_TC>
  40455c:	92 0d 10 00 
  404560:	43 00 00 00 	addiu $4,$0,116
  404564:	74 00 04 00 
  404568:	43 00 00 00 	addiu $5,$0,5
  40456c:	05 00 05 00 
  404570:	43 00 00 00 	addiu $6,$0,41
  404574:	29 00 06 00 
  404578:	02 00 00 00 	jal 403648 <Exec_TC>
  40457c:	92 0d 10 00 
  404580:	02 00 00 00 	jal 402cd0 <Check_No_Errors>
  404584:	34 0b 10 00 
  404588:	42 00 00 00 	addu $4,$0,$17
  40458c:	00 04 11 00 
  404590:	a2 00 00 00 	lui $5,4096
  404594:	00 10 05 00 
  404598:	43 00 00 00 	addiu $5,$5,2260
  40459c:	d4 08 05 05 
  4045a0:	02 00 00 00 	jal 410990 <printf>
  4045a4:	64 42 10 00 
  4045a8:	43 00 00 00 	addiu $4,$0,4352
  4045ac:	00 11 04 00 
  4045b0:	43 00 00 00 	addiu $5,$29,16
  4045b4:	10 00 05 1d 
  4045b8:	02 00 00 00 	jal 4036b0 <Send_Patch_Code>
  4045bc:	ac 0d 10 00 
  4045c0:	a2 00 00 00 	lui $4,4098
  4045c4:	02 10 04 00 
  4045c8:	22 00 00 00 	lbu $4,-14575($4)
  4045cc:	11 c7 04 04 
  4045d0:	22 00 00 00 	lbu $2,16($29)
  4045d4:	10 00 02 1d 
  4045d8:	4f 00 00 00 	andi $4,$4,16
  4045dc:	10 00 04 04 
  4045e0:	53 00 00 00 	xori $2,$2,90
  4045e4:	5a 00 02 02 
  4045e8:	30 00 00 00 	sb $2,16($29)
  4045ec:	10 00 02 1d 
  4045f0:	02 00 00 00 	jal 402c10 <Check_Zero>
  4045f4:	04 0b 10 00 
  4045f8:	22 00 00 00 	lbu $4,16($29)
  4045fc:	10 00 04 1d 
  404600:	51 00 00 00 	ori $4,$4,23040
  404604:	00 5a 04 04 
  404608:	02 00 00 00 	jal 402eb0 <Send_TC_Word>
  40460c:	ac 0b 10 00 
  404610:	43 00 00 00 	addiu $4,$0,41
  404614:	29 00 04 00 
  404618:	02 00 00 00 	jal 403528 <Handle_TC>
  40461c:	4a 0d 10 00 
  404620:	a2 00 00 00 	lui $4,4098
  404624:	02 10 04 00 
  404628:	22 00 00 00 	lbu $4,-14575($4)
  40462c:	11 c7 04 04 
  404630:	4f 00 00 00 	andi $4,$4,16
  404634:	10 00 04 04 
  404638:	02 00 00 00 	jal 402c10 <Check_Zero>
  40463c:	04 0b 10 00 
  404640:	02 00 00 00 	jal 402cd0 <Check_No_Errors>
  404644:	34 0b 10 00 
  404648:	28 00 00 00 	lw $4,-32012($28)
  40464c:	f4 82 04 1c 
  404650:	5e 00 00 00 	sltiu $4,$4,1
  404654:	01 00 04 04 
  404658:	02 00 00 00 	jal 402c70 <Check_Nonzero>
  40465c:	1c 0b 10 00 
  404660:	42 00 00 00 	addu $4,$0,$17
  404664:	00 04 11 00 
  404668:	a2 00 00 00 	lui $5,4096
  40466c:	00 10 05 00 
  404670:	43 00 00 00 	addiu $5,$5,2296
  404674:	f8 08 05 05 
  404678:	02 00 00 00 	jal 410990 <printf>
  40467c:	64 42 10 00 
  404680:	43 00 00 00 	addiu $4,$0,4864
  404684:	00 13 04 00 
  404688:	43 00 00 00 	addiu $5,$29,16
  40468c:	10 00 05 1d 
  404690:	02 00 00 00 	jal 4036b0 <Send_Patch_Code>
  404694:	ac 0d 10 00 
  404698:	a2 00 00 00 	lui $4,4098
  40469c:	02 10 04 00 
  4046a0:	22 00 00 00 	lbu $4,-14575($4)
  4046a4:	11 c7 04 04 
  4046a8:	22 00 00 00 	lbu $2,16($29)
  4046ac:	10 00 02 1d 
  4046b0:	4f 00 00 00 	andi $4,$4,16
  4046b4:	10 00 04 04 
  4046b8:	30 00 00 00 	sb $2,16($29)
  4046bc:	10 00 02 1d 
  4046c0:	02 00 00 00 	jal 402c10 <Check_Zero>
  4046c4:	04 0b 10 00 
  4046c8:	22 00 00 00 	lbu $4,16($29)
  4046cc:	10 00 04 1d 
  4046d0:	02 00 00 00 	jal 402eb0 <Send_TC_Word>
  4046d4:	ac 0b 10 00 
  4046d8:	43 00 00 00 	addiu $4,$0,41
  4046dc:	29 00 04 00 
  4046e0:	02 00 00 00 	jal 403528 <Handle_TC>
  4046e4:	4a 0d 10 00 
  4046e8:	a2 00 00 00 	lui $4,4098
  4046ec:	02 10 04 00 
  4046f0:	22 00 00 00 	lbu $4,-14575($4)
  4046f4:	11 c7 04 04 
  4046f8:	4f 00 00 00 	andi $4,$4,16
  4046fc:	10 00 04 04 
  404700:	02 00 00 00 	jal 402c10 <Check_Zero>
  404704:	04 0b 10 00 
  404708:	02 00 00 00 	jal 402cd0 <Check_No_Errors>
  40470c:	34 0b 10 00 
  404710:	28 00 00 00 	lw $4,-32012($28)
  404714:	f4 82 04 1c 
  404718:	5e 00 00 00 	sltiu $4,$4,1
  40471c:	01 00 04 04 
  404720:	02 00 00 00 	jal 402c70 <Check_Nonzero>
  404724:	1c 0b 10 00 
  404728:	42 00 00 00 	addu $4,$0,$17
  40472c:	00 04 11 00 
  404730:	a2 00 00 00 	lui $5,4096
  404734:	00 10 05 00 
  404738:	43 00 00 00 	addiu $5,$5,2332
  40473c:	1c 09 05 05 
  404740:	02 00 00 00 	jal 410990 <printf>
  404744:	64 42 10 00 
  404748:	43 00 00 00 	addiu $4,$0,5120
  40474c:	00 14 04 00 
  404750:	43 00 00 00 	addiu $5,$29,16
  404754:	10 00 05 1d 
  404758:	02 00 00 00 	jal 4036b0 <Send_Patch_Code>
  40475c:	ac 0d 10 00 
  404760:	a2 00 00 00 	lui $4,4098
  404764:	02 10 04 00 
  404768:	22 00 00 00 	lbu $4,-14575($4)
  40476c:	11 c7 04 04 
  404770:	22 00 00 00 	lbu $2,16($29)
  404774:	10 00 02 1d 
  404778:	4f 00 00 00 	andi $4,$4,16
  40477c:	10 00 04 04 
  404780:	53 00 00 00 	xori $2,$2,9
  404784:	09 00 02 02 
  404788:	30 00 00 00 	sb $2,16($29)
  40478c:	10 00 02 1d 
  404790:	02 00 00 00 	jal 402c10 <Check_Zero>
  404794:	04 0b 10 00 
  404798:	22 00 00 00 	lbu $4,16($29)
  40479c:	10 00 04 1d 
  4047a0:	51 00 00 00 	ori $4,$4,2304
  4047a4:	00 09 04 04 
  4047a8:	02 00 00 00 	jal 402eb0 <Send_TC_Word>
  4047ac:	ac 0b 10 00 
  4047b0:	43 00 00 00 	addiu $4,$0,41
  4047b4:	29 00 04 00 
  4047b8:	02 00 00 00 	jal 403528 <Handle_TC>
  4047bc:	4a 0d 10 00 
  4047c0:	a2 00 00 00 	lui $4,4098
  4047c4:	02 10 04 00 
  4047c8:	22 00 00 00 	lbu $4,-14575($4)
  4047cc:	11 c7 04 04 
  4047d0:	4f 00 00 00 	andi $4,$4,16
  4047d4:	10 00 04 04 
  4047d8:	02 00 00 00 	jal 402c10 <Check_Zero>
  4047dc:	04 0b 10 00 
  4047e0:	02 00 00 00 	jal 402cd0 <Check_No_Errors>
  4047e4:	34 0b 10 00 
  4047e8:	28 00 00 00 	lw $4,-32012($28)
  4047ec:	f4 82 04 1c 
  4047f0:	5e 00 00 00 	sltiu $4,$4,1
  4047f4:	01 00 04 04 
  4047f8:	02 00 00 00 	jal 402c70 <Check_Nonzero>
  4047fc:	1c 0b 10 00 
  404800:	42 00 00 00 	addu $4,$0,$17
  404804:	00 04 11 00 
  404808:	a2 00 00 00 	lui $5,4096
  40480c:	00 10 05 00 
  404810:	43 00 00 00 	addiu $5,$5,2368
  404814:	40 09 05 05 
  404818:	02 00 00 00 	jal 410990 <printf>
  40481c:	64 42 10 00 
  404820:	43 00 00 00 	addiu $4,$0,8448
  404824:	00 21 04 00 
  404828:	43 00 00 00 	addiu $5,$29,16
  40482c:	10 00 05 1d 
  404830:	02 00 00 00 	jal 4036b0 <Send_Patch_Code>
  404834:	ac 0d 10 00 
  404838:	a2 00 00 00 	lui $4,4098
  40483c:	02 10 04 00 
  404840:	22 00 00 00 	lbu $4,-14575($4)
  404844:	11 c7 04 04 
  404848:	22 00 00 00 	lbu $2,16($29)
  40484c:	10 00 02 1d 
  404850:	4f 00 00 00 	andi $4,$4,16
  404854:	10 00 04 04 
  404858:	53 00 00 00 	xori $2,$2,55
  40485c:	37 00 02 02 
  404860:	30 00 00 00 	sb $2,16($29)
  404864:	10 00 02 1d 
  404868:	02 00 00 00 	jal 402c10 <Check_Zero>
  40486c:	04 0b 10 00 
  404870:	22 00 00 00 	lbu $4,16($29)
  404874:	10 00 04 1d 
  404878:	51 00 00 00 	ori $4,$4,14080
  40487c:	00 37 04 04 
  404880:	02 00 00 00 	jal 402eb0 <Send_TC_Word>
  404884:	ac 0b 10 00 
  404888:	43 00 00 00 	addiu $4,$0,41
  40488c:	29 00 04 00 
  404890:	02 00 00 00 	jal 403528 <Handle_TC>
  404894:	4a 0d 10 00 
  404898:	a2 00 00 00 	lui $4,4098
  40489c:	02 10 04 00 
  4048a0:	22 00 00 00 	lbu $4,-14575($4)
  4048a4:	11 c7 04 04 
  4048a8:	4f 00 00 00 	andi $4,$4,16
  4048ac:	10 00 04 04 
  4048b0:	02 00 00 00 	jal 402c10 <Check_Zero>
  4048b4:	04 0b 10 00 
  4048b8:	02 00 00 00 	jal 402cd0 <Check_No_Errors>
  4048bc:	34 0b 10 00 
  4048c0:	28 00 00 00 	lw $4,-32012($28)
  4048c4:	f4 82 04 1c 
  4048c8:	5e 00 00 00 	sltiu $4,$4,1
  4048cc:	01 00 04 04 
  4048d0:	02 00 00 00 	jal 402c70 <Check_Nonzero>
  4048d4:	1c 0b 10 00 
  4048d8:	42 00 00 00 	addu $4,$0,$17
  4048dc:	00 04 11 00 
  4048e0:	a2 00 00 00 	lui $5,4096
  4048e4:	00 10 05 00 
  4048e8:	43 00 00 00 	addiu $5,$5,2404
  4048ec:	64 09 05 05 
  4048f0:	02 00 00 00 	jal 410990 <printf>
  4048f4:	64 42 10 00 
  4048f8:	43 00 00 00 	addiu $4,$0,9216
  4048fc:	00 24 04 00 
  404900:	43 00 00 00 	addiu $5,$29,16
  404904:	10 00 05 1d 
  404908:	02 00 00 00 	jal 4036b0 <Send_Patch_Code>
  40490c:	ac 0d 10 00 
  404910:	a2 00 00 00 	lui $4,4098
  404914:	02 10 04 00 
  404918:	22 00 00 00 	lbu $4,-14575($4)
  40491c:	11 c7 04 04 
  404920:	22 00 00 00 	lbu $2,16($29)
  404924:	10 00 02 1d 
  404928:	4f 00 00 00 	andi $4,$4,16
  40492c:	10 00 04 04 
  404930:	53 00 00 00 	xori $2,$2,98
  404934:	62 00 02 02 
  404938:	30 00 00 00 	sb $2,16($29)
  40493c:	10 00 02 1d 
  404940:	02 00 00 00 	jal 402c10 <Check_Zero>
  404944:	04 0b 10 00 
  404948:	22 00 00 00 	lbu $4,16($29)
  40494c:	10 00 04 1d 
  404950:	51 00 00 00 	ori $4,$4,25088
  404954:	00 62 04 04 
  404958:	02 00 00 00 	jal 402eb0 <Send_TC_Word>
  40495c:	ac 0b 10 00 
  404960:	43 00 00 00 	addiu $4,$0,41
  404964:	29 00 04 00 
  404968:	02 00 00 00 	jal 403528 <Handle_TC>
  40496c:	4a 0d 10 00 
  404970:	22 00 00 00 	lbu $4,0($19)
  404974:	00 00 04 13 
  404978:	53 00 00 00 	xori $4,$4,1
  40497c:	01 00 04 04 
  404980:	5e 00 00 00 	sltiu $4,$4,1
  404984:	01 00 04 04 
  404988:	02 00 00 00 	jal 402c70 <Check_Nonzero>
  40498c:	1c 0b 10 00 
  404990:	a2 00 00 00 	lui $4,4098
  404994:	02 10 04 00 
  404998:	22 00 00 00 	lbu $4,-14575($4)
  40499c:	11 c7 04 04 
  4049a0:	4f 00 00 00 	andi $4,$4,16
  4049a4:	10 00 04 04 
  4049a8:	02 00 00 00 	jal 402c10 <Check_Zero>
  4049ac:	04 0b 10 00 
  4049b0:	02 00 00 00 	jal 403c70 <Clear_Errors>
  4049b4:	1c 0f 10 00 
  4049b8:	42 00 00 00 	addu $4,$0,$17
  4049bc:	00 04 11 00 
  4049c0:	a2 00 00 00 	lui $5,4096
  4049c4:	00 10 05 00 
  4049c8:	43 00 00 00 	addiu $5,$5,2444
  4049cc:	8c 09 05 05 
  4049d0:	02 00 00 00 	jal 410990 <printf>
  4049d4:	64 42 10 00 
  4049d8:	43 00 00 00 	addiu $4,$0,4095
  4049dc:	ff 0f 04 00 
  4049e0:	43 00 00 00 	addiu $5,$29,16
  4049e4:	10 00 05 1d 
  4049e8:	02 00 00 00 	jal 4036b0 <Send_Patch_Code>
  4049ec:	ac 0d 10 00 
  4049f0:	a2 00 00 00 	lui $4,4098
  4049f4:	02 10 04 00 
  4049f8:	22 00 00 00 	lbu $4,-14575($4)
  4049fc:	11 c7 04 04 
  404a00:	22 00 00 00 	lbu $2,16($29)
  404a04:	10 00 02 1d 
  404a08:	4f 00 00 00 	andi $4,$4,16
  404a0c:	10 00 04 04 
  404a10:	30 00 00 00 	sb $2,16($29)
  404a14:	10 00 02 1d 
  404a18:	02 00 00 00 	jal 402c10 <Check_Zero>
  404a1c:	04 0b 10 00 
  404a20:	22 00 00 00 	lbu $4,16($29)
  404a24:	10 00 04 1d 
  404a28:	02 00 00 00 	jal 402eb0 <Send_TC_Word>
  404a2c:	ac 0b 10 00 
  404a30:	43 00 00 00 	addiu $4,$0,41
  404a34:	29 00 04 00 
  404a38:	02 00 00 00 	jal 403528 <Handle_TC>
  404a3c:	4a 0d 10 00 
  404a40:	22 00 00 00 	lbu $4,0($19)
  404a44:	00 00 04 13 
  404a48:	53 00 00 00 	xori $4,$4,1
  404a4c:	01 00 04 04 
  404a50:	5e 00 00 00 	sltiu $4,$4,1
  404a54:	01 00 04 04 
  404a58:	02 00 00 00 	jal 402c70 <Check_Nonzero>
  404a5c:	1c 0b 10 00 
  404a60:	a2 00 00 00 	lui $4,4098
  404a64:	02 10 04 00 
  404a68:	22 00 00 00 	lbu $4,-14575($4)
  404a6c:	11 c7 04 04 
  404a70:	4f 00 00 00 	andi $4,$4,16
  404a74:	10 00 04 04 
  404a78:	02 00 00 00 	jal 402c10 <Check_Zero>
  404a7c:	04 0b 10 00 
  404a80:	02 00 00 00 	jal 403c70 <Clear_Errors>
  404a84:	1c 0f 10 00 
  404a88:	42 00 00 00 	addu $4,$0,$17
  404a8c:	00 04 11 00 
  404a90:	a2 00 00 00 	lui $5,4096
  404a94:	00 10 05 00 
  404a98:	43 00 00 00 	addiu $5,$5,2488
  404a9c:	b8 09 05 05 
  404aa0:	02 00 00 00 	jal 410990 <printf>
  404aa4:	64 42 10 00 
  404aa8:	43 00 00 00 	addiu $4,$0,4608
  404aac:	00 12 04 00 
  404ab0:	43 00 00 00 	addiu $5,$29,16
  404ab4:	10 00 05 1d 
  404ab8:	02 00 00 00 	jal 4036b0 <Send_Patch_Code>
  404abc:	ac 0d 10 00 
  404ac0:	a2 00 00 00 	lui $4,4098
  404ac4:	02 10 04 00 
  404ac8:	22 00 00 00 	lbu $4,-14575($4)
  404acc:	11 c7 04 04 
  404ad0:	22 00 00 00 	lbu $2,16($29)
  404ad4:	10 00 02 1d 
  404ad8:	4f 00 00 00 	andi $4,$4,16
  404adc:	10 00 04 04 
  404ae0:	53 00 00 00 	xori $2,$2,165
  404ae4:	a5 00 02 02 
  404ae8:	30 00 00 00 	sb $2,16($29)
  404aec:	10 00 02 1d 
  404af0:	02 00 00 00 	jal 402c10 <Check_Zero>
  404af4:	04 0b 10 00 
  404af8:	22 00 00 00 	lbu $4,16($29)
  404afc:	10 00 04 1d 
  404b00:	51 00 00 00 	ori $4,$4,23040
  404b04:	00 5a 04 04 
  404b08:	02 00 00 00 	jal 402eb0 <Send_TC_Word>
  404b0c:	ac 0b 10 00 
  404b10:	43 00 00 00 	addiu $4,$0,41
  404b14:	29 00 04 00 
  404b18:	02 00 00 00 	jal 403528 <Handle_TC>
  404b1c:	4a 0d 10 00 
  404b20:	a2 00 00 00 	lui $4,4098
  404b24:	02 10 04 00 
  404b28:	22 00 00 00 	lbu $4,-14575($4)
  404b2c:	11 c7 04 04 
  404b30:	4f 00 00 00 	andi $4,$4,16
  404b34:	10 00 04 04 
  404b38:	02 00 00 00 	jal 402c70 <Check_Nonzero>
  404b3c:	1c 0b 10 00 
  404b40:	28 00 00 00 	lw $4,-32012($28)
  404b44:	f4 82 04 1c 
  404b48:	5e 00 00 00 	sltiu $4,$4,1
  404b4c:	01 00 04 04 
  404b50:	02 00 00 00 	jal 402c70 <Check_Nonzero>
  404b54:	1c 0b 10 00 
  404b58:	02 00 00 00 	jal 403c70 <Clear_Errors>
  404b5c:	1c 0f 10 00 
  404b60:	42 00 00 00 	addu $4,$0,$17
  404b64:	00 04 11 00 
  404b68:	a2 00 00 00 	lui $5,4096
  404b6c:	00 10 05 00 
  404b70:	43 00 00 00 	addiu $5,$5,2528
  404b74:	e0 09 05 05 
  404b78:	02 00 00 00 	jal 410990 <printf>
  404b7c:	64 42 10 00 
  404b80:	43 00 00 00 	addiu $4,$0,111
  404b84:	6f 00 04 00 
  404b88:	43 00 00 00 	addiu $5,$0,50
  404b8c:	32 00 05 00 
  404b90:	43 00 00 00 	addiu $6,$0,41
  404b94:	29 00 06 00 
  404b98:	02 00 00 00 	jal 403648 <Exec_TC>
  404b9c:	92 0d 10 00 
  404ba0:	22 00 00 00 	lbu $4,0($19)
  404ba4:	00 00 04 13 
  404ba8:	53 00 00 00 	xori $4,$4,1
  404bac:	01 00 04 04 
  404bb0:	5e 00 00 00 	sltiu $4,$4,1
  404bb4:	01 00 04 04 
  404bb8:	02 00 00 00 	jal 402c70 <Check_Nonzero>
  404bbc:	1c 0b 10 00 
  404bc0:	a2 00 00 00 	lui $4,4098
  404bc4:	02 10 04 00 
  404bc8:	22 00 00 00 	lbu $4,-14575($4)
  404bcc:	11 c7 04 04 
  404bd0:	4f 00 00 00 	andi $4,$4,16
  404bd4:	10 00 04 04 
  404bd8:	02 00 00 00 	jal 402c10 <Check_Zero>
  404bdc:	04 0b 10 00 
  404be0:	02 00 00 00 	jal 403c70 <Clear_Errors>
  404be4:	1c 0f 10 00 
  404be8:	42 00 00 00 	addu $4,$0,$17
  404bec:	00 04 11 00 
  404bf0:	a2 00 00 00 	lui $5,4096
  404bf4:	00 10 05 00 
  404bf8:	43 00 00 00 	addiu $5,$5,2580
  404bfc:	14 0a 05 05 
  404c00:	02 00 00 00 	jal 410990 <printf>
  404c04:	64 42 10 00 
  404c08:	43 00 00 00 	addiu $4,$0,16
  404c0c:	10 00 04 00 
  404c10:	43 00 00 00 	addiu $5,$0,50
  404c14:	32 00 05 00 
  404c18:	43 00 00 00 	addiu $6,$0,41
  404c1c:	29 00 06 00 
  404c20:	02 00 00 00 	jal 403648 <Exec_TC>
  404c24:	92 0d 10 00 
  404c28:	02 00 00 00 	jal 402cd0 <Check_No_Errors>
  404c2c:	34 0b 10 00 
  404c30:	28 00 00 00 	lw $4,-32012($28)
  404c34:	f4 82 04 1c 
  404c38:	53 00 00 00 	xori $4,$4,3
  404c3c:	03 00 04 04 
  404c40:	5e 00 00 00 	sltiu $4,$4,1
  404c44:	01 00 04 04 
  404c48:	02 00 00 00 	jal 402c70 <Check_Nonzero>
  404c4c:	1c 0b 10 00 
  404c50:	43 00 00 00 	addiu $4,$0,10
  404c54:	0a 00 04 00 
  404c58:	43 00 00 00 	addiu $5,$0,10
  404c5c:	0a 00 05 00 
  404c60:	43 00 00 00 	addiu $6,$0,41
  404c64:	29 00 06 00 
  404c68:	02 00 00 00 	jal 403648 <Exec_TC>
  404c6c:	92 0d 10 00 
  404c70:	22 00 00 00 	lbu $4,0($19)
  404c74:	00 00 04 13 
  404c78:	53 00 00 00 	xori $4,$4,1
  404c7c:	01 00 04 04 
  404c80:	5e 00 00 00 	sltiu $4,$4,1
  404c84:	01 00 04 04 
  404c88:	02 00 00 00 	jal 402c70 <Check_Nonzero>
  404c8c:	1c 0b 10 00 
  404c90:	a2 00 00 00 	lui $4,4098
  404c94:	02 10 04 00 
  404c98:	22 00 00 00 	lbu $4,-14575($4)
  404c9c:	11 c7 04 04 
  404ca0:	4f 00 00 00 	andi $4,$4,16
  404ca4:	10 00 04 04 
  404ca8:	02 00 00 00 	jal 402c10 <Check_Zero>
  404cac:	04 0b 10 00 
  404cb0:	02 00 00 00 	jal 403c70 <Clear_Errors>
  404cb4:	1c 0f 10 00 
  404cb8:	42 00 00 00 	addu $4,$0,$17
  404cbc:	00 04 11 00 
  404cc0:	a2 00 00 00 	lui $5,4096
  404cc4:	00 10 05 00 
  404cc8:	43 00 00 00 	addiu $5,$5,2632
  404ccc:	48 0a 05 05 
  404cd0:	02 00 00 00 	jal 410990 <printf>
  404cd4:	64 42 10 00 
  404cd8:	43 00 00 00 	addiu $4,$0,8704
  404cdc:	00 22 04 00 
  404ce0:	43 00 00 00 	addiu $5,$29,16
  404ce4:	10 00 05 1d 
  404ce8:	02 00 00 00 	jal 403850 <Send_Patch_Data>
  404cec:	14 0e 10 00 
  404cf0:	a2 00 00 00 	lui $4,4098
  404cf4:	02 10 04 00 
  404cf8:	22 00 00 00 	lbu $4,-14575($4)
  404cfc:	11 c7 04 04 
  404d00:	22 00 00 00 	lbu $2,16($29)
  404d04:	10 00 02 1d 
  404d08:	4f 00 00 00 	andi $4,$4,16
  404d0c:	10 00 04 04 
  404d10:	53 00 00 00 	xori $2,$2,17
  404d14:	11 00 02 02 
  404d18:	30 00 00 00 	sb $2,16($29)
  404d1c:	10 00 02 1d 
  404d20:	02 00 00 00 	jal 402c10 <Check_Zero>
  404d24:	04 0b 10 00 
  404d28:	22 00 00 00 	lbu $4,16($29)
  404d2c:	10 00 04 1d 
  404d30:	51 00 00 00 	ori $4,$4,4352
  404d34:	00 11 04 04 
  404d38:	02 00 00 00 	jal 402eb0 <Send_TC_Word>
  404d3c:	ac 0b 10 00 
  404d40:	43 00 00 00 	addiu $4,$0,41
  404d44:	29 00 04 00 
  404d48:	02 00 00 00 	jal 403528 <Handle_TC>
  404d4c:	4a 0d 10 00 
  404d50:	a2 00 00 00 	lui $4,4098
  404d54:	02 10 04 00 
  404d58:	22 00 00 00 	lbu $4,-14575($4)
  404d5c:	11 c7 04 04 
  404d60:	4f 00 00 00 	andi $4,$4,16
  404d64:	10 00 04 04 
  404d68:	02 00 00 00 	jal 402c10 <Check_Zero>
  404d6c:	04 0b 10 00 
  404d70:	02 00 00 00 	jal 402cd0 <Check_No_Errors>
  404d74:	34 0b 10 00 
  404d78:	28 00 00 00 	lw $4,-32012($28)
  404d7c:	f4 82 04 1c 
  404d80:	5e 00 00 00 	sltiu $4,$4,1
  404d84:	01 00 04 04 
  404d88:	02 00 00 00 	jal 402c70 <Check_Nonzero>
  404d8c:	1c 0b 10 00 
  404d90:	42 00 00 00 	addu $4,$0,$17
  404d94:	00 04 11 00 
  404d98:	a2 00 00 00 	lui $5,4096
  404d9c:	00 10 05 00 
  404da0:	43 00 00 00 	addiu $5,$5,2656
  404da4:	60 0a 05 05 
  404da8:	02 00 00 00 	jal 410990 <printf>
  404dac:	64 42 10 00 
  404db0:	51 00 00 00 	ori $4,$0,65264
  404db4:	f0 fe 04 00 
  404db8:	43 00 00 00 	addiu $5,$29,16
  404dbc:	10 00 05 1d 
  404dc0:	02 00 00 00 	jal 403850 <Send_Patch_Data>
  404dc4:	14 0e 10 00 
  404dc8:	a2 00 00 00 	lui $4,4098
  404dcc:	02 10 04 00 
  404dd0:	22 00 00 00 	lbu $4,-14575($4)
  404dd4:	11 c7 04 04 
  404dd8:	22 00 00 00 	lbu $2,16($29)
  404ddc:	10 00 02 1d 
  404de0:	4f 00 00 00 	andi $4,$4,16
  404de4:	10 00 04 04 
  404de8:	53 00 00 00 	xori $2,$2,17
  404dec:	11 00 02 02 
  404df0:	30 00 00 00 	sb $2,16($29)
  404df4:	10 00 02 1d 
  404df8:	02 00 00 00 	jal 402c10 <Check_Zero>
  404dfc:	04 0b 10 00 
  404e00:	22 00 00 00 	lbu $4,16($29)
  404e04:	10 00 04 1d 
  404e08:	51 00 00 00 	ori $4,$4,4352
  404e0c:	00 11 04 04 
  404e10:	02 00 00 00 	jal 402eb0 <Send_TC_Word>
  404e14:	ac 0b 10 00 
  404e18:	43 00 00 00 	addiu $4,$0,41
  404e1c:	29 00 04 00 
  404e20:	02 00 00 00 	jal 403528 <Handle_TC>
  404e24:	4a 0d 10 00 
  404e28:	22 00 00 00 	lbu $4,0($19)
  404e2c:	00 00 04 13 
  404e30:	53 00 00 00 	xori $4,$4,1
  404e34:	01 00 04 04 
  404e38:	5e 00 00 00 	sltiu $4,$4,1
  404e3c:	01 00 04 04 
  404e40:	02 00 00 00 	jal 402c70 <Check_Nonzero>
  404e44:	1c 0b 10 00 
  404e48:	a2 00 00 00 	lui $4,4098
  404e4c:	02 10 04 00 
  404e50:	22 00 00 00 	lbu $4,-14575($4)
  404e54:	11 c7 04 04 
  404e58:	4f 00 00 00 	andi $4,$4,16
  404e5c:	10 00 04 04 
  404e60:	02 00 00 00 	jal 402c10 <Check_Zero>
  404e64:	04 0b 10 00 
  404e68:	02 00 00 00 	jal 403c70 <Clear_Errors>
  404e6c:	1c 0f 10 00 
  404e70:	42 00 00 00 	addu $4,$0,$17
  404e74:	00 04 11 00 
  404e78:	a2 00 00 00 	lui $5,4096
  404e7c:	00 10 05 00 
  404e80:	43 00 00 00 	addiu $5,$5,2696
  404e84:	88 0a 05 05 
  404e88:	02 00 00 00 	jal 410990 <printf>
  404e8c:	64 42 10 00 
  404e90:	43 00 00 00 	addiu $4,$0,106
  404e94:	6a 00 04 00 
  404e98:	43 00 00 00 	addiu $5,$0,50
  404e9c:	32 00 05 00 
  404ea0:	43 00 00 00 	addiu $6,$0,41
  404ea4:	29 00 06 00 
  404ea8:	02 00 00 00 	jal 403648 <Exec_TC>
  404eac:	92 0d 10 00 
  404eb0:	22 00 00 00 	lbu $4,0($19)
  404eb4:	00 00 04 13 
  404eb8:	53 00 00 00 	xori $4,$4,1
  404ebc:	01 00 04 04 
  404ec0:	5e 00 00 00 	sltiu $4,$4,1
  404ec4:	01 00 04 04 
  404ec8:	02 00 00 00 	jal 402c70 <Check_Nonzero>
  404ecc:	1c 0b 10 00 
  404ed0:	a2 00 00 00 	lui $4,4098
  404ed4:	02 10 04 00 
  404ed8:	22 00 00 00 	lbu $4,-14575($4)
  404edc:	11 c7 04 04 
  404ee0:	4f 00 00 00 	andi $4,$4,16
  404ee4:	10 00 04 04 
  404ee8:	02 00 00 00 	jal 402c10 <Check_Zero>
  404eec:	04 0b 10 00 
  404ef0:	02 00 00 00 	jal 403c70 <Clear_Errors>
  404ef4:	1c 0f 10 00 
  404ef8:	42 00 00 00 	addu $4,$0,$17
  404efc:	00 04 11 00 
  404f00:	a2 00 00 00 	lui $5,4096
  404f04:	00 10 05 00 
  404f08:	43 00 00 00 	addiu $5,$5,2756
  404f0c:	c4 0a 05 05 
  404f10:	02 00 00 00 	jal 410990 <printf>
  404f14:	64 42 10 00 
  404f18:	43 00 00 00 	addiu $4,$0,21
  404f1c:	15 00 04 00 
  404f20:	43 00 00 00 	addiu $5,$0,50
  404f24:	32 00 05 00 
  404f28:	43 00 00 00 	addiu $6,$0,41
  404f2c:	29 00 06 00 
  404f30:	02 00 00 00 	jal 403648 <Exec_TC>
  404f34:	92 0d 10 00 
  404f38:	02 00 00 00 	jal 402cd0 <Check_No_Errors>
  404f3c:	34 0b 10 00 
  404f40:	28 00 00 00 	lw $4,-32012($28)
  404f44:	f4 82 04 1c 
  404f48:	53 00 00 00 	xori $4,$4,3
  404f4c:	03 00 04 04 
  404f50:	5e 00 00 00 	sltiu $4,$4,1
  404f54:	01 00 04 04 
  404f58:	02 00 00 00 	jal 402c70 <Check_Nonzero>
  404f5c:	1c 0b 10 00 
  404f60:	43 00 00 00 	addiu $4,$0,10
  404f64:	0a 00 04 00 
  404f68:	43 00 00 00 	addiu $5,$0,10
  404f6c:	0a 00 05 00 
  404f70:	43 00 00 00 	addiu $6,$0,41
  404f74:	29 00 06 00 
  404f78:	02 00 00 00 	jal 403648 <Exec_TC>
  404f7c:	92 0d 10 00 
  404f80:	22 00 00 00 	lbu $4,0($19)
  404f84:	00 00 04 13 
  404f88:	53 00 00 00 	xori $4,$4,1
  404f8c:	01 00 04 04 
  404f90:	5e 00 00 00 	sltiu $4,$4,1
  404f94:	01 00 04 04 
  404f98:	02 00 00 00 	jal 402c70 <Check_Nonzero>
  404f9c:	1c 0b 10 00 
  404fa0:	a2 00 00 00 	lui $4,4098
  404fa4:	02 10 04 00 
  404fa8:	22 00 00 00 	lbu $4,-14575($4)
  404fac:	11 c7 04 04 
  404fb0:	4f 00 00 00 	andi $4,$4,16
  404fb4:	10 00 04 04 
  404fb8:	02 00 00 00 	jal 402c10 <Check_Zero>
  404fbc:	04 0b 10 00 
  404fc0:	02 00 00 00 	jal 403c70 <Clear_Errors>
  404fc4:	1c 0f 10 00 
  404fc8:	42 00 00 00 	addu $4,$0,$17
  404fcc:	00 04 11 00 
  404fd0:	a2 00 00 00 	lui $5,4096
  404fd4:	00 10 05 00 
  404fd8:	43 00 00 00 	addiu $5,$5,2816
  404fdc:	00 0b 05 05 
  404fe0:	02 00 00 00 	jal 410990 <printf>
  404fe4:	64 42 10 00 
  404fe8:	43 00 00 00 	addiu $4,$0,8960
  404fec:	00 23 04 00 
  404ff0:	43 00 00 00 	addiu $5,$29,16
  404ff4:	10 00 05 1d 
  404ff8:	02 00 00 00 	jal 403850 <Send_Patch_Data>
  404ffc:	14 0e 10 00 
  405000:	a2 00 00 00 	lui $4,4098
  405004:	02 10 04 00 
  405008:	22 00 00 00 	lbu $4,-14575($4)
  40500c:	11 c7 04 04 
  405010:	22 00 00 00 	lbu $2,16($29)
  405014:	10 00 02 1d 
  405018:	4f 00 00 00 	andi $4,$4,16
  40501c:	10 00 04 04 
  405020:	53 00 00 00 	xori $2,$2,238
  405024:	ee 00 02 02 
  405028:	30 00 00 00 	sb $2,16($29)
  40502c:	10 00 02 1d 
  405030:	02 00 00 00 	jal 402c10 <Check_Zero>
  405034:	04 0b 10 00 
  405038:	22 00 00 00 	lbu $4,16($29)
  40503c:	10 00 04 1d 
  405040:	51 00 00 00 	ori $4,$4,4352
  405044:	00 11 04 04 
  405048:	02 00 00 00 	jal 402eb0 <Send_TC_Word>
  40504c:	ac 0b 10 00 
  405050:	43 00 00 00 	addiu $4,$0,41
  405054:	29 00 04 00 
  405058:	02 00 00 00 	jal 403528 <Handle_TC>
  40505c:	4a 0d 10 00 
  405060:	a2 00 00 00 	lui $4,4098
  405064:	02 10 04 00 
  405068:	22 00 00 00 	lbu $4,-14575($4)
  40506c:	11 c7 04 04 
  405070:	4f 00 00 00 	andi $4,$4,16
  405074:	10 00 04 04 
  405078:	02 00 00 00 	jal 402c70 <Check_Nonzero>
  40507c:	1c 0b 10 00 
  405080:	28 00 00 00 	lw $4,-32012($28)
  405084:	f4 82 04 1c 
  405088:	5e 00 00 00 	sltiu $4,$4,1
  40508c:	01 00 04 04 
  405090:	02 00 00 00 	jal 402c70 <Check_Nonzero>
  405094:	1c 0b 10 00 
  405098:	02 00 00 00 	jal 403c70 <Clear_Errors>
  40509c:	1c 0f 10 00 
  4050a0:	42 00 00 00 	addu $4,$0,$17
  4050a4:	00 04 11 00 
  4050a8:	a2 00 00 00 	lui $5,4096
  4050ac:	00 10 05 00 
  4050b0:	43 00 00 00 	addiu $5,$5,2856
  4050b4:	28 0b 05 05 
  4050b8:	02 00 00 00 	jal 410990 <printf>
  4050bc:	64 42 10 00 
  4050c0:	43 00 00 00 	addiu $4,$0,8704
  4050c4:	00 22 04 00 
  4050c8:	43 00 00 00 	addiu $5,$29,16
  4050cc:	10 00 05 1d 
  4050d0:	02 00 00 00 	jal 403850 <Send_Patch_Data>
  4050d4:	14 0e 10 00 
  4050d8:	28 00 00 00 	lw $4,-32012($28)
  4050dc:	f4 82 04 1c 
  4050e0:	22 00 00 00 	lbu $2,16($29)
  4050e4:	10 00 02 1d 
  4050e8:	53 00 00 00 	xori $4,$4,4
  4050ec:	04 00 04 04 
  4050f0:	5e 00 00 00 	sltiu $4,$4,1
  4050f4:	01 00 04 04 
  4050f8:	53 00 00 00 	xori $2,$2,17
  4050fc:	11 00 02 02 
  405100:	30 00 00 00 	sb $2,16($29)
  405104:	10 00 02 1d 
  405108:	02 00 00 00 	jal 402c70 <Check_Nonzero>
  40510c:	1c 0b 10 00 
  405110:	a2 00 00 00 	lui $4,4098
  405114:	02 10 04 00 
  405118:	22 00 00 00 	lbu $4,-14575($4)
  40511c:	11 c7 04 04 
  405120:	4f 00 00 00 	andi $4,$4,16
  405124:	10 00 04 04 
  405128:	02 00 00 00 	jal 402c10 <Check_Zero>
  40512c:	04 0b 10 00 
  405130:	a2 00 00 00 	lui $18,4096
  405134:	00 10 12 00 
  405138:	43 00 00 00 	addiu $18,$18,11424
  40513c:	a0 2c 12 12 
  405140:	28 00 00 00 	lw $4,0($18)
  405144:	00 00 04 12 
  405148:	5e 00 00 00 	sltiu $4,$4,1
  40514c:	01 00 04 04 
  405150:	02 00 00 00 	jal 402c70 <Check_Nonzero>
  405154:	1c 0b 10 00 
  405158:	a2 00 00 00 	lui $16,4096
  40515c:	00 10 10 00 
  405160:	43 00 00 00 	addiu $16,$16,1740
  405164:	cc 06 10 10 
  405168:	42 00 00 00 	addu $4,$0,$16
  40516c:	00 04 10 00 
  405170:	43 00 00 00 	addiu $5,$0,3
  405174:	03 00 05 00 
  405178:	02 00 00 00 	jal 410990 <printf>
  40517c:	64 42 10 00 
  405180:	42 00 00 00 	addu $4,$0,$16
  405184:	00 04 10 00 
  405188:	43 00 00 00 	addiu $5,$0,41
  40518c:	29 00 05 00 
  405190:	02 00 00 00 	jal 410990 <printf>
  405194:	64 42 10 00 
  405198:	02 00 00 00 	jal 40fa80 <HandleTelecommand>
  40519c:	a0 3e 10 00 
  4051a0:	42 00 00 00 	addu $4,$0,$16
  4051a4:	00 04 10 00 
  4051a8:	43 00 00 00 	addiu $5,$0,3
  4051ac:	03 00 05 00 
  4051b0:	02 00 00 00 	jal 410990 <printf>
  4051b4:	64 42 10 00 
  4051b8:	42 00 00 00 	addu $4,$0,$16
  4051bc:	00 04 10 00 
  4051c0:	42 00 00 00 	addu $5,$0,$0
  4051c4:	00 05 00 00 
  4051c8:	02 00 00 00 	jal 410990 <printf>
  4051cc:	64 42 10 00 
  4051d0:	28 00 00 00 	lw $4,-32012($28)
  4051d4:	f4 82 04 1c 
  4051d8:	5e 00 00 00 	sltiu $4,$4,1
  4051dc:	01 00 04 04 
  4051e0:	02 00 00 00 	jal 402c70 <Check_Nonzero>
  4051e4:	1c 0b 10 00 
  4051e8:	22 00 00 00 	lbu $4,0($19)
  4051ec:	00 00 04 13 
  4051f0:	53 00 00 00 	xori $4,$4,1
  4051f4:	01 00 04 04 
  4051f8:	5e 00 00 00 	sltiu $4,$4,1
  4051fc:	01 00 04 04 
  405200:	02 00 00 00 	jal 402c70 <Check_Nonzero>
  405204:	1c 0b 10 00 
  405208:	02 00 00 00 	jal 403c70 <Clear_Errors>
  40520c:	1c 0f 10 00 
  405210:	42 00 00 00 	addu $4,$0,$17
  405214:	00 04 11 00 
  405218:	a2 00 00 00 	lui $5,4096
  40521c:	00 10 05 00 
  405220:	43 00 00 00 	addiu $5,$5,2912
  405224:	60 0b 05 05 
  405228:	02 00 00 00 	jal 410990 <printf>
  40522c:	64 42 10 00 
  405230:	28 00 00 00 	lw $4,0($18)
  405234:	00 00 04 12 
  405238:	5e 00 00 00 	sltiu $4,$4,1
  40523c:	01 00 04 04 
  405240:	02 00 00 00 	jal 402c70 <Check_Nonzero>
  405244:	1c 0b 10 00 
  405248:	42 00 00 00 	addu $4,$0,$16
  40524c:	00 04 10 00 
  405250:	43 00 00 00 	addiu $5,$0,3
  405254:	03 00 05 00 
  405258:	02 00 00 00 	jal 410990 <printf>
  40525c:	64 42 10 00 
  405260:	42 00 00 00 	addu $4,$0,$16
  405264:	00 04 10 00 
  405268:	43 00 00 00 	addiu $5,$0,41
  40526c:	29 00 05 00 
  405270:	02 00 00 00 	jal 410990 <printf>
  405274:	64 42 10 00 
  405278:	02 00 00 00 	jal 40fa80 <HandleTelecommand>
  40527c:	a0 3e 10 00 
  405280:	42 00 00 00 	addu $4,$0,$16
  405284:	00 04 10 00 
  405288:	43 00 00 00 	addiu $5,$0,3
  40528c:	03 00 05 00 
  405290:	02 00 00 00 	jal 410990 <printf>
  405294:	64 42 10 00 
  405298:	42 00 00 00 	addu $4,$0,$16
  40529c:	00 04 10 00 
  4052a0:	42 00 00 00 	addu $5,$0,$0
  4052a4:	00 05 00 00 
  4052a8:	02 00 00 00 	jal 410990 <printf>
  4052ac:	64 42 10 00 
  4052b0:	28 00 00 00 	lw $4,-32012($28)
  4052b4:	f4 82 04 1c 
  4052b8:	5e 00 00 00 	sltiu $4,$4,1
  4052bc:	01 00 04 04 
  4052c0:	02 00 00 00 	jal 402c70 <Check_Nonzero>
  4052c4:	1c 0b 10 00 
  4052c8:	02 00 00 00 	jal 402cd0 <Check_No_Errors>
  4052cc:	34 0b 10 00 
  4052d0:	42 00 00 00 	addu $4,$0,$17
  4052d4:	00 04 11 00 
  4052d8:	a2 00 00 00 	lui $5,4096
  4052dc:	00 10 05 00 
  4052e0:	43 00 00 00 	addiu $5,$5,2952
  4052e4:	88 0b 05 05 
  4052e8:	02 00 00 00 	jal 410990 <printf>
  4052ec:	64 42 10 00 
  4052f0:	43 00 00 00 	addiu $4,$0,8257
  4052f4:	41 20 04 00 
  4052f8:	02 00 00 00 	jal 4039f0 <Read_Data_Memory>
  4052fc:	7c 0e 10 00 
  405300:	42 00 00 00 	addu $4,$0,$17
  405304:	00 04 11 00 
  405308:	a2 00 00 00 	lui $5,4096
  40530c:	00 10 05 00 
  405310:	43 00 00 00 	addiu $5,$5,2976
  405314:	a0 0b 05 05 
  405318:	02 00 00 00 	jal 410990 <printf>
  40531c:	64 42 10 00 
  405320:	43 00 00 00 	addiu $4,$0,31
  405324:	1f 00 04 00 
  405328:	43 00 00 00 	addiu $5,$0,254
  40532c:	fe 00 05 00 
  405330:	43 00 00 00 	addiu $6,$0,41
  405334:	29 00 06 00 
  405338:	02 00 00 00 	jal 403648 <Exec_TC>
  40533c:	92 0d 10 00 
  405340:	02 00 00 00 	jal 402cd0 <Check_No_Errors>
  405344:	34 0b 10 00 
  405348:	28 00 00 00 	lw $4,-32012($28)
  40534c:	f4 82 04 1c 
  405350:	53 00 00 00 	xori $4,$4,1
  405354:	01 00 04 04 
  405358:	5e 00 00 00 	sltiu $4,$4,1
  40535c:	01 00 04 04 
  405360:	02 00 00 00 	jal 402c70 <Check_Nonzero>
  405364:	1c 0b 10 00 
  405368:	43 00 00 00 	addiu $4,$0,96
  40536c:	60 00 04 00 
  405370:	43 00 00 00 	addiu $5,$0,240
  405374:	f0 00 05 00 
  405378:	43 00 00 00 	addiu $6,$0,41
  40537c:	29 00 06 00 
  405380:	02 00 00 00 	jal 403648 <Exec_TC>
  405384:	92 0d 10 00 
  405388:	22 00 00 00 	lbu $4,0($19)
  40538c:	00 00 04 13 
  405390:	53 00 00 00 	xori $4,$4,1
  405394:	01 00 04 04 
  405398:	5e 00 00 00 	sltiu $4,$4,1
  40539c:	01 00 04 04 
  4053a0:	02 00 00 00 	jal 402c70 <Check_Nonzero>
  4053a4:	1c 0b 10 00 
  4053a8:	02 00 00 00 	jal 403c70 <Clear_Errors>
  4053ac:	1c 0f 10 00 
  4053b0:	42 00 00 00 	addu $4,$0,$17
  4053b4:	00 04 11 00 
  4053b8:	a2 00 00 00 	lui $5,4096
  4053bc:	00 10 05 00 
  4053c0:	43 00 00 00 	addiu $5,$5,3016
  4053c4:	c8 0b 05 05 
  4053c8:	02 00 00 00 	jal 410990 <printf>
  4053cc:	64 42 10 00 
  4053d0:	43 00 00 00 	addiu $4,$0,96
  4053d4:	60 00 04 00 
  4053d8:	43 00 00 00 	addiu $5,$0,254
  4053dc:	fe 00 05 00 
  4053e0:	43 00 00 00 	addiu $6,$0,41
  4053e4:	29 00 06 00 
  4053e8:	02 00 00 00 	jal 403648 <Exec_TC>
  4053ec:	92 0d 10 00 
  4053f0:	22 00 00 00 	lbu $4,0($19)
  4053f4:	00 00 04 13 
  4053f8:	53 00 00 00 	xori $4,$4,1
  4053fc:	01 00 04 04 
  405400:	5e 00 00 00 	sltiu $4,$4,1
  405404:	01 00 04 04 
  405408:	02 00 00 00 	jal 402c70 <Check_Nonzero>
  40540c:	1c 0b 10 00 
  405410:	02 00 00 00 	jal 403c70 <Clear_Errors>
  405414:	1c 0f 10 00 
  405418:	42 00 00 00 	addu $4,$0,$17
  40541c:	00 04 11 00 
  405420:	a2 00 00 00 	lui $5,4096
  405424:	00 10 05 00 
  405428:	43 00 00 00 	addiu $5,$5,3072
  40542c:	00 0c 05 05 
  405430:	02 00 00 00 	jal 410990 <printf>
  405434:	64 42 10 00 
  405438:	43 00 00 00 	addiu $4,$0,31
  40543c:	1f 00 04 00 
  405440:	43 00 00 00 	addiu $5,$0,171
  405444:	ab 00 05 00 
  405448:	43 00 00 00 	addiu $6,$0,41
  40544c:	29 00 06 00 
  405450:	02 00 00 00 	jal 403648 <Exec_TC>
  405454:	92 0d 10 00 
  405458:	02 00 00 00 	jal 402cd0 <Check_No_Errors>
  40545c:	34 0b 10 00 
  405460:	28 00 00 00 	lw $4,-32012($28)
  405464:	f4 82 04 1c 
  405468:	53 00 00 00 	xori $4,$4,1
  40546c:	01 00 04 04 
  405470:	5e 00 00 00 	sltiu $4,$4,1
  405474:	01 00 04 04 
  405478:	02 00 00 00 	jal 402c70 <Check_Nonzero>
  40547c:	1c 0b 10 00 
  405480:	43 00 00 00 	addiu $4,$0,10
  405484:	0a 00 04 00 
  405488:	43 00 00 00 	addiu $5,$0,10
  40548c:	0a 00 05 00 
  405490:	43 00 00 00 	addiu $6,$0,41
  405494:	29 00 06 00 
  405498:	02 00 00 00 	jal 403648 <Exec_TC>
  40549c:	92 0d 10 00 
  4054a0:	22 00 00 00 	lbu $4,0($19)
  4054a4:	00 00 04 13 
  4054a8:	53 00 00 00 	xori $4,$4,1
  4054ac:	01 00 04 04 
  4054b0:	5e 00 00 00 	sltiu $4,$4,1
  4054b4:	01 00 04 04 
  4054b8:	02 00 00 00 	jal 402c70 <Check_Nonzero>
  4054bc:	1c 0b 10 00 
  4054c0:	02 00 00 00 	jal 403c70 <Clear_Errors>
  4054c4:	1c 0f 10 00 
  4054c8:	42 00 00 00 	addu $4,$0,$17
  4054cc:	00 04 11 00 
  4054d0:	a2 00 00 00 	lui $5,4096
  4054d4:	00 10 05 00 
  4054d8:	43 00 00 00 	addiu $5,$5,3132
  4054dc:	3c 0c 05 05 
  4054e0:	02 00 00 00 	jal 410990 <printf>
  4054e4:	64 42 10 00 
  4054e8:	43 00 00 00 	addiu $4,$0,10
  4054ec:	0a 00 04 00 
  4054f0:	43 00 00 00 	addiu $5,$0,10
  4054f4:	0a 00 05 00 
  4054f8:	43 00 00 00 	addiu $6,$0,41
  4054fc:	29 00 06 00 
  405500:	43 00 00 00 	addiu $2,$0,3
  405504:	03 00 02 00 
  405508:	a2 00 00 00 	lui $1,4098
  40550c:	02 10 01 00 
  405510:	30 00 00 00 	sb $2,-14568($1)
  405514:	18 c7 02 01 
  405518:	02 00 00 00 	jal 403648 <Exec_TC>
  40551c:	92 0d 10 00 
  405520:	02 00 00 00 	jal 402cd0 <Check_No_Errors>
  405524:	34 0b 10 00 
  405528:	a2 00 00 00 	lui $4,4098
  40552c:	02 10 04 00 
  405530:	22 00 00 00 	lbu $4,-14568($4)
  405534:	18 c7 04 04 
  405538:	02 00 00 00 	jal 402c10 <Check_Zero>
  40553c:	04 0b 10 00 
  405540:	42 00 00 00 	addu $4,$0,$17
  405544:	00 04 11 00 
  405548:	a2 00 00 00 	lui $5,4096
  40554c:	00 10 05 00 
  405550:	43 00 00 00 	addiu $5,$5,3164
  405554:	5c 0c 05 05 
  405558:	02 00 00 00 	jal 410990 <printf>
  40555c:	64 42 10 00 
  405560:	43 00 00 00 	addiu $4,$0,11
  405564:	0b 00 04 00 
  405568:	43 00 00 00 	addiu $5,$0,11
  40556c:	0b 00 05 00 
  405570:	43 00 00 00 	addiu $6,$0,41
  405574:	29 00 06 00 
  405578:	43 00 00 00 	addiu $2,$0,9
  40557c:	09 00 02 00 
  405580:	a2 00 00 00 	lui $1,4098
  405584:	02 10 01 00 
  405588:	30 00 00 00 	sb $2,-14567($1)
  40558c:	19 c7 02 01 
  405590:	02 00 00 00 	jal 403648 <Exec_TC>
  405594:	92 0d 10 00 
  405598:	02 00 00 00 	jal 402cd0 <Check_No_Errors>
  40559c:	34 0b 10 00 
  4055a0:	a2 00 00 00 	lui $4,4098
  4055a4:	02 10 04 00 
  4055a8:	22 00 00 00 	lbu $4,-14567($4)
  4055ac:	19 c7 04 04 
  4055b0:	a2 00 00 00 	lui $16,274
  4055b4:	12 01 10 00 
  4055b8:	51 00 00 00 	ori $16,$16,9012
  4055bc:	34 23 10 10 
  4055c0:	02 00 00 00 	jal 402c10 <Check_Zero>
  4055c4:	04 0b 10 00 
  4055c8:	42 00 00 00 	addu $4,$0,$17
  4055cc:	00 04 11 00 
  4055d0:	a2 00 00 00 	lui $5,4096
  4055d4:	00 10 05 00 
  4055d8:	43 00 00 00 	addiu $5,$5,3196
  4055dc:	7c 0c 05 05 
  4055e0:	02 00 00 00 	jal 410990 <printf>
  4055e4:	64 42 10 00 
  4055e8:	43 00 00 00 	addiu $4,$0,15
  4055ec:	0f 00 04 00 
  4055f0:	43 00 00 00 	addiu $5,$0,68
  4055f4:	44 00 05 00 
  4055f8:	43 00 00 00 	addiu $6,$0,41
  4055fc:	29 00 06 00 
  405600:	02 00 00 00 	jal 403648 <Exec_TC>
  405604:	92 0d 10 00 
  405608:	02 00 00 00 	jal 402cd0 <Check_No_Errors>
  40560c:	34 0b 10 00 
  405610:	43 00 00 00 	addiu $4,$0,14
  405614:	0e 00 04 00 
  405618:	43 00 00 00 	addiu $5,$0,51
  40561c:	33 00 05 00 
  405620:	43 00 00 00 	addiu $6,$0,41
  405624:	29 00 06 00 
  405628:	02 00 00 00 	jal 403648 <Exec_TC>
  40562c:	92 0d 10 00 
  405630:	02 00 00 00 	jal 402cd0 <Check_No_Errors>
  405634:	34 0b 10 00 
  405638:	43 00 00 00 	addiu $4,$0,13
  40563c:	0d 00 04 00 
  405640:	43 00 00 00 	addiu $5,$0,34
  405644:	22 00 05 00 
  405648:	43 00 00 00 	addiu $6,$0,41
  40564c:	29 00 06 00 
  405650:	02 00 00 00 	jal 403648 <Exec_TC>
  405654:	92 0d 10 00 
  405658:	02 00 00 00 	jal 402cd0 <Check_No_Errors>
  40565c:	34 0b 10 00 
  405660:	43 00 00 00 	addiu $4,$0,12
  405664:	0c 00 04 00 
  405668:	43 00 00 00 	addiu $5,$0,17
  40566c:	11 00 05 00 
  405670:	43 00 00 00 	addiu $6,$0,41
  405674:	29 00 06 00 
  405678:	02 00 00 00 	jal 403648 <Exec_TC>
  40567c:	92 0d 10 00 
  405680:	02 00 00 00 	jal 402cd0 <Check_No_Errors>
  405684:	34 0b 10 00 
  405688:	28 00 00 00 	lw $4,-32060($28)
  40568c:	c4 82 04 1c 
  405690:	a2 00 00 00 	lui $2,17459
  405694:	33 44 02 00 
  405698:	51 00 00 00 	ori $2,$2,8721
  40569c:	11 22 02 02 
  4056a0:	52 00 00 00 	xor $4,$4,$2
  4056a4:	00 04 02 04 
  4056a8:	5e 00 00 00 	sltiu $4,$4,1
  4056ac:	01 00 04 04 
  4056b0:	02 00 00 00 	jal 402c70 <Check_Nonzero>
  4056b4:	1c 0b 10 00 
  4056b8:	42 00 00 00 	addu $4,$0,$17
  4056bc:	00 04 11 00 
  4056c0:	a2 00 00 00 	lui $5,4096
  4056c4:	00 10 05 00 
  4056c8:	43 00 00 00 	addiu $5,$5,3220
  4056cc:	94 0c 05 05 
  4056d0:	02 00 00 00 	jal 410990 <printf>
  4056d4:	64 42 10 00 
  4056d8:	43 00 00 00 	addiu $4,$0,15
  4056dc:	0f 00 04 00 
  4056e0:	43 00 00 00 	addiu $5,$0,68
  4056e4:	44 00 05 00 
  4056e8:	43 00 00 00 	addiu $6,$0,41
  4056ec:	29 00 06 00 
  4056f0:	34 00 00 00 	sw $16,-32060($28)
  4056f4:	c4 82 10 1c 
  4056f8:	02 00 00 00 	jal 403648 <Exec_TC>
  4056fc:	92 0d 10 00 
  405700:	02 00 00 00 	jal 402cd0 <Check_No_Errors>
  405704:	34 0b 10 00 
  405708:	43 00 00 00 	addiu $4,$0,13
  40570c:	0d 00 04 00 
  405710:	43 00 00 00 	addiu $5,$0,51
  405714:	33 00 05 00 
  405718:	43 00 00 00 	addiu $6,$0,41
  40571c:	29 00 06 00 
  405720:	02 00 00 00 	jal 403648 <Exec_TC>
  405724:	92 0d 10 00 
  405728:	22 00 00 00 	lbu $4,0($19)
  40572c:	00 00 04 13 
  405730:	53 00 00 00 	xori $4,$4,1
  405734:	01 00 04 04 
  405738:	5e 00 00 00 	sltiu $4,$4,1
  40573c:	01 00 04 04 
  405740:	02 00 00 00 	jal 402c70 <Check_Nonzero>
  405744:	1c 0b 10 00 
  405748:	28 00 00 00 	lw $4,-32060($28)
  40574c:	c4 82 04 1c 
  405750:	a2 00 00 00 	lui $2,17408
  405754:	00 44 02 00 
  405758:	52 00 00 00 	xor $4,$4,$2
  40575c:	00 04 02 04 
  405760:	5e 00 00 00 	sltiu $4,$4,1
  405764:	01 00 04 04 
  405768:	02 00 00 00 	jal 402c70 <Check_Nonzero>
  40576c:	1c 0b 10 00 
  405770:	02 00 00 00 	jal 403c70 <Clear_Errors>
  405774:	1c 0f 10 00 
  405778:	42 00 00 00 	addu $4,$0,$17
  40577c:	00 04 11 00 
  405780:	a2 00 00 00 	lui $5,4096
  405784:	00 10 05 00 
  405788:	43 00 00 00 	addiu $5,$5,3268
  40578c:	c4 0c 05 05 
  405790:	02 00 00 00 	jal 410990 <printf>
  405794:	64 42 10 00 
  405798:	43 00 00 00 	addiu $4,$0,15
  40579c:	0f 00 04 00 
  4057a0:	43 00 00 00 	addiu $5,$0,68
  4057a4:	44 00 05 00 
  4057a8:	43 00 00 00 	addiu $6,$0,41
  4057ac:	29 00 06 00 
  4057b0:	34 00 00 00 	sw $16,-32060($28)
  4057b4:	c4 82 10 1c 
  4057b8:	02 00 00 00 	jal 403648 <Exec_TC>
  4057bc:	92 0d 10 00 
  4057c0:	02 00 00 00 	jal 402cd0 <Check_No_Errors>
  4057c4:	34 0b 10 00 
  4057c8:	43 00 00 00 	addiu $4,$0,14
  4057cc:	0e 00 04 00 
  4057d0:	43 00 00 00 	addiu $5,$0,51
  4057d4:	33 00 05 00 
  4057d8:	43 00 00 00 	addiu $6,$0,41
  4057dc:	29 00 06 00 
  4057e0:	02 00 00 00 	jal 403648 <Exec_TC>
  4057e4:	92 0d 10 00 
  4057e8:	02 00 00 00 	jal 402cd0 <Check_No_Errors>
  4057ec:	34 0b 10 00 
  4057f0:	43 00 00 00 	addiu $4,$0,12
  4057f4:	0c 00 04 00 
  4057f8:	43 00 00 00 	addiu $5,$0,34
  4057fc:	22 00 05 00 
  405800:	43 00 00 00 	addiu $6,$0,41
  405804:	29 00 06 00 
  405808:	02 00 00 00 	jal 403648 <Exec_TC>
  40580c:	92 0d 10 00 
  405810:	22 00 00 00 	lbu $4,0($19)
  405814:	00 00 04 13 
  405818:	53 00 00 00 	xori $4,$4,1
  40581c:	01 00 04 04 
  405820:	5e 00 00 00 	sltiu $4,$4,1
  405824:	01 00 04 04 
  405828:	02 00 00 00 	jal 402c70 <Check_Nonzero>
  40582c:	1c 0b 10 00 
  405830:	28 00 00 00 	lw $4,-32060($28)
  405834:	c4 82 04 1c 
  405838:	a2 00 00 00 	lui $2,17459
  40583c:	33 44 02 00 
  405840:	52 00 00 00 	xor $4,$4,$2
  405844:	00 04 02 04 
  405848:	5e 00 00 00 	sltiu $4,$4,1
  40584c:	01 00 04 04 
  405850:	02 00 00 00 	jal 402c70 <Check_Nonzero>
  405854:	1c 0b 10 00 
  405858:	02 00 00 00 	jal 403c70 <Clear_Errors>
  40585c:	1c 0f 10 00 
  405860:	42 00 00 00 	addu $4,$0,$17
  405864:	00 04 11 00 
  405868:	a2 00 00 00 	lui $5,4096
  40586c:	00 10 05 00 
  405870:	43 00 00 00 	addiu $5,$5,3316
  405874:	f4 0c 05 05 
  405878:	02 00 00 00 	jal 410990 <printf>
  40587c:	64 42 10 00 
  405880:	43 00 00 00 	addiu $4,$0,15
  405884:	0f 00 04 00 
  405888:	43 00 00 00 	addiu $5,$0,68
  40588c:	44 00 05 00 
  405890:	43 00 00 00 	addiu $6,$0,41
  405894:	29 00 06 00 
  405898:	34 00 00 00 	sw $16,-32060($28)
  40589c:	c4 82 10 1c 
  4058a0:	02 00 00 00 	jal 403648 <Exec_TC>
  4058a4:	92 0d 10 00 
  4058a8:	02 00 00 00 	jal 402cd0 <Check_No_Errors>
  4058ac:	34 0b 10 00 
  4058b0:	43 00 00 00 	addiu $4,$0,14
  4058b4:	0e 00 04 00 
  4058b8:	43 00 00 00 	addiu $5,$0,51
  4058bc:	33 00 05 00 
  4058c0:	43 00 00 00 	addiu $6,$0,41
  4058c4:	29 00 06 00 
  4058c8:	02 00 00 00 	jal 403648 <Exec_TC>
  4058cc:	92 0d 10 00 
  4058d0:	02 00 00 00 	jal 402cd0 <Check_No_Errors>
  4058d4:	34 0b 10 00 
  4058d8:	43 00 00 00 	addiu $4,$0,13
  4058dc:	0d 00 04 00 
  4058e0:	43 00 00 00 	addiu $5,$0,34
  4058e4:	22 00 05 00 
  4058e8:	43 00 00 00 	addiu $6,$0,41
  4058ec:	29 00 06 00 
  4058f0:	02 00 00 00 	jal 403648 <Exec_TC>
  4058f4:	92 0d 10 00 
  4058f8:	02 00 00 00 	jal 402cd0 <Check_No_Errors>
  4058fc:	34 0b 10 00 
  405900:	43 00 00 00 	addiu $4,$0,14
  405904:	0e 00 04 00 
  405908:	43 00 00 00 	addiu $5,$0,17
  40590c:	11 00 05 00 
  405910:	43 00 00 00 	addiu $6,$0,41
  405914:	29 00 06 00 
  405918:	02 00 00 00 	jal 403648 <Exec_TC>
  40591c:	92 0d 10 00 
  405920:	22 00 00 00 	lbu $4,0($19)
  405924:	00 00 04 13 
  405928:	53 00 00 00 	xori $4,$4,1
  40592c:	01 00 04 04 
  405930:	5e 00 00 00 	sltiu $4,$4,1
  405934:	01 00 04 04 
  405938:	02 00 00 00 	jal 402c70 <Check_Nonzero>
  40593c:	1c 0b 10 00 
  405940:	28 00 00 00 	lw $4,-32060($28)
  405944:	c4 82 04 1c 
  405948:	a2 00 00 00 	lui $2,17459
  40594c:	33 44 02 00 
  405950:	51 00 00 00 	ori $2,$2,8704
  405954:	00 22 02 02 
  405958:	52 00 00 00 	xor $4,$4,$2
  40595c:	00 04 02 04 
  405960:	5e 00 00 00 	sltiu $4,$4,1
  405964:	01 00 04 04 
  405968:	02 00 00 00 	jal 402c70 <Check_Nonzero>
  40596c:	1c 0b 10 00 
  405970:	02 00 00 00 	jal 403c70 <Clear_Errors>
  405974:	1c 0f 10 00 
  405978:	42 00 00 00 	addu $4,$0,$17
  40597c:	00 04 11 00 
  405980:	a2 00 00 00 	lui $5,4096
  405984:	00 10 05 00 
  405988:	43 00 00 00 	addiu $5,$5,3364
  40598c:	24 0d 05 05 
  405990:	02 00 00 00 	jal 410990 <printf>
  405994:	64 42 10 00 
  405998:	43 00 00 00 	addiu $4,$0,9
  40599c:	09 00 04 00 
  4059a0:	43 00 00 00 	addiu $5,$0,9
  4059a4:	09 00 05 00 
  4059a8:	43 00 00 00 	addiu $6,$0,41
  4059ac:	29 00 06 00 
  4059b0:	02 00 00 00 	jal 403648 <Exec_TC>
  4059b4:	92 0d 10 00 
  4059b8:	02 00 00 00 	jal 402cd0 <Check_No_Errors>
  4059bc:	34 0b 10 00 
  4059c0:	42 00 00 00 	addu $4,$0,$17
  4059c4:	00 04 11 00 
  4059c8:	a2 00 00 00 	lui $5,4096
  4059cc:	00 10 05 00 
  4059d0:	43 00 00 00 	addiu $5,$5,3380
  4059d4:	34 0d 05 05 
  4059d8:	02 00 00 00 	jal 410990 <printf>
  4059dc:	64 42 10 00 
  4059e0:	02 00 00 00 	jal 4091e0 <GetMode>
  4059e4:	78 24 10 00 
  4059e8:	4f 00 00 00 	andi $2,$2,255
  4059ec:	ff 00 02 02 
  4059f0:	53 00 00 00 	xori $2,$2,1
  4059f4:	01 00 02 02 
  4059f8:	5e 00 00 00 	sltiu $4,$2,1
  4059fc:	01 00 04 02 
  405a00:	02 00 00 00 	jal 402c70 <Check_Nonzero>
  405a04:	1c 0b 10 00 
  405a08:	43 00 00 00 	addiu $4,$0,2
  405a0c:	02 00 04 00 
  405a10:	43 00 00 00 	addiu $5,$0,2
  405a14:	02 00 05 00 
  405a18:	43 00 00 00 	addiu $6,$0,41
  405a1c:	29 00 06 00 
  405a20:	02 00 00 00 	jal 403648 <Exec_TC>
  405a24:	92 0d 10 00 
  405a28:	22 00 00 00 	lbu $4,0($19)
  405a2c:	00 00 04 13 
  405a30:	53 00 00 00 	xori $4,$4,1
  405a34:	01 00 04 04 
  405a38:	5e 00 00 00 	sltiu $4,$4,1
  405a3c:	01 00 04 04 
  405a40:	02 00 00 00 	jal 402c70 <Check_Nonzero>
  405a44:	1c 0b 10 00 
  405a48:	02 00 00 00 	jal 4091e0 <GetMode>
  405a4c:	78 24 10 00 
  405a50:	4f 00 00 00 	andi $2,$2,255
  405a54:	ff 00 02 02 
  405a58:	53 00 00 00 	xori $2,$2,1
  405a5c:	01 00 02 02 
  405a60:	5e 00 00 00 	sltiu $4,$2,1
  405a64:	01 00 04 02 
  405a68:	02 00 00 00 	jal 402c70 <Check_Nonzero>
  405a6c:	1c 0b 10 00 
  405a70:	02 00 00 00 	jal 403c70 <Clear_Errors>
  405a74:	1c 0f 10 00 
  405a78:	28 00 00 00 	lw $31,40($29)
  405a7c:	28 00 1f 1d 
  405a80:	28 00 00 00 	lw $19,36($29)
  405a84:	24 00 13 1d 
  405a88:	28 00 00 00 	lw $18,32($29)
  405a8c:	20 00 12 1d 
  405a90:	28 00 00 00 	lw $17,28($29)
  405a94:	1c 00 11 1d 
  405a98:	28 00 00 00 	lw $16,24($29)
  405a9c:	18 00 10 1d 
  405aa0:	43 00 00 00 	addiu $29,$29,48
  405aa4:	30 00 1d 1d 
  405aa8:	03 00 00 00 	jr $31
  405aac:	00 00 00 1f 

00405ab0 <Monitor_Health>:
  405ab0:	43 00 00 00 	addiu $29,$29,-32
  405ab4:	e0 ff 1d 1d 
  405ab8:	34 00 00 00 	sw $17,20($29)
  405abc:	14 00 11 1d 
  405ac0:	42 00 00 00 	addu $17,$0,$4
  405ac4:	00 11 04 00 
  405ac8:	34 00 00 00 	sw $16,16($29)
  405acc:	10 00 10 1d 
  405ad0:	a2 00 00 00 	lui $16,4096
  405ad4:	00 10 10 00 
  405ad8:	43 00 00 00 	addiu $16,$16,1740
  405adc:	cc 06 10 10 
  405ae0:	42 00 00 00 	addu $4,$0,$16
  405ae4:	00 04 10 00 
  405ae8:	43 00 00 00 	addiu $5,$0,3
  405aec:	03 00 05 00 
  405af0:	34 00 00 00 	sw $31,24($29)
  405af4:	18 00 1f 1d 
  405af8:	34 00 00 00 	sw $0,-32656($28)
  405afc:	70 80 00 1c 
  405b00:	34 00 00 00 	sw $0,-32648($28)
  405b04:	78 80 00 1c 
  405b08:	02 00 00 00 	jal 410990 <printf>
  405b0c:	64 42 10 00 
  405b10:	42 00 00 00 	addu $4,$0,$16
  405b14:	00 04 10 00 
  405b18:	42 00 00 00 	addu $5,$0,$17
  405b1c:	00 05 11 00 
  405b20:	02 00 00 00 	jal 410990 <printf>
  405b24:	64 42 10 00 
  405b28:	02 00 00 00 	jal 409848 <HandleHealthMonitoring>
  405b2c:	12 26 10 00 
  405b30:	42 00 00 00 	addu $4,$0,$16
  405b34:	00 04 10 00 
  405b38:	43 00 00 00 	addiu $5,$0,3
  405b3c:	03 00 05 00 
  405b40:	02 00 00 00 	jal 410990 <printf>
  405b44:	64 42 10 00 
  405b48:	42 00 00 00 	addu $4,$0,$16
  405b4c:	00 04 10 00 
  405b50:	42 00 00 00 	addu $5,$0,$0
  405b54:	00 05 00 00 
  405b58:	02 00 00 00 	jal 410990 <printf>
  405b5c:	64 42 10 00 
  405b60:	42 00 00 00 	addu $4,$0,$17
  405b64:	00 04 11 00 
  405b68:	02 00 00 00 	jal 402008 <Report_Start_Conversion_Count>
  405b6c:	02 08 10 00 
  405b70:	42 00 00 00 	addu $4,$0,$17
  405b74:	00 04 11 00 
  405b78:	02 00 00 00 	jal 4021f8 <Report_End_Of_ADC_Count>
  405b7c:	7e 08 10 00 
  405b80:	28 00 00 00 	lw $31,24($29)
  405b84:	18 00 1f 1d 
  405b88:	28 00 00 00 	lw $17,20($29)
  405b8c:	14 00 11 1d 
  405b90:	28 00 00 00 	lw $16,16($29)
  405b94:	10 00 10 1d 
  405b98:	43 00 00 00 	addiu $29,$29,32
  405b9c:	20 00 1d 1d 
  405ba0:	03 00 00 00 	jr $31
  405ba4:	00 00 00 1f 

00405ba8 <Monitoring_Task_Tests>:
  405ba8:	43 00 00 00 	addiu $29,$29,-56
  405bac:	c8 ff 1d 1d 
  405bb0:	43 00 00 00 	addiu $2,$0,9
  405bb4:	09 00 02 00 
  405bb8:	34 00 00 00 	sw $2,-32540($28)
  405bbc:	e4 80 02 1c 
  405bc0:	43 00 00 00 	addiu $2,$0,5
  405bc4:	05 00 02 00 
  405bc8:	34 00 00 00 	sw $2,-32560($28)
  405bcc:	d0 80 02 1c 
  405bd0:	43 00 00 00 	addiu $2,$0,17
  405bd4:	11 00 02 00 
  405bd8:	34 00 00 00 	sw $2,-32556($28)
  405bdc:	d4 80 02 1c 
  405be0:	43 00 00 00 	addiu $2,$0,59
  405be4:	3b 00 02 00 
  405be8:	34 00 00 00 	sw $31,52($29)
  405bec:	34 00 1f 1d 
  405bf0:	34 00 00 00 	sw $30,48($29)
  405bf4:	30 00 1e 1d 
  405bf8:	34 00 00 00 	sw $23,44($29)
  405bfc:	2c 00 17 1d 
  405c00:	34 00 00 00 	sw $22,40($29)
  405c04:	28 00 16 1d 
  405c08:	34 00 00 00 	sw $21,36($29)
  405c0c:	24 00 15 1d 
  405c10:	34 00 00 00 	sw $20,32($29)
  405c14:	20 00 14 1d 
  405c18:	34 00 00 00 	sw $19,28($29)
  405c1c:	1c 00 13 1d 
  405c20:	34 00 00 00 	sw $18,24($29)
  405c24:	18 00 12 1d 
  405c28:	34 00 00 00 	sw $17,20($29)
  405c2c:	14 00 11 1d 
  405c30:	34 00 00 00 	sw $16,16($29)
  405c34:	10 00 10 1d 
  405c38:	34 00 00 00 	sw $2,-32552($28)
  405c3c:	d8 80 02 1c 
  405c40:	02 00 00 00 	jal 401908 <Set_AD_Nominal>
  405c44:	42 06 10 00 
  405c48:	a2 00 00 00 	lui $4,4096
  405c4c:	00 10 04 00 
  405c50:	43 00 00 00 	addiu $4,$4,1772
  405c54:	ec 06 04 04 
  405c58:	a2 00 00 00 	lui $5,4096
  405c5c:	00 10 05 00 
  405c60:	43 00 00 00 	addiu $5,$5,3420
  405c64:	5c 0d 05 05 
  405c68:	02 00 00 00 	jal 410990 <printf>
  405c6c:	64 42 10 00 
  405c70:	43 00 00 00 	addiu $4,$0,2
  405c74:	02 00 04 00 
  405c78:	02 00 00 00 	jal 401c18 <Set_AD_Delay>
  405c7c:	06 07 10 00 
  405c80:	28 00 00 00 	lw $4,-32540($28)
  405c84:	e4 80 04 1c 
  405c88:	53 00 00 00 	xori $4,$4,9
  405c8c:	09 00 04 04 
  405c90:	5e 00 00 00 	sltiu $4,$4,1
  405c94:	01 00 04 04 
  405c98:	02 00 00 00 	jal 402c70 <Check_Nonzero>
  405c9c:	1c 0b 10 00 
  405ca0:	28 00 00 00 	lw $4,-32560($28)
  405ca4:	d0 80 04 1c 
  405ca8:	53 00 00 00 	xori $4,$4,5
  405cac:	05 00 04 04 
  405cb0:	5e 00 00 00 	sltiu $4,$4,1
  405cb4:	01 00 04 04 
  405cb8:	02 00 00 00 	jal 402c70 <Check_Nonzero>
  405cbc:	1c 0b 10 00 
  405cc0:	28 00 00 00 	lw $4,-32556($28)
  405cc4:	d4 80 04 1c 
  405cc8:	43 00 00 00 	addiu $16,$0,1
  405ccc:	01 00 10 00 
  405cd0:	53 00 00 00 	xori $4,$4,17
  405cd4:	11 00 04 04 
  405cd8:	5e 00 00 00 	sltiu $4,$4,1
  405cdc:	01 00 04 04 
  405ce0:	02 00 00 00 	jal 402c70 <Check_Nonzero>
  405ce4:	1c 0b 10 00 
  405ce8:	28 00 00 00 	lw $4,-32552($28)
  405cec:	d8 80 04 1c 
  405cf0:	43 00 00 00 	addiu $18,$0,9
  405cf4:	09 00 12 00 
  405cf8:	43 00 00 00 	addiu $17,$0,59
  405cfc:	3b 00 11 00 
  405d00:	53 00 00 00 	xori $4,$4,59
  405d04:	3b 00 04 04 
  405d08:	5e 00 00 00 	sltiu $4,$4,1
  405d0c:	01 00 04 04 
  405d10:	02 00 00 00 	jal 402c70 <Check_Nonzero>
  405d14:	1c 0b 10 00 
  405d18:	43 00 00 00 	addiu $4,$0,61
  405d1c:	3d 00 04 00 
  405d20:	02 00 00 00 	jal 405ab0 <Monitor_Health>
  405d24:	ac 16 10 00 
  405d28:	28 00 00 00 	lw $4,-32540($28)
  405d2c:	e4 80 04 1c 
  405d30:	45 00 00 00 	subu $2,$18,$16
  405d34:	00 02 10 12 
  405d38:	52 00 00 00 	xor $4,$4,$2
  405d3c:	00 04 02 04 
  405d40:	5e 00 00 00 	sltiu $4,$4,1
  405d44:	01 00 04 04 
  405d48:	02 00 00 00 	jal 402c70 <Check_Nonzero>
  405d4c:	1c 0b 10 00 
  405d50:	28 00 00 00 	lw $4,-32560($28)
  405d54:	d0 80 04 1c 
  405d58:	53 00 00 00 	xori $4,$4,5
  405d5c:	05 00 04 04 
  405d60:	5e 00 00 00 	sltiu $4,$4,1
  405d64:	01 00 04 04 
  405d68:	02 00 00 00 	jal 402c70 <Check_Nonzero>
  405d6c:	1c 0b 10 00 
  405d70:	28 00 00 00 	lw $4,-32556($28)
  405d74:	d4 80 04 1c 
  405d78:	53 00 00 00 	xori $4,$4,17
  405d7c:	11 00 04 04 
  405d80:	5e 00 00 00 	sltiu $4,$4,1
  405d84:	01 00 04 04 
  405d88:	02 00 00 00 	jal 402c70 <Check_Nonzero>
  405d8c:	1c 0b 10 00 
  405d90:	28 00 00 00 	lw $4,-32552($28)
  405d94:	d8 80 04 1c 
  405d98:	45 00 00 00 	subu $2,$17,$16
  405d9c:	00 02 10 11 
  405da0:	43 00 00 00 	addiu $16,$16,1
  405da4:	01 00 10 10 
  405da8:	52 00 00 00 	xor $4,$4,$2
  405dac:	00 04 02 04 
  405db0:	5e 00 00 00 	sltiu $4,$4,1
  405db4:	01 00 04 04 
  405db8:	02 00 00 00 	jal 402c70 <Check_Nonzero>
  405dbc:	1c 0b 10 00 
  405dc0:	5c 00 00 00 	slti $2,$16,10
  405dc4:	0a 00 02 10 
  405dc8:	06 00 00 00 	bne $2,$0,405d18 <Monitoring_Task_Tests+0x170>
  405dcc:	d2 ff 00 02 
  405dd0:	43 00 00 00 	addiu $4,$0,61
  405dd4:	3d 00 04 00 
  405dd8:	02 00 00 00 	jal 405ab0 <Monitor_Health>
  405ddc:	ac 16 10 00 
  405de0:	28 00 00 00 	lw $4,-32540($28)
  405de4:	e4 80 04 1c 
  405de8:	53 00 00 00 	xori $4,$4,9
  405dec:	09 00 04 04 
  405df0:	5e 00 00 00 	sltiu $4,$4,1
  405df4:	01 00 04 04 
  405df8:	02 00 00 00 	jal 402c70 <Check_Nonzero>
  405dfc:	1c 0b 10 00 
  405e00:	28 00 00 00 	lw $4,-32560($28)
  405e04:	d0 80 04 1c 
  405e08:	53 00 00 00 	xori $4,$4,4
  405e0c:	04 00 04 04 
  405e10:	5e 00 00 00 	sltiu $4,$4,1
  405e14:	01 00 04 04 
  405e18:	02 00 00 00 	jal 402c70 <Check_Nonzero>
  405e1c:	1c 0b 10 00 
  405e20:	28 00 00 00 	lw $4,-32556($28)
  405e24:	d4 80 04 1c 
  405e28:	53 00 00 00 	xori $4,$4,16
  405e2c:	10 00 04 04 
  405e30:	5e 00 00 00 	sltiu $4,$4,1
  405e34:	01 00 04 04 
  405e38:	02 00 00 00 	jal 402c70 <Check_Nonzero>
  405e3c:	1c 0b 10 00 
  405e40:	28 00 00 00 	lw $4,-32552($28)
  405e44:	d8 80 04 1c 
  405e48:	43 00 00 00 	addiu $16,$0,11
  405e4c:	0b 00 10 00 
  405e50:	53 00 00 00 	xori $4,$4,49
  405e54:	31 00 04 04 
  405e58:	5e 00 00 00 	sltiu $4,$4,1
  405e5c:	01 00 04 04 
  405e60:	02 00 00 00 	jal 402c70 <Check_Nonzero>
  405e64:	1c 0b 10 00 
  405e68:	43 00 00 00 	addiu $4,$0,61
  405e6c:	3d 00 04 00 
  405e70:	02 00 00 00 	jal 405ab0 <Monitor_Health>
  405e74:	ac 16 10 00 
  405e78:	43 00 00 00 	addiu $16,$16,1
  405e7c:	01 00 10 10 
  405e80:	5c 00 00 00 	slti $2,$16,181
  405e84:	b5 00 02 10 
  405e88:	06 00 00 00 	bne $2,$0,405e68 <Monitoring_Task_Tests+0x2c0>
  405e8c:	f6 ff 00 02 
  405e90:	28 00 00 00 	lw $4,-32540($28)
  405e94:	e4 80 04 1c 
  405e98:	53 00 00 00 	xori $4,$4,9
  405e9c:	09 00 04 04 
  405ea0:	5e 00 00 00 	sltiu $4,$4,1
  405ea4:	01 00 04 04 
  405ea8:	02 00 00 00 	jal 402c70 <Check_Nonzero>
  405eac:	1c 0b 10 00 
  405eb0:	28 00 00 00 	lw $4,-32560($28)
  405eb4:	d0 80 04 1c 
  405eb8:	53 00 00 00 	xori $4,$4,5
  405ebc:	05 00 04 04 
  405ec0:	5e 00 00 00 	sltiu $4,$4,1
  405ec4:	01 00 04 04 
  405ec8:	02 00 00 00 	jal 402c70 <Check_Nonzero>
  405ecc:	1c 0b 10 00 
  405ed0:	28 00 00 00 	lw $4,-32556($28)
  405ed4:	d4 80 04 1c 
  405ed8:	53 00 00 00 	xori $4,$4,17
  405edc:	11 00 04 04 
  405ee0:	5e 00 00 00 	sltiu $4,$4,1
  405ee4:	01 00 04 04 
  405ee8:	02 00 00 00 	jal 402c70 <Check_Nonzero>
  405eec:	1c 0b 10 00 
  405ef0:	28 00 00 00 	lw $4,-32552($28)
  405ef4:	d8 80 04 1c 
  405ef8:	43 00 00 00 	addiu $16,$0,1
  405efc:	01 00 10 00 
  405f00:	43 00 00 00 	addiu $17,$0,1
  405f04:	01 00 11 00 
  405f08:	53 00 00 00 	xori $4,$4,59
  405f0c:	3b 00 04 04 
  405f10:	5e 00 00 00 	sltiu $4,$4,1
  405f14:	01 00 04 04 
  405f18:	02 00 00 00 	jal 402c70 <Check_Nonzero>
  405f1c:	1c 0b 10 00 
  405f20:	02 00 00 00 	jal 402cd0 <Check_No_Errors>
  405f24:	34 0b 10 00 
  405f28:	a2 00 00 00 	lui $4,4096
  405f2c:	00 10 04 00 
  405f30:	43 00 00 00 	addiu $4,$4,1772
  405f34:	ec 06 04 04 
  405f38:	a2 00 00 00 	lui $5,4096
  405f3c:	00 10 05 00 
  405f40:	43 00 00 00 	addiu $5,$5,3468
  405f44:	8c 0d 05 05 
  405f48:	02 00 00 00 	jal 410990 <printf>
  405f4c:	64 42 10 00 
  405f50:	34 00 00 00 	sw $0,-32668($28)
  405f54:	64 80 00 1c 
  405f58:	34 00 00 00 	sw $17,-32676($28)
  405f5c:	5c 80 11 1c 
  405f60:	43 00 00 00 	addiu $4,$0,62
  405f64:	3e 00 04 00 
  405f68:	02 00 00 00 	jal 405ab0 <Monitor_Health>
  405f6c:	ac 16 10 00 
  405f70:	43 00 00 00 	addiu $16,$16,1
  405f74:	01 00 10 10 
  405f78:	5c 00 00 00 	slti $2,$16,181
  405f7c:	b5 00 02 10 
  405f80:	06 00 00 00 	bne $2,$0,405f58 <Monitoring_Task_Tests+0x3b0>
  405f84:	f4 ff 00 02 
  405f88:	28 00 00 00 	lw $5,-32668($28)
  405f8c:	64 80 05 1c 
  405f90:	a2 00 00 00 	lui $4,4096
  405f94:	00 10 04 00 
  405f98:	43 00 00 00 	addiu $4,$4,3524
  405f9c:	c4 0d 04 04 
  405fa0:	02 00 00 00 	jal 410990 <printf>
  405fa4:	64 42 10 00 
  405fa8:	28 00 00 00 	lw $4,-32668($28)
  405fac:	64 80 04 1c 
  405fb0:	02 00 00 00 	jal 402c70 <Check_Nonzero>
  405fb4:	1c 0b 10 00 
  405fb8:	28 00 00 00 	lw $4,-32540($28)
  405fbc:	e4 80 04 1c 
  405fc0:	53 00 00 00 	xori $4,$4,9
  405fc4:	09 00 04 04 
  405fc8:	5e 00 00 00 	sltiu $4,$4,1
  405fcc:	01 00 04 04 
  405fd0:	02 00 00 00 	jal 402c70 <Check_Nonzero>
  405fd4:	1c 0b 10 00 
  405fd8:	28 00 00 00 	lw $4,-32560($28)
  405fdc:	d0 80 04 1c 
  405fe0:	53 00 00 00 	xori $4,$4,5
  405fe4:	05 00 04 04 
  405fe8:	5e 00 00 00 	sltiu $4,$4,1
  405fec:	01 00 04 04 
  405ff0:	02 00 00 00 	jal 402c70 <Check_Nonzero>
  405ff4:	1c 0b 10 00 
  405ff8:	28 00 00 00 	lw $4,-32556($28)
  405ffc:	d4 80 04 1c 
  406000:	53 00 00 00 	xori $4,$4,17
  406004:	11 00 04 04 
  406008:	5e 00 00 00 	sltiu $4,$4,1
  40600c:	01 00 04 04 
  406010:	02 00 00 00 	jal 402c70 <Check_Nonzero>
  406014:	1c 0b 10 00 
  406018:	28 00 00 00 	lw $4,-32552($28)
  40601c:	d8 80 04 1c 
  406020:	43 00 00 00 	addiu $16,$0,1
  406024:	01 00 10 00 
  406028:	43 00 00 00 	addiu $17,$0,20
  40602c:	14 00 11 00 
  406030:	53 00 00 00 	xori $4,$4,59
  406034:	3b 00 04 04 
  406038:	5e 00 00 00 	sltiu $4,$4,1
  40603c:	01 00 04 04 
  406040:	02 00 00 00 	jal 402c70 <Check_Nonzero>
  406044:	1c 0b 10 00 
  406048:	02 00 00 00 	jal 402cd0 <Check_No_Errors>
  40604c:	34 0b 10 00 
  406050:	a2 00 00 00 	lui $4,4096
  406054:	00 10 04 00 
  406058:	43 00 00 00 	addiu $4,$4,1772
  40605c:	ec 06 04 04 
  406060:	a2 00 00 00 	lui $5,4096
  406064:	00 10 05 00 
  406068:	43 00 00 00 	addiu $5,$5,3540
  40606c:	d4 0d 05 05 
  406070:	02 00 00 00 	jal 410990 <printf>
  406074:	64 42 10 00 
  406078:	34 00 00 00 	sw $0,-32668($28)
  40607c:	64 80 00 1c 
  406080:	34 00 00 00 	sw $17,-32676($28)
  406084:	5c 80 11 1c 
  406088:	43 00 00 00 	addiu $4,$0,63
  40608c:	3f 00 04 00 
  406090:	02 00 00 00 	jal 405ab0 <Monitor_Health>
  406094:	ac 16 10 00 
  406098:	43 00 00 00 	addiu $16,$16,1
  40609c:	01 00 10 10 
  4060a0:	5c 00 00 00 	slti $2,$16,181
  4060a4:	b5 00 02 10 
  4060a8:	06 00 00 00 	bne $2,$0,406080 <Monitoring_Task_Tests+0x4d8>
  4060ac:	f4 ff 00 02 
  4060b0:	28 00 00 00 	lw $5,-32668($28)
  4060b4:	64 80 05 1c 
  4060b8:	a2 00 00 00 	lui $4,4096
  4060bc:	00 10 04 00 
  4060c0:	43 00 00 00 	addiu $4,$4,3524
  4060c4:	c4 0d 04 04 
  4060c8:	02 00 00 00 	jal 410990 <printf>
  4060cc:	64 42 10 00 
  4060d0:	28 00 00 00 	lw $4,-32668($28)
  4060d4:	64 80 04 1c 
  4060d8:	02 00 00 00 	jal 402c70 <Check_Nonzero>
  4060dc:	1c 0b 10 00 
  4060e0:	28 00 00 00 	lw $4,-32540($28)
  4060e4:	e4 80 04 1c 
  4060e8:	53 00 00 00 	xori $4,$4,9
  4060ec:	09 00 04 04 
  4060f0:	5e 00 00 00 	sltiu $4,$4,1
  4060f4:	01 00 04 04 
  4060f8:	02 00 00 00 	jal 402c70 <Check_Nonzero>
  4060fc:	1c 0b 10 00 
  406100:	28 00 00 00 	lw $4,-32560($28)
  406104:	d0 80 04 1c 
  406108:	42 00 00 00 	addu $17,$0,$0
  40610c:	00 11 00 00 
  406110:	53 00 00 00 	xori $4,$4,5
  406114:	05 00 04 04 
  406118:	5e 00 00 00 	sltiu $4,$4,1
  40611c:	01 00 04 04 
  406120:	02 00 00 00 	jal 402c70 <Check_Nonzero>
  406124:	1c 0b 10 00 
  406128:	28 00 00 00 	lw $4,-32556($28)
  40612c:	d4 80 04 1c 
  406130:	43 00 00 00 	addiu $21,$0,4
  406134:	04 00 15 00 
  406138:	43 00 00 00 	addiu $20,$0,5
  40613c:	05 00 14 00 
  406140:	53 00 00 00 	xori $4,$4,17
  406144:	11 00 04 04 
  406148:	5e 00 00 00 	sltiu $4,$4,1
  40614c:	01 00 04 04 
  406150:	02 00 00 00 	jal 402c70 <Check_Nonzero>
  406154:	1c 0b 10 00 
  406158:	28 00 00 00 	lw $4,-32552($28)
  40615c:	d8 80 04 1c 
  406160:	43 00 00 00 	addiu $3,$0,20
  406164:	14 00 03 00 
  406168:	43 00 00 00 	addiu $18,$3,-1
  40616c:	ff ff 12 03 
  406170:	43 00 00 00 	addiu $19,$0,1
  406174:	01 00 13 00 
  406178:	53 00 00 00 	xori $4,$4,59
  40617c:	3b 00 04 04 
  406180:	5e 00 00 00 	sltiu $4,$4,1
  406184:	01 00 04 04 
  406188:	02 00 00 00 	jal 402c70 <Check_Nonzero>
  40618c:	1c 0b 10 00 
  406190:	02 00 00 00 	jal 402cd0 <Check_No_Errors>
  406194:	34 0b 10 00 
  406198:	a2 00 00 00 	lui $4,4096
  40619c:	00 10 04 00 
  4061a0:	43 00 00 00 	addiu $4,$4,1772
  4061a4:	ec 06 04 04 
  4061a8:	a2 00 00 00 	lui $5,4096
  4061ac:	00 10 05 00 
  4061b0:	43 00 00 00 	addiu $5,$5,3592
  4061b4:	08 0e 05 05 
  4061b8:	02 00 00 00 	jal 410990 <printf>
  4061bc:	64 42 10 00 
  4061c0:	02 00 00 00 	jal 401860 <Set_AD_Unlimited>
  4061c4:	18 06 10 00 
  4061c8:	34 00 00 00 	sw $0,-32676($28)
  4061cc:	5c 80 00 1c 
  4061d0:	06 00 00 00 	bne $17,$21,4061e0 <Monitoring_Task_Tests+0x638>
  4061d4:	02 00 15 11 
  4061d8:	34 00 00 00 	sw $20,-32712($28)
  4061dc:	38 80 14 1c 
  4061e0:	06 00 00 00 	bne $17,$18,4061f0 <Monitoring_Task_Tests+0x648>
  4061e4:	02 00 12 11 
  4061e8:	34 00 00 00 	sw $19,-32596($28)
  4061ec:	ac 80 13 1c 
  4061f0:	43 00 00 00 	addiu $16,$0,1
  4061f4:	01 00 10 00 
  4061f8:	43 00 00 00 	addiu $4,$0,64
  4061fc:	40 00 04 00 
  406200:	02 00 00 00 	jal 405ab0 <Monitor_Health>
  406204:	ac 16 10 00 
  406208:	43 00 00 00 	addiu $16,$16,1
  40620c:	01 00 10 10 
  406210:	5c 00 00 00 	slti $2,$16,181
  406214:	b5 00 02 10 
  406218:	06 00 00 00 	bne $2,$0,4061f8 <Monitoring_Task_Tests+0x650>
  40621c:	f6 ff 00 02 
  406220:	a2 00 00 00 	lui $6,4098
  406224:	02 10 06 00 
  406228:	22 00 00 00 	lbu $6,-14576($6)
  40622c:	10 c7 06 06 
  406230:	05 00 00 00 	beq $6,$0,406268 <Monitoring_Task_Tests+0x6c0>
  406234:	0c 00 00 06 
  406238:	43 00 00 00 	addiu $17,$17,1
  40623c:	01 00 11 11 
  406240:	a2 00 00 00 	lui $4,4096
  406244:	00 10 04 00 
  406248:	43 00 00 00 	addiu $4,$4,3640
  40624c:	38 0e 04 04 
  406250:	42 00 00 00 	addu $5,$0,$17
  406254:	00 05 11 00 
  406258:	02 00 00 00 	jal 410990 <printf>
  40625c:	64 42 10 00 
  406260:	02 00 00 00 	jal 403c70 <Clear_Errors>
  406264:	1c 0f 10 00 
  406268:	5c 00 00 00 	slti $2,$17,20
  40626c:	14 00 02 11 
  406270:	06 00 00 00 	bne $2,$0,4061d0 <Monitoring_Task_Tests+0x628>
  406274:	d6 ff 00 02 
  406278:	02 00 00 00 	jal 402cd0 <Check_No_Errors>
  40627c:	34 0b 10 00 
  406280:	a2 00 00 00 	lui $4,4096
  406284:	00 10 04 00 
  406288:	43 00 00 00 	addiu $4,$4,1772
  40628c:	ec 06 04 04 
  406290:	a2 00 00 00 	lui $5,4096
  406294:	00 10 05 00 
  406298:	43 00 00 00 	addiu $5,$5,3684
  40629c:	64 0e 05 05 
  4062a0:	02 00 00 00 	jal 410990 <printf>
  4062a4:	64 42 10 00 
  4062a8:	02 00 00 00 	jal 401860 <Set_AD_Unlimited>
  4062ac:	18 06 10 00 
  4062b0:	42 00 00 00 	addu $17,$0,$0
  4062b4:	00 11 00 00 
  4062b8:	43 00 00 00 	addiu $30,$0,4
  4062bc:	04 00 1e 00 
  4062c0:	43 00 00 00 	addiu $23,$0,5
  4062c4:	05 00 17 00 
  4062c8:	43 00 00 00 	addiu $3,$0,20
  4062cc:	14 00 03 00 
  4062d0:	43 00 00 00 	addiu $21,$3,-1
  4062d4:	ff ff 15 03 
  4062d8:	43 00 00 00 	addiu $22,$0,1
  4062dc:	01 00 16 00 
  4062e0:	43 00 00 00 	addiu $20,$0,20
  4062e4:	14 00 14 00 
  4062e8:	43 00 00 00 	addiu $19,$0,2
  4062ec:	02 00 13 00 
  4062f0:	06 00 00 00 	bne $17,$30,406300 <Monitoring_Task_Tests+0x758>
  4062f4:	02 00 1e 11 
  4062f8:	34 00 00 00 	sw $23,-32712($28)
  4062fc:	38 80 17 1c 
  406300:	06 00 00 00 	bne $17,$21,406310 <Monitoring_Task_Tests+0x768>
  406304:	02 00 15 11 
  406308:	34 00 00 00 	sw $22,-32596($28)
  40630c:	ac 80 16 1c 
  406310:	43 00 00 00 	addiu $16,$0,1
  406314:	01 00 10 00 
  406318:	55 00 00 00 	sll $18,$17,0x1
  40631c:	01 12 11 00 
  406320:	34 00 00 00 	sw $20,-32676($28)
  406324:	5c 80 14 1c 
  406328:	5b 00 00 00 	slt $2,$18,$16
  40632c:	00 02 10 12 
  406330:	05 00 00 00 	beq $2,$0,406340 <Monitoring_Task_Tests+0x798>
  406334:	02 00 00 02 
  406338:	34 00 00 00 	sw $19,-32664($28)
  40633c:	68 80 13 1c 
  406340:	43 00 00 00 	addiu $4,$0,65
  406344:	41 00 04 00 
  406348:	02 00 00 00 	jal 405ab0 <Monitor_Health>
  40634c:	ac 16 10 00 
  406350:	43 00 00 00 	addiu $16,$16,1
  406354:	01 00 10 10 
  406358:	5c 00 00 00 	slti $2,$16,181
  40635c:	b5 00 02 10 
  406360:	06 00 00 00 	bne $2,$0,406320 <Monitoring_Task_Tests+0x778>
  406364:	ee ff 00 02 
  406368:	a2 00 00 00 	lui $6,4098
  40636c:	02 10 06 00 
  406370:	22 00 00 00 	lbu $6,-14576($6)
  406374:	10 c7 06 06 
  406378:	05 00 00 00 	beq $6,$0,4063b0 <Monitoring_Task_Tests+0x808>
  40637c:	0c 00 00 06 
  406380:	43 00 00 00 	addiu $17,$17,1
  406384:	01 00 11 11 
  406388:	a2 00 00 00 	lui $4,4096
  40638c:	00 10 04 00 
  406390:	43 00 00 00 	addiu $4,$4,3740
  406394:	9c 0e 04 04 
  406398:	42 00 00 00 	addu $5,$0,$17
  40639c:	00 05 11 00 
  4063a0:	02 00 00 00 	jal 410990 <printf>
  4063a4:	64 42 10 00 
  4063a8:	02 00 00 00 	jal 403c70 <Clear_Errors>
  4063ac:	1c 0f 10 00 
  4063b0:	5c 00 00 00 	slti $2,$17,20
  4063b4:	14 00 02 11 
  4063b8:	06 00 00 00 	bne $2,$0,4062f0 <Monitoring_Task_Tests+0x748>
  4063bc:	cc ff 00 02 
  4063c0:	02 00 00 00 	jal 402cd0 <Check_No_Errors>
  4063c4:	34 0b 10 00 
  4063c8:	28 00 00 00 	lw $31,52($29)
  4063cc:	34 00 1f 1d 
  4063d0:	28 00 00 00 	lw $30,48($29)
  4063d4:	30 00 1e 1d 
  4063d8:	28 00 00 00 	lw $23,44($29)
  4063dc:	2c 00 17 1d 
  4063e0:	28 00 00 00 	lw $22,40($29)
  4063e4:	28 00 16 1d 
  4063e8:	28 00 00 00 	lw $21,36($29)
  4063ec:	24 00 15 1d 
  4063f0:	28 00 00 00 	lw $20,32($29)
  4063f4:	20 00 14 1d 
  4063f8:	28 00 00 00 	lw $19,28($29)
  4063fc:	1c 00 13 1d 
  406400:	28 00 00 00 	lw $18,24($29)
  406404:	18 00 12 1d 
  406408:	28 00 00 00 	lw $17,20($29)
  40640c:	14 00 11 1d 
  406410:	28 00 00 00 	lw $16,16($29)
  406414:	10 00 10 1d 
  406418:	43 00 00 00 	addiu $29,$29,56
  40641c:	38 00 1d 1d 
  406420:	03 00 00 00 	jr $31
  406424:	00 00 00 1f 

00406428 <TM_Tests>:
  406428:	43 00 00 00 	addiu $29,$29,-32
  40642c:	e0 ff 1d 1d 
  406430:	a2 00 00 00 	lui $4,4096
  406434:	00 10 04 00 
  406438:	43 00 00 00 	addiu $4,$4,3784
  40643c:	c8 0e 04 04 
  406440:	34 00 00 00 	sw $31,28($29)
  406444:	1c 00 1f 1d 
  406448:	34 00 00 00 	sw $18,24($29)
  40644c:	18 00 12 1d 
  406450:	34 00 00 00 	sw $17,20($29)
  406454:	14 00 11 1d 
  406458:	34 00 00 00 	sw $16,16($29)
  40645c:	10 00 10 1d 
  406460:	02 00 00 00 	jal 410990 <printf>
  406464:	64 42 10 00 
  406468:	a2 00 00 00 	lui $4,4096
  40646c:	00 10 04 00 
  406470:	43 00 00 00 	addiu $4,$4,1772
  406474:	ec 06 04 04 
  406478:	a2 00 00 00 	lui $5,4096
  40647c:	00 10 05 00 
  406480:	43 00 00 00 	addiu $5,$5,3800
  406484:	d8 0e 05 05 
  406488:	02 00 00 00 	jal 410990 <printf>
  40648c:	64 42 10 00 
  406490:	43 00 00 00 	addiu $4,$0,5
  406494:	05 00 04 00 
  406498:	42 00 00 00 	addu $5,$0,$0
  40649c:	00 05 00 00 
  4064a0:	02 00 00 00 	jal 402dc0 <Send_TC>
  4064a4:	70 0b 10 00 
  4064a8:	02 00 00 00 	jal 402cd0 <Check_No_Errors>
  4064ac:	34 0b 10 00 
  4064b0:	28 00 00 00 	lw $4,-32012($28)
  4064b4:	f4 82 04 1c 
  4064b8:	42 00 00 00 	addu $17,$0,$0
  4064bc:	00 11 00 00 
  4064c0:	53 00 00 00 	xori $4,$4,5
  4064c4:	05 00 04 04 
  4064c8:	5e 00 00 00 	sltiu $4,$4,1
  4064cc:	01 00 04 04 
  4064d0:	02 00 00 00 	jal 402c70 <Check_Nonzero>
  4064d4:	1c 0b 10 00 
  4064d8:	43 00 00 00 	addiu $4,$0,41
  4064dc:	29 00 04 00 
  4064e0:	02 00 00 00 	jal 403528 <Handle_TC>
  4064e4:	4a 0d 10 00 
  4064e8:	28 00 00 00 	lw $4,-32012($28)
  4064ec:	f4 82 04 1c 
  4064f0:	a2 00 00 00 	lui $18,4098
  4064f4:	02 10 12 00 
  4064f8:	43 00 00 00 	addiu $18,$18,-14468
  4064fc:	7c c7 12 12 
  406500:	a2 00 00 00 	lui $16,4096
  406504:	00 10 10 00 
  406508:	43 00 00 00 	addiu $16,$16,1740
  40650c:	cc 06 10 10 
  406510:	53 00 00 00 	xori $4,$4,5
  406514:	05 00 04 04 
  406518:	5e 00 00 00 	sltiu $4,$4,1
  40651c:	01 00 04 04 
  406520:	02 00 00 00 	jal 402c70 <Check_Nonzero>
  406524:	1c 0b 10 00 
  406528:	28 00 00 00 	lw $2,-31972($28)
  40652c:	1c 83 02 1c 
  406530:	05 00 00 00 	beq $2,$18,406568 <TM_Tests+0x140>
  406534:	0c 00 12 02 
  406538:	42 00 00 00 	addu $4,$0,$16
  40653c:	00 04 10 00 
  406540:	43 00 00 00 	addiu $5,$0,3
  406544:	03 00 05 00 
  406548:	02 00 00 00 	jal 410990 <printf>
  40654c:	64 42 10 00 
  406550:	42 00 00 00 	addu $4,$0,$16
  406554:	00 04 10 00 
  406558:	43 00 00 00 	addiu $5,$0,21
  40655c:	15 00 05 00 
  406560:	01 00 00 00 	j 406590 <TM_Tests+0x168>
  406564:	64 19 10 00 
  406568:	42 00 00 00 	addu $4,$0,$16
  40656c:	00 04 10 00 
  406570:	43 00 00 00 	addiu $5,$0,3
  406574:	03 00 05 00 
  406578:	02 00 00 00 	jal 410990 <printf>
  40657c:	64 42 10 00 
  406580:	42 00 00 00 	addu $4,$0,$16
  406584:	00 04 10 00 
  406588:	43 00 00 00 	addiu $5,$0,22
  40658c:	16 00 05 00 
  406590:	02 00 00 00 	jal 410990 <printf>
  406594:	64 42 10 00 
  406598:	02 00 00 00 	jal 40fda8 <TM_InterruptService>
  40659c:	6a 3f 10 00 
  4065a0:	42 00 00 00 	addu $4,$0,$16
  4065a4:	00 04 10 00 
  4065a8:	43 00 00 00 	addiu $5,$0,3
  4065ac:	03 00 05 00 
  4065b0:	02 00 00 00 	jal 410990 <printf>
  4065b4:	64 42 10 00 
  4065b8:	42 00 00 00 	addu $4,$0,$16
  4065bc:	00 04 10 00 
  4065c0:	42 00 00 00 	addu $5,$0,$0
  4065c4:	00 05 00 00 
  4065c8:	02 00 00 00 	jal 410990 <printf>
  4065cc:	64 42 10 00 
  4065d0:	28 00 00 00 	lw $4,-32012($28)
  4065d4:	f4 82 04 1c 
  4065d8:	43 00 00 00 	addiu $17,$17,2
  4065dc:	02 00 11 11 
  4065e0:	53 00 00 00 	xori $4,$4,5
  4065e4:	05 00 04 04 
  4065e8:	5e 00 00 00 	sltiu $4,$4,1
  4065ec:	01 00 04 04 
  4065f0:	02 00 00 00 	jal 402c70 <Check_Nonzero>
  4065f4:	1c 0b 10 00 
  4065f8:	5e 00 00 00 	sltiu $2,$17,120
  4065fc:	78 00 02 11 
  406600:	06 00 00 00 	bne $2,$0,406528 <TM_Tests+0x100>
  406604:	c8 ff 00 02 
  406608:	a2 00 00 00 	lui $4,4096
  40660c:	00 10 04 00 
  406610:	43 00 00 00 	addiu $4,$4,1772
  406614:	ec 06 04 04 
  406618:	a2 00 00 00 	lui $5,4096
  40661c:	00 10 05 00 
  406620:	43 00 00 00 	addiu $5,$5,3832
  406624:	f8 0e 05 05 
  406628:	02 00 00 00 	jal 410990 <printf>
  40662c:	64 42 10 00 
  406630:	43 00 00 00 	addiu $4,$0,5
  406634:	05 00 04 00 
  406638:	43 00 00 00 	addiu $5,$0,22
  40663c:	16 00 05 00 
  406640:	02 00 00 00 	jal 402dc0 <Send_TC>
  406644:	70 0b 10 00 
  406648:	02 00 00 00 	jal 402cd0 <Check_No_Errors>
  40664c:	34 0b 10 00 
  406650:	28 00 00 00 	lw $4,-32012($28)
  406654:	f4 82 04 1c 
  406658:	42 00 00 00 	addu $17,$0,$0
  40665c:	00 11 00 00 
  406660:	53 00 00 00 	xori $4,$4,5
  406664:	05 00 04 04 
  406668:	5e 00 00 00 	sltiu $4,$4,1
  40666c:	01 00 04 04 
  406670:	02 00 00 00 	jal 402c70 <Check_Nonzero>
  406674:	1c 0b 10 00 
  406678:	43 00 00 00 	addiu $4,$0,41
  40667c:	29 00 04 00 
  406680:	02 00 00 00 	jal 403528 <Handle_TC>
  406684:	4a 0d 10 00 
  406688:	28 00 00 00 	lw $4,-32012($28)
  40668c:	f4 82 04 1c 
  406690:	a2 00 00 00 	lui $18,4098
  406694:	02 10 12 00 
  406698:	43 00 00 00 	addiu $18,$18,-14468
  40669c:	7c c7 12 12 
  4066a0:	a2 00 00 00 	lui $16,4096
  4066a4:	00 10 10 00 
  4066a8:	43 00 00 00 	addiu $16,$16,1740
  4066ac:	cc 06 10 10 
  4066b0:	53 00 00 00 	xori $4,$4,5
  4066b4:	05 00 04 04 
  4066b8:	5e 00 00 00 	sltiu $4,$4,1
  4066bc:	01 00 04 04 
  4066c0:	02 00 00 00 	jal 402c70 <Check_Nonzero>
  4066c4:	1c 0b 10 00 
  4066c8:	28 00 00 00 	lw $2,-31972($28)
  4066cc:	1c 83 02 1c 
  4066d0:	05 00 00 00 	beq $2,$18,406708 <TM_Tests+0x2e0>
  4066d4:	0c 00 12 02 
  4066d8:	42 00 00 00 	addu $4,$0,$16
  4066dc:	00 04 10 00 
  4066e0:	43 00 00 00 	addiu $5,$0,3
  4066e4:	03 00 05 00 
  4066e8:	02 00 00 00 	jal 410990 <printf>
  4066ec:	64 42 10 00 
  4066f0:	42 00 00 00 	addu $4,$0,$16
  4066f4:	00 04 10 00 
  4066f8:	43 00 00 00 	addiu $5,$0,21
  4066fc:	15 00 05 00 
  406700:	01 00 00 00 	j 406730 <TM_Tests+0x308>
  406704:	cc 19 10 00 
  406708:	42 00 00 00 	addu $4,$0,$16
  40670c:	00 04 10 00 
  406710:	43 00 00 00 	addiu $5,$0,3
  406714:	03 00 05 00 
  406718:	02 00 00 00 	jal 410990 <printf>
  40671c:	64 42 10 00 
  406720:	42 00 00 00 	addu $4,$0,$16
  406724:	00 04 10 00 
  406728:	43 00 00 00 	addiu $5,$0,22
  40672c:	16 00 05 00 
  406730:	02 00 00 00 	jal 410990 <printf>
  406734:	64 42 10 00 
  406738:	02 00 00 00 	jal 40fda8 <TM_InterruptService>
  40673c:	6a 3f 10 00 
  406740:	42 00 00 00 	addu $4,$0,$16
  406744:	00 04 10 00 
  406748:	43 00 00 00 	addiu $5,$0,3
  40674c:	03 00 05 00 
  406750:	02 00 00 00 	jal 410990 <printf>
  406754:	64 42 10 00 
  406758:	42 00 00 00 	addu $4,$0,$16
  40675c:	00 04 10 00 
  406760:	42 00 00 00 	addu $5,$0,$0
  406764:	00 05 00 00 
  406768:	02 00 00 00 	jal 410990 <printf>
  40676c:	64 42 10 00 
  406770:	28 00 00 00 	lw $4,-32012($28)
  406774:	f4 82 04 1c 
  406778:	43 00 00 00 	addiu $17,$17,2
  40677c:	02 00 11 11 
  406780:	53 00 00 00 	xori $4,$4,5
  406784:	05 00 04 04 
  406788:	5e 00 00 00 	sltiu $4,$4,1
  40678c:	01 00 04 04 
  406790:	02 00 00 00 	jal 402c70 <Check_Nonzero>
  406794:	1c 0b 10 00 
  406798:	5c 00 00 00 	slti $2,$17,40
  40679c:	28 00 02 11 
  4067a0:	06 00 00 00 	bne $2,$0,4066c8 <TM_Tests+0x2a0>
  4067a4:	c8 ff 00 02 
  4067a8:	43 00 00 00 	addiu $4,$0,3
  4067ac:	03 00 04 00 
  4067b0:	43 00 00 00 	addiu $5,$0,3
  4067b4:	03 00 05 00 
  4067b8:	02 00 00 00 	jal 402dc0 <Send_TC>
  4067bc:	70 0b 10 00 
  4067c0:	28 00 00 00 	lw $4,-32012($28)
  4067c4:	f4 82 04 1c 
  4067c8:	5e 00 00 00 	sltiu $4,$4,1
  4067cc:	01 00 04 04 
  4067d0:	02 00 00 00 	jal 402c70 <Check_Nonzero>
  4067d4:	1c 0b 10 00 
  4067d8:	43 00 00 00 	addiu $4,$0,41
  4067dc:	29 00 04 00 
  4067e0:	02 00 00 00 	jal 403528 <Handle_TC>
  4067e4:	4a 0d 10 00 
  4067e8:	02 00 00 00 	jal 402cd0 <Check_No_Errors>
  4067ec:	34 0b 10 00 
  4067f0:	a2 00 00 00 	lui $4,4096
  4067f4:	00 10 04 00 
  4067f8:	43 00 00 00 	addiu $4,$4,1772
  4067fc:	ec 06 04 04 
  406800:	a2 00 00 00 	lui $5,4096
  406804:	00 10 05 00 
  406808:	43 00 00 00 	addiu $5,$5,3864
  40680c:	18 0f 05 05 
  406810:	02 00 00 00 	jal 410990 <printf>
  406814:	64 42 10 00 
  406818:	43 00 00 00 	addiu $4,$0,6
  40681c:	06 00 04 00 
  406820:	43 00 00 00 	addiu $5,$0,6
  406824:	06 00 05 00 
  406828:	02 00 00 00 	jal 402dc0 <Send_TC>
  40682c:	70 0b 10 00 
  406830:	02 00 00 00 	jal 402cd0 <Check_No_Errors>
  406834:	34 0b 10 00 
  406838:	28 00 00 00 	lw $4,-32012($28)
  40683c:	f4 82 04 1c 
  406840:	53 00 00 00 	xori $4,$4,6
  406844:	06 00 04 04 
  406848:	5e 00 00 00 	sltiu $4,$4,1
  40684c:	01 00 04 04 
  406850:	02 00 00 00 	jal 402c70 <Check_Nonzero>
  406854:	1c 0b 10 00 
  406858:	43 00 00 00 	addiu $4,$0,41
  40685c:	29 00 04 00 
  406860:	02 00 00 00 	jal 403528 <Handle_TC>
  406864:	4a 0d 10 00 
  406868:	28 00 00 00 	lw $4,-32012($28)
  40686c:	f4 82 04 1c 
  406870:	53 00 00 00 	xori $4,$4,6
  406874:	06 00 04 04 
  406878:	5e 00 00 00 	sltiu $4,$4,1
  40687c:	01 00 04 04 
  406880:	02 00 00 00 	jal 402c70 <Check_Nonzero>
  406884:	1c 0b 10 00 
  406888:	a2 00 00 00 	lui $2,4096
  40688c:	00 10 02 00 
  406890:	28 00 00 00 	lw $2,11424($2)
  406894:	a0 2c 02 02 
  406898:	42 00 00 00 	addu $17,$0,$0
  40689c:	00 11 00 00 
  4068a0:	06 00 00 00 	bne $2,$0,4069b0 <TM_Tests+0x588>
  4068a4:	42 00 00 02 
  4068a8:	a2 00 00 00 	lui $16,4096
  4068ac:	00 10 10 00 
  4068b0:	43 00 00 00 	addiu $16,$16,1740
  4068b4:	cc 06 10 10 
  4068b8:	28 00 00 00 	lw $2,-31972($28)
  4068bc:	1c 83 02 1c 
  4068c0:	28 00 00 00 	lw $3,-31984($28)
  4068c4:	10 83 03 1c 
  4068c8:	5d 00 00 00 	sltu $2,$2,$3
  4068cc:	00 02 03 02 
  4068d0:	05 00 00 00 	beq $2,$0,406908 <TM_Tests+0x4e0>
  4068d4:	0c 00 00 02 
  4068d8:	42 00 00 00 	addu $4,$0,$16
  4068dc:	00 04 10 00 
  4068e0:	43 00 00 00 	addiu $5,$0,3
  4068e4:	03 00 05 00 
  4068e8:	02 00 00 00 	jal 410990 <printf>
  4068ec:	64 42 10 00 
  4068f0:	42 00 00 00 	addu $4,$0,$16
  4068f4:	00 04 10 00 
  4068f8:	43 00 00 00 	addiu $5,$0,21
  4068fc:	15 00 05 00 
  406900:	01 00 00 00 	j 406930 <TM_Tests+0x508>
  406904:	4c 1a 10 00 
  406908:	42 00 00 00 	addu $4,$0,$16
  40690c:	00 04 10 00 
  406910:	43 00 00 00 	addiu $5,$0,3
  406914:	03 00 05 00 
  406918:	02 00 00 00 	jal 410990 <printf>
  40691c:	64 42 10 00 
  406920:	42 00 00 00 	addu $4,$0,$16
  406924:	00 04 10 00 
  406928:	43 00 00 00 	addiu $5,$0,23
  40692c:	17 00 05 00 
  406930:	02 00 00 00 	jal 410990 <printf>
  406934:	64 42 10 00 
  406938:	02 00 00 00 	jal 40fda8 <TM_InterruptService>
  40693c:	6a 3f 10 00 
  406940:	42 00 00 00 	addu $4,$0,$16
  406944:	00 04 10 00 
  406948:	43 00 00 00 	addiu $5,$0,3
  40694c:	03 00 05 00 
  406950:	02 00 00 00 	jal 410990 <printf>
  406954:	64 42 10 00 
  406958:	42 00 00 00 	addu $4,$0,$16
  40695c:	00 04 10 00 
  406960:	42 00 00 00 	addu $5,$0,$0
  406964:	00 05 00 00 
  406968:	02 00 00 00 	jal 410990 <printf>
  40696c:	64 42 10 00 
  406970:	28 00 00 00 	lw $4,-32012($28)
  406974:	f4 82 04 1c 
  406978:	53 00 00 00 	xori $4,$4,6
  40697c:	06 00 04 04 
  406980:	5e 00 00 00 	sltiu $4,$4,1
  406984:	01 00 04 04 
  406988:	02 00 00 00 	jal 402c70 <Check_Nonzero>
  40698c:	1c 0b 10 00 
  406990:	a2 00 00 00 	lui $2,4096
  406994:	00 10 02 00 
  406998:	28 00 00 00 	lw $2,11424($2)
  40699c:	a0 2c 02 02 
  4069a0:	43 00 00 00 	addiu $17,$17,2
  4069a4:	02 00 11 11 
  4069a8:	05 00 00 00 	beq $2,$0,4068b8 <TM_Tests+0x490>
  4069ac:	c2 ff 00 02 
  4069b0:	a2 00 00 00 	lui $4,4096
  4069b4:	00 10 04 00 
  4069b8:	43 00 00 00 	addiu $4,$4,3880
  4069bc:	28 0f 04 04 
  4069c0:	42 00 00 00 	addu $5,$0,$17
  4069c4:	00 05 11 00 
  4069c8:	02 00 00 00 	jal 410990 <printf>
  4069cc:	64 42 10 00 
  4069d0:	43 00 00 00 	addiu $4,$0,41
  4069d4:	29 00 04 00 
  4069d8:	02 00 00 00 	jal 403528 <Handle_TC>
  4069dc:	4a 0d 10 00 
  4069e0:	28 00 00 00 	lw $4,-32012($28)
  4069e4:	f4 82 04 1c 
  4069e8:	5e 00 00 00 	sltiu $4,$4,1
  4069ec:	01 00 04 04 
  4069f0:	02 00 00 00 	jal 402c70 <Check_Nonzero>
  4069f4:	1c 0b 10 00 
  4069f8:	28 00 00 00 	lw $31,28($29)
  4069fc:	1c 00 1f 1d 
  406a00:	28 00 00 00 	lw $18,24($29)
  406a04:	18 00 12 1d 
  406a08:	28 00 00 00 	lw $17,20($29)
  406a0c:	14 00 11 1d 
  406a10:	28 00 00 00 	lw $16,16($29)
  406a14:	10 00 10 1d 
  406a18:	43 00 00 00 	addiu $29,$29,32
  406a1c:	20 00 1d 1d 
  406a20:	03 00 00 00 	jr $31
  406a24:	00 00 00 1f 

00406a28 <Trigger_Hit>:
  406a28:	43 00 00 00 	addiu $29,$29,-32
  406a2c:	e0 ff 1d 1d 
  406a30:	34 00 00 00 	sw $17,20($29)
  406a34:	14 00 11 1d 
  406a38:	42 00 00 00 	addu $17,$0,$4
  406a3c:	00 11 04 00 
  406a40:	34 00 00 00 	sw $18,24($29)
  406a44:	18 00 12 1d 
  406a48:	a2 00 00 00 	lui $18,4096
  406a4c:	00 10 12 00 
  406a50:	43 00 00 00 	addiu $18,$18,11428
  406a54:	a4 2c 12 12 
  406a58:	34 00 00 00 	sw $31,28($29)
  406a5c:	1c 00 1f 1d 
  406a60:	34 00 00 00 	sw $16,16($29)
  406a64:	10 00 10 1d 
  406a68:	28 00 00 00 	lw $4,0($18)
  406a6c:	00 00 04 12 
  406a70:	5e 00 00 00 	sltiu $4,$4,1
  406a74:	01 00 04 04 
  406a78:	02 00 00 00 	jal 402c70 <Check_Nonzero>
  406a7c:	1c 0b 10 00 
  406a80:	43 00 00 00 	addiu $4,$28,-32584
  406a84:	b8 80 04 1c 
  406a88:	02 00 00 00 	jal 410990 <printf>
  406a8c:	64 42 10 00 
  406a90:	a2 00 00 00 	lui $16,4096
  406a94:	00 10 10 00 
  406a98:	43 00 00 00 	addiu $16,$16,1740
  406a9c:	cc 06 10 10 
  406aa0:	42 00 00 00 	addu $4,$0,$16
  406aa4:	00 04 10 00 
  406aa8:	43 00 00 00 	addiu $5,$0,3
  406aac:	03 00 05 00 
  406ab0:	02 00 00 00 	jal 410990 <printf>
  406ab4:	64 42 10 00 
  406ab8:	42 00 00 00 	addu $4,$0,$16
  406abc:	00 04 10 00 
  406ac0:	42 00 00 00 	addu $5,$0,$17
  406ac4:	00 05 11 00 
  406ac8:	02 00 00 00 	jal 410990 <printf>
  406acc:	64 42 10 00 
  406ad0:	02 00 00 00 	jal 40cc00 <HandleHitTrigger>
  406ad4:	00 33 10 00 
  406ad8:	42 00 00 00 	addu $4,$0,$16
  406adc:	00 04 10 00 
  406ae0:	43 00 00 00 	addiu $5,$0,3
  406ae4:	03 00 05 00 
  406ae8:	02 00 00 00 	jal 410990 <printf>
  406aec:	64 42 10 00 
  406af0:	42 00 00 00 	addu $4,$0,$16
  406af4:	00 04 10 00 
  406af8:	42 00 00 00 	addu $5,$0,$0
  406afc:	00 05 00 00 
  406b00:	02 00 00 00 	jal 410990 <printf>
  406b04:	64 42 10 00 
  406b08:	28 00 00 00 	lw $2,0($18)
  406b0c:	00 00 02 12 
  406b10:	a2 00 00 00 	lui $4,4096
  406b14:	00 10 04 00 
  406b18:	43 00 00 00 	addiu $4,$4,3924
  406b1c:	54 0f 04 04 
  406b20:	06 00 00 00 	bne $2,$0,406b38 <Trigger_Hit+0x110>
  406b24:	04 00 00 02 
  406b28:	a2 00 00 00 	lui $4,4096
  406b2c:	00 10 04 00 
  406b30:	43 00 00 00 	addiu $4,$4,3908
  406b34:	44 0f 04 04 
  406b38:	02 00 00 00 	jal 410990 <printf>
  406b3c:	64 42 10 00 
  406b40:	28 00 00 00 	lw $31,28($29)
  406b44:	1c 00 1f 1d 
  406b48:	28 00 00 00 	lw $18,24($29)
  406b4c:	18 00 12 1d 
  406b50:	28 00 00 00 	lw $17,20($29)
  406b54:	14 00 11 1d 
  406b58:	28 00 00 00 	lw $16,16($29)
  406b5c:	10 00 10 1d 
  406b60:	43 00 00 00 	addiu $29,$29,32
  406b64:	20 00 1d 1d 
  406b68:	03 00 00 00 	jr $31
  406b6c:	00 00 00 1f 

00406b70 <Trigger_SU_Hit>:
  406b70:	43 00 00 00 	addiu $29,$29,-24
  406b74:	e8 ff 1d 1d 
  406b78:	34 00 00 00 	sw $16,16($29)
  406b7c:	10 00 10 1d 
  406b80:	42 00 00 00 	addu $16,$0,$5
  406b84:	00 10 05 00 
  406b88:	34 00 00 00 	sw $31,20($29)
  406b8c:	14 00 1f 1d 
  406b90:	02 00 00 00 	jal 402520 <Set_Trigger_SU>
  406b94:	48 09 10 00 
  406b98:	42 00 00 00 	addu $4,$0,$16
  406b9c:	00 04 10 00 
  406ba0:	02 00 00 00 	jal 406a28 <Trigger_Hit>
  406ba4:	8a 1a 10 00 
  406ba8:	28 00 00 00 	lw $31,20($29)
  406bac:	14 00 1f 1d 
  406bb0:	28 00 00 00 	lw $16,16($29)
  406bb4:	10 00 10 1d 
  406bb8:	43 00 00 00 	addiu $29,$29,24
  406bbc:	18 00 1d 1d 
  406bc0:	03 00 00 00 	jr $31
  406bc4:	00 00 00 1f 

00406bc8 <Acquire_Hit>:
  406bc8:	43 00 00 00 	addiu $29,$29,-32
  406bcc:	e0 ff 1d 1d 
  406bd0:	34 00 00 00 	sw $17,20($29)
  406bd4:	14 00 11 1d 
  406bd8:	42 00 00 00 	addu $17,$0,$5
  406bdc:	00 11 05 00 
  406be0:	34 00 00 00 	sw $31,24($29)
  406be4:	18 00 1f 1d 
  406be8:	34 00 00 00 	sw $16,16($29)
  406bec:	10 00 10 1d 
  406bf0:	02 00 00 00 	jal 406a28 <Trigger_Hit>
  406bf4:	8a 1a 10 00 
  406bf8:	a2 00 00 00 	lui $2,4096
  406bfc:	00 10 02 00 
  406c00:	28 00 00 00 	lw $2,11428($2)
  406c04:	a4 2c 02 02 
  406c08:	07 00 00 00 	blez $2,406c88 <Acquire_Hit+0xc0>
  406c0c:	1e 00 00 02 
  406c10:	a2 00 00 00 	lui $16,4096
  406c14:	00 10 10 00 
  406c18:	43 00 00 00 	addiu $16,$16,1740
  406c1c:	cc 06 10 10 
  406c20:	42 00 00 00 	addu $4,$0,$16
  406c24:	00 04 10 00 
  406c28:	43 00 00 00 	addiu $5,$0,3
  406c2c:	03 00 05 00 
  406c30:	02 00 00 00 	jal 410990 <printf>
  406c34:	64 42 10 00 
  406c38:	42 00 00 00 	addu $4,$0,$16
  406c3c:	00 04 10 00 
  406c40:	42 00 00 00 	addu $5,$0,$17
  406c44:	00 05 11 00 
  406c48:	02 00 00 00 	jal 410990 <printf>
  406c4c:	64 42 10 00 
  406c50:	02 00 00 00 	jal 40d0a8 <HandleAcquisition>
  406c54:	2a 34 10 00 
  406c58:	42 00 00 00 	addu $4,$0,$16
  406c5c:	00 04 10 00 
  406c60:	43 00 00 00 	addiu $5,$0,3
  406c64:	03 00 05 00 
  406c68:	02 00 00 00 	jal 410990 <printf>
  406c6c:	64 42 10 00 
  406c70:	42 00 00 00 	addu $4,$0,$16
  406c74:	00 04 10 00 
  406c78:	42 00 00 00 	addu $5,$0,$0
  406c7c:	00 05 00 00 
  406c80:	02 00 00 00 	jal 410990 <printf>
  406c84:	64 42 10 00 
  406c88:	28 00 00 00 	lw $31,24($29)
  406c8c:	18 00 1f 1d 
  406c90:	28 00 00 00 	lw $17,20($29)
  406c94:	14 00 11 1d 
  406c98:	28 00 00 00 	lw $16,16($29)
  406c9c:	10 00 10 1d 
  406ca0:	43 00 00 00 	addiu $29,$29,32
  406ca4:	20 00 1d 1d 
  406ca8:	03 00 00 00 	jr $31
  406cac:	00 00 00 1f 

00406cb0 <Hit_ISR_Tests>:
  406cb0:	43 00 00 00 	addiu $29,$29,-40
  406cb4:	d8 ff 1d 1d 
  406cb8:	a2 00 00 00 	lui $4,4096
  406cbc:	00 10 04 00 
  406cc0:	43 00 00 00 	addiu $4,$4,3940
  406cc4:	64 0f 04 04 
  406cc8:	34 00 00 00 	sw $31,32($29)
  406ccc:	20 00 1f 1d 
  406cd0:	34 00 00 00 	sw $19,28($29)
  406cd4:	1c 00 13 1d 
  406cd8:	34 00 00 00 	sw $18,24($29)
  406cdc:	18 00 12 1d 
  406ce0:	34 00 00 00 	sw $17,20($29)
  406ce4:	14 00 11 1d 
  406ce8:	34 00 00 00 	sw $16,16($29)
  406cec:	10 00 10 1d 
  406cf0:	02 00 00 00 	jal 410990 <printf>
  406cf4:	64 42 10 00 
  406cf8:	a2 00 00 00 	lui $18,4096
  406cfc:	00 10 12 00 
  406d00:	43 00 00 00 	addiu $18,$18,1772
  406d04:	ec 06 12 12 
  406d08:	42 00 00 00 	addu $4,$0,$18
  406d0c:	00 04 12 00 
  406d10:	a2 00 00 00 	lui $5,4096
  406d14:	00 10 05 00 
  406d18:	43 00 00 00 	addiu $5,$5,3956
  406d1c:	74 0f 05 05 
  406d20:	a2 00 00 00 	lui $16,4098
  406d24:	02 10 10 00 
  406d28:	43 00 00 00 	addiu $16,$16,-14463
  406d2c:	81 c7 10 10 
  406d30:	30 00 00 00 	sb $0,0($16)
  406d34:	00 00 00 10 
  406d38:	02 00 00 00 	jal 410990 <printf>
  406d3c:	64 42 10 00 
  406d40:	22 00 00 00 	lbu $4,0($16)
  406d44:	00 00 04 10 
  406d48:	5e 00 00 00 	sltiu $4,$4,1
  406d4c:	01 00 04 04 
  406d50:	02 00 00 00 	jal 402c70 <Check_Nonzero>
  406d54:	1c 0b 10 00 
  406d58:	42 00 00 00 	addu $4,$0,$0
  406d5c:	00 04 00 00 
  406d60:	43 00 00 00 	addiu $5,$0,31
  406d64:	1f 00 05 00 
  406d68:	34 00 00 00 	sw $0,-32488($28)
  406d6c:	18 81 00 1c 
  406d70:	02 00 00 00 	jal 406b70 <Trigger_SU_Hit>
  406d74:	dc 1a 10 00 
  406d78:	a2 00 00 00 	lui $17,4096
  406d7c:	00 10 11 00 
  406d80:	43 00 00 00 	addiu $17,$17,11428
  406d84:	a4 2c 11 11 
  406d88:	28 00 00 00 	lw $4,0($17)
  406d8c:	00 00 04 11 
  406d90:	5e 00 00 00 	sltiu $4,$4,1
  406d94:	01 00 04 04 
  406d98:	02 00 00 00 	jal 402c70 <Check_Nonzero>
  406d9c:	1c 0b 10 00 
  406da0:	22 00 00 00 	lbu $4,0($16)
  406da4:	00 00 04 10 
  406da8:	53 00 00 00 	xori $4,$4,1
  406dac:	01 00 04 04 
  406db0:	5e 00 00 00 	sltiu $4,$4,1
  406db4:	01 00 04 04 
  406db8:	02 00 00 00 	jal 402c70 <Check_Nonzero>
  406dbc:	1c 0b 10 00 
  406dc0:	43 00 00 00 	addiu $4,$0,1
  406dc4:	01 00 04 00 
  406dc8:	43 00 00 00 	addiu $5,$0,31
  406dcc:	1f 00 05 00 
  406dd0:	02 00 00 00 	jal 406b70 <Trigger_SU_Hit>
  406dd4:	dc 1a 10 00 
  406dd8:	28 00 00 00 	lw $4,0($17)
  406ddc:	00 00 04 11 
  406de0:	5e 00 00 00 	sltiu $4,$4,1
  406de4:	01 00 04 04 
  406de8:	02 00 00 00 	jal 402c70 <Check_Nonzero>
  406dec:	1c 0b 10 00 
  406df0:	22 00 00 00 	lbu $4,0($16)
  406df4:	00 00 04 10 
  406df8:	53 00 00 00 	xori $4,$4,2
  406dfc:	02 00 04 04 
  406e00:	5e 00 00 00 	sltiu $4,$4,1
  406e04:	01 00 04 04 
  406e08:	02 00 00 00 	jal 402c70 <Check_Nonzero>
  406e0c:	1c 0b 10 00 
  406e10:	42 00 00 00 	addu $4,$0,$18
  406e14:	00 04 12 00 
  406e18:	a2 00 00 00 	lui $5,4096
  406e1c:	00 10 05 00 
  406e20:	43 00 00 00 	addiu $5,$5,3988
  406e24:	94 0f 05 05 
  406e28:	02 00 00 00 	jal 410990 <printf>
  406e2c:	64 42 10 00 
  406e30:	43 00 00 00 	addiu $4,$0,3
  406e34:	03 00 04 00 
  406e38:	43 00 00 00 	addiu $5,$0,31
  406e3c:	1f 00 05 00 
  406e40:	43 00 00 00 	addiu $2,$0,254
  406e44:	fe 00 02 00 
  406e48:	30 00 00 00 	sb $2,0($16)
  406e4c:	00 00 02 10 
  406e50:	34 00 00 00 	sw $0,-32488($28)
  406e54:	18 81 00 1c 
  406e58:	02 00 00 00 	jal 406b70 <Trigger_SU_Hit>
  406e5c:	dc 1a 10 00 
  406e60:	28 00 00 00 	lw $4,0($17)
  406e64:	00 00 04 11 
  406e68:	5e 00 00 00 	sltiu $4,$4,1
  406e6c:	01 00 04 04 
  406e70:	02 00 00 00 	jal 402c70 <Check_Nonzero>
  406e74:	1c 0b 10 00 
  406e78:	22 00 00 00 	lbu $4,0($16)
  406e7c:	00 00 04 10 
  406e80:	53 00 00 00 	xori $4,$4,255
  406e84:	ff 00 04 04 
  406e88:	5e 00 00 00 	sltiu $4,$4,1
  406e8c:	01 00 04 04 
  406e90:	02 00 00 00 	jal 402c70 <Check_Nonzero>
  406e94:	1c 0b 10 00 
  406e98:	43 00 00 00 	addiu $4,$0,1
  406e9c:	01 00 04 00 
  406ea0:	43 00 00 00 	addiu $5,$0,31
  406ea4:	1f 00 05 00 
  406ea8:	02 00 00 00 	jal 406b70 <Trigger_SU_Hit>
  406eac:	dc 1a 10 00 
  406eb0:	28 00 00 00 	lw $4,0($17)
  406eb4:	00 00 04 11 
  406eb8:	5e 00 00 00 	sltiu $4,$4,1
  406ebc:	01 00 04 04 
  406ec0:	02 00 00 00 	jal 402c70 <Check_Nonzero>
  406ec4:	1c 0b 10 00 
  406ec8:	22 00 00 00 	lbu $4,0($16)
  406ecc:	00 00 04 10 
  406ed0:	42 00 00 00 	addu $17,$0,$0
  406ed4:	00 11 00 00 
  406ed8:	53 00 00 00 	xori $4,$4,255
  406edc:	ff 00 04 04 
  406ee0:	5e 00 00 00 	sltiu $4,$4,1
  406ee4:	01 00 04 04 
  406ee8:	02 00 00 00 	jal 402c70 <Check_Nonzero>
  406eec:	1c 0b 10 00 
  406ef0:	42 00 00 00 	addu $4,$0,$18
  406ef4:	00 04 12 00 
  406ef8:	a2 00 00 00 	lui $5,4096
  406efc:	00 10 05 00 
  406f00:	43 00 00 00 	addiu $5,$5,4048
  406f04:	d0 0f 05 05 
  406f08:	02 00 00 00 	jal 410990 <printf>
  406f0c:	64 42 10 00 
  406f10:	43 00 00 00 	addiu $4,$0,2
  406f14:	02 00 04 00 
  406f18:	43 00 00 00 	addiu $2,$0,15
  406f1c:	0f 00 02 00 
  406f20:	34 00 00 00 	sw $2,-32488($28)
  406f24:	18 81 02 1c 
  406f28:	02 00 00 00 	jal 401c18 <Set_AD_Delay>
  406f2c:	06 07 10 00 
  406f30:	34 00 00 00 	sw $0,-32704($28)
  406f34:	40 80 00 1c 
  406f38:	42 00 00 00 	addu $4,$0,$17
  406f3c:	00 04 11 00 
  406f40:	43 00 00 00 	addiu $5,$0,31
  406f44:	1f 00 05 00 
  406f48:	02 00 00 00 	jal 406b70 <Trigger_SU_Hit>
  406f4c:	dc 1a 10 00 
  406f50:	a2 00 00 00 	lui $4,4096
  406f54:	00 10 04 00 
  406f58:	28 00 00 00 	lw $4,11428($4)
  406f5c:	a4 2c 04 04 
  406f60:	53 00 00 00 	xori $4,$4,1
  406f64:	01 00 04 04 
  406f68:	5e 00 00 00 	sltiu $4,$4,1
  406f6c:	01 00 04 04 
  406f70:	02 00 00 00 	jal 402c70 <Check_Nonzero>
  406f74:	1c 0b 10 00 
  406f78:	a2 00 00 00 	lui $4,4096
  406f7c:	00 10 04 00 
  406f80:	26 00 00 00 	lhu $4,13762($4)
  406f84:	c2 35 04 04 
  406f88:	43 00 00 00 	addiu $2,$17,1
  406f8c:	01 00 02 11 
  406f90:	42 00 00 00 	addu $17,$0,$2
  406f94:	00 11 02 00 
  406f98:	52 00 00 00 	xor $4,$4,$17
  406f9c:	00 04 11 04 
  406fa0:	5e 00 00 00 	sltiu $4,$4,1
  406fa4:	01 00 04 04 
  406fa8:	02 00 00 00 	jal 402c70 <Check_Nonzero>
  406fac:	1c 0b 10 00 
  406fb0:	43 00 00 00 	addiu $4,$0,1
  406fb4:	01 00 04 00 
  406fb8:	02 00 00 00 	jal 4012a0 <FlushMail>
  406fbc:	a8 04 10 00 
  406fc0:	5e 00 00 00 	sltiu $2,$17,4
  406fc4:	04 00 02 11 
  406fc8:	06 00 00 00 	bne $2,$0,406f38 <Hit_ISR_Tests+0x288>
  406fcc:	da ff 00 02 
  406fd0:	42 00 00 00 	addu $17,$0,$0
  406fd4:	00 11 00 00 
  406fd8:	28 00 00 00 	lw $4,-32488($28)
  406fdc:	18 81 04 1c 
  406fe0:	a2 00 00 00 	lui $19,4096
  406fe4:	00 10 13 00 
  406fe8:	43 00 00 00 	addiu $19,$19,11936
  406fec:	a0 2e 13 13 
  406ff0:	43 00 00 00 	addiu $18,$0,6
  406ff4:	06 00 12 00 
  406ff8:	53 00 00 00 	xori $4,$4,11
  406ffc:	0b 00 04 04 
  407000:	5e 00 00 00 	sltiu $4,$4,1
  407004:	01 00 04 04 
  407008:	02 00 00 00 	jal 402c70 <Check_Nonzero>
  40700c:	1c 0b 10 00 
  407010:	a2 00 00 00 	lui $4,4096
  407014:	00 10 04 00 
  407018:	43 00 00 00 	addiu $4,$4,1772
  40701c:	ec 06 04 04 
  407020:	a2 00 00 00 	lui $5,4096
  407024:	00 10 05 00 
  407028:	43 00 00 00 	addiu $5,$5,4088
  40702c:	f8 0f 05 05 
  407030:	02 00 00 00 	jal 410990 <printf>
  407034:	64 42 10 00 
  407038:	42 00 00 00 	addu $4,$0,$17
  40703c:	00 04 11 00 
  407040:	43 00 00 00 	addiu $5,$0,31
  407044:	1f 00 05 00 
  407048:	43 00 00 00 	addiu $17,$4,1
  40704c:	01 00 11 04 
  407050:	55 00 00 00 	sll $16,$4,0x2
  407054:	02 10 04 00 
  407058:	42 00 00 00 	addu $16,$16,$19
  40705c:	00 10 13 10 
  407060:	34 00 00 00 	sw $17,-32496($28)
  407064:	10 81 11 1c 
  407068:	34 00 00 00 	sw $18,0($16)
  40706c:	00 00 12 10 
  407070:	02 00 00 00 	jal 406b70 <Trigger_SU_Hit>
  407074:	dc 1a 10 00 
  407078:	a2 00 00 00 	lui $4,4096
  40707c:	00 10 04 00 
  407080:	28 00 00 00 	lw $4,11428($4)
  407084:	a4 2c 04 04 
  407088:	53 00 00 00 	xori $4,$4,1
  40708c:	01 00 04 04 
  407090:	5e 00 00 00 	sltiu $4,$4,1
  407094:	01 00 04 04 
  407098:	02 00 00 00 	jal 402c70 <Check_Nonzero>
  40709c:	1c 0b 10 00 
  4070a0:	a2 00 00 00 	lui $4,4096
  4070a4:	00 10 04 00 
  4070a8:	26 00 00 00 	lhu $4,13762($4)
  4070ac:	c2 35 04 04 
  4070b0:	28 00 00 00 	lw $2,-32496($28)
  4070b4:	10 81 02 1c 
  4070b8:	52 00 00 00 	xor $4,$4,$2
  4070bc:	00 04 02 04 
  4070c0:	5e 00 00 00 	sltiu $4,$4,1
  4070c4:	01 00 04 04 
  4070c8:	02 00 00 00 	jal 402c70 <Check_Nonzero>
  4070cc:	1c 0b 10 00 
  4070d0:	28 00 00 00 	lw $4,0($16)
  4070d4:	00 00 04 10 
  4070d8:	53 00 00 00 	xori $4,$4,5
  4070dc:	05 00 04 04 
  4070e0:	5e 00 00 00 	sltiu $4,$4,1
  4070e4:	01 00 04 04 
  4070e8:	02 00 00 00 	jal 402c70 <Check_Nonzero>
  4070ec:	1c 0b 10 00 
  4070f0:	43 00 00 00 	addiu $4,$0,1
  4070f4:	01 00 04 00 
  4070f8:	02 00 00 00 	jal 4012a0 <FlushMail>
  4070fc:	a8 04 10 00 
  407100:	5e 00 00 00 	sltiu $2,$17,4
  407104:	04 00 02 11 
  407108:	06 00 00 00 	bne $2,$0,407038 <Hit_ISR_Tests+0x388>
  40710c:	ca ff 00 02 
  407110:	a2 00 00 00 	lui $4,4096
  407114:	00 10 04 00 
  407118:	43 00 00 00 	addiu $4,$4,1772
  40711c:	ec 06 04 04 
  407120:	a2 00 00 00 	lui $5,4096
  407124:	00 10 05 00 
  407128:	43 00 00 00 	addiu $5,$5,4148
  40712c:	34 10 05 05 
  407130:	02 00 00 00 	jal 410990 <printf>
  407134:	64 42 10 00 
  407138:	42 00 00 00 	addu $17,$0,$0
  40713c:	00 11 00 00 
  407140:	a2 00 00 00 	lui $19,4096
  407144:	00 10 13 00 
  407148:	43 00 00 00 	addiu $19,$19,11936
  40714c:	a0 2e 13 13 
  407150:	43 00 00 00 	addiu $18,$0,5
  407154:	05 00 12 00 
  407158:	42 00 00 00 	addu $4,$0,$17
  40715c:	00 04 11 00 
  407160:	43 00 00 00 	addiu $5,$0,31
  407164:	1f 00 05 00 
  407168:	43 00 00 00 	addiu $17,$4,1
  40716c:	01 00 11 04 
  407170:	55 00 00 00 	sll $16,$4,0x2
  407174:	02 10 04 00 
  407178:	42 00 00 00 	addu $16,$16,$19
  40717c:	00 10 13 10 
  407180:	34 00 00 00 	sw $17,-32496($28)
  407184:	10 81 11 1c 
  407188:	34 00 00 00 	sw $18,0($16)
  40718c:	00 00 12 10 
  407190:	02 00 00 00 	jal 406b70 <Trigger_SU_Hit>
  407194:	dc 1a 10 00 
  407198:	a2 00 00 00 	lui $4,4096
  40719c:	00 10 04 00 
  4071a0:	28 00 00 00 	lw $4,11428($4)
  4071a4:	a4 2c 04 04 
  4071a8:	53 00 00 00 	xori $4,$4,1
  4071ac:	01 00 04 04 
  4071b0:	5e 00 00 00 	sltiu $4,$4,1
  4071b4:	01 00 04 04 
  4071b8:	02 00 00 00 	jal 402c70 <Check_Nonzero>
  4071bc:	1c 0b 10 00 
  4071c0:	28 00 00 00 	lw $2,-32496($28)
  4071c4:	10 81 02 1c 
  4071c8:	a2 00 00 00 	lui $4,4096
  4071cc:	00 10 04 00 
  4071d0:	26 00 00 00 	lhu $4,13762($4)
  4071d4:	c2 35 04 04 
  4071d8:	51 00 00 00 	ori $2,$2,64
  4071dc:	40 00 02 02 
  4071e0:	52 00 00 00 	xor $4,$4,$2
  4071e4:	00 04 02 04 
  4071e8:	5e 00 00 00 	sltiu $4,$4,1
  4071ec:	01 00 04 04 
  4071f0:	02 00 00 00 	jal 402c70 <Check_Nonzero>
  4071f4:	1c 0b 10 00 
  4071f8:	28 00 00 00 	lw $4,0($16)
  4071fc:	00 00 04 10 
  407200:	53 00 00 00 	xori $4,$4,5
  407204:	05 00 04 04 
  407208:	5e 00 00 00 	sltiu $4,$4,1
  40720c:	01 00 04 04 
  407210:	02 00 00 00 	jal 402c70 <Check_Nonzero>
  407214:	1c 0b 10 00 
  407218:	43 00 00 00 	addiu $4,$0,1
  40721c:	01 00 04 00 
  407220:	02 00 00 00 	jal 4012a0 <FlushMail>
  407224:	a8 04 10 00 
  407228:	5e 00 00 00 	sltiu $2,$17,4
  40722c:	04 00 02 11 
  407230:	06 00 00 00 	bne $2,$0,407158 <Hit_ISR_Tests+0x4a8>
  407234:	c8 ff 00 02 
  407238:	34 00 00 00 	sw $0,-32496($28)
  40723c:	10 81 00 1c 
  407240:	42 00 00 00 	addu $17,$0,$0
  407244:	00 11 00 00 
  407248:	a2 00 00 00 	lui $3,4096
  40724c:	00 10 03 00 
  407250:	43 00 00 00 	addiu $3,$3,11936
  407254:	a0 2e 03 03 
  407258:	34 00 00 00 	sw $0,0($3)
  40725c:	00 00 00 03 
  407260:	43 00 00 00 	addiu $3,$3,4
  407264:	04 00 03 03 
  407268:	43 00 00 00 	addiu $17,$17,1
  40726c:	01 00 11 11 
  407270:	5e 00 00 00 	sltiu $2,$17,4
  407274:	04 00 02 11 
  407278:	06 00 00 00 	bne $2,$0,407258 <Hit_ISR_Tests+0x5a8>
  40727c:	f6 ff 00 02 
  407280:	a2 00 00 00 	lui $4,4096
  407284:	00 10 04 00 
  407288:	43 00 00 00 	addiu $4,$4,1772
  40728c:	ec 06 04 04 
  407290:	a2 00 00 00 	lui $5,4096
  407294:	00 10 05 00 
  407298:	43 00 00 00 	addiu $5,$5,4208
  40729c:	70 10 05 05 
  4072a0:	02 00 00 00 	jal 410990 <printf>
  4072a4:	64 42 10 00 
  4072a8:	43 00 00 00 	addiu $4,$0,25
  4072ac:	19 00 04 00 
  4072b0:	43 00 00 00 	addiu $2,$0,15
  4072b4:	0f 00 02 00 
  4072b8:	34 00 00 00 	sw $2,-32488($28)
  4072bc:	18 81 02 1c 
  4072c0:	02 00 00 00 	jal 401c18 <Set_AD_Delay>
  4072c4:	06 07 10 00 
  4072c8:	42 00 00 00 	addu $17,$0,$0
  4072cc:	00 11 00 00 
  4072d0:	34 00 00 00 	sw $0,-32704($28)
  4072d4:	40 80 00 1c 
  4072d8:	42 00 00 00 	addu $4,$0,$17
  4072dc:	00 04 11 00 
  4072e0:	43 00 00 00 	addiu $5,$0,32
  4072e4:	20 00 05 00 
  4072e8:	02 00 00 00 	jal 406b70 <Trigger_SU_Hit>
  4072ec:	dc 1a 10 00 
  4072f0:	a2 00 00 00 	lui $4,4096
  4072f4:	00 10 04 00 
  4072f8:	28 00 00 00 	lw $4,11428($4)
  4072fc:	a4 2c 04 04 
  407300:	53 00 00 00 	xori $4,$4,1
  407304:	01 00 04 04 
  407308:	5e 00 00 00 	sltiu $4,$4,1
  40730c:	01 00 04 04 
  407310:	02 00 00 00 	jal 402c70 <Check_Nonzero>
  407314:	1c 0b 10 00 
  407318:	a2 00 00 00 	lui $4,4096
  40731c:	00 10 04 00 
  407320:	26 00 00 00 	lhu $4,13762($4)
  407324:	c2 35 04 04 
  407328:	43 00 00 00 	addiu $2,$17,1
  40732c:	01 00 02 11 
  407330:	42 00 00 00 	addu $17,$0,$2
  407334:	00 11 02 00 
  407338:	52 00 00 00 	xor $4,$4,$17
  40733c:	00 04 11 04 
  407340:	5e 00 00 00 	sltiu $4,$4,1
  407344:	01 00 04 04 
  407348:	02 00 00 00 	jal 402c70 <Check_Nonzero>
  40734c:	1c 0b 10 00 
  407350:	43 00 00 00 	addiu $4,$0,1
  407354:	01 00 04 00 
  407358:	02 00 00 00 	jal 4012a0 <FlushMail>
  40735c:	a8 04 10 00 
  407360:	5e 00 00 00 	sltiu $2,$17,4
  407364:	04 00 02 11 
  407368:	06 00 00 00 	bne $2,$0,4072d8 <Hit_ISR_Tests+0x628>
  40736c:	da ff 00 02 
  407370:	28 00 00 00 	lw $4,-32488($28)
  407374:	18 81 04 1c 
  407378:	42 00 00 00 	addu $17,$0,$0
  40737c:	00 11 00 00 
  407380:	53 00 00 00 	xori $4,$4,11
  407384:	0b 00 04 04 
  407388:	5e 00 00 00 	sltiu $4,$4,1
  40738c:	01 00 04 04 
  407390:	02 00 00 00 	jal 402c70 <Check_Nonzero>
  407394:	1c 0b 10 00 
  407398:	a2 00 00 00 	lui $4,4096
  40739c:	00 10 04 00 
  4073a0:	43 00 00 00 	addiu $4,$4,1772
  4073a4:	ec 06 04 04 
  4073a8:	a2 00 00 00 	lui $5,4096
  4073ac:	00 10 05 00 
  4073b0:	43 00 00 00 	addiu $5,$5,4268
  4073b4:	ac 10 05 05 
  4073b8:	02 00 00 00 	jal 410990 <printf>
  4073bc:	64 42 10 00 
  4073c0:	43 00 00 00 	addiu $2,$0,15
  4073c4:	0f 00 02 00 
  4073c8:	34 00 00 00 	sw $2,-32488($28)
  4073cc:	18 81 02 1c 
  4073d0:	43 00 00 00 	addiu $2,$0,26
  4073d4:	1a 00 02 00 
  4073d8:	a2 00 00 00 	lui $1,4096
  4073dc:	00 10 01 00 
  4073e0:	34 00 00 00 	sw $2,13776($1)
  4073e4:	d0 35 02 01 
  4073e8:	42 00 00 00 	addu $4,$0,$17
  4073ec:	00 04 11 00 
  4073f0:	43 00 00 00 	addiu $5,$0,32
  4073f4:	20 00 05 00 
  4073f8:	34 00 00 00 	sw $17,-32704($28)
  4073fc:	40 80 11 1c 
  407400:	02 00 00 00 	jal 406b70 <Trigger_SU_Hit>
  407404:	dc 1a 10 00 
  407408:	a2 00 00 00 	lui $4,4096
  40740c:	00 10 04 00 
  407410:	28 00 00 00 	lw $4,11428($4)
  407414:	a4 2c 04 04 
  407418:	53 00 00 00 	xori $4,$4,1
  40741c:	01 00 04 04 
  407420:	5e 00 00 00 	sltiu $4,$4,1
  407424:	01 00 04 04 
  407428:	02 00 00 00 	jal 402c70 <Check_Nonzero>
  40742c:	1c 0b 10 00 
  407430:	a2 00 00 00 	lui $4,4096
  407434:	00 10 04 00 
  407438:	26 00 00 00 	lhu $4,13762($4)
  40743c:	c2 35 04 04 
  407440:	43 00 00 00 	addiu $2,$17,1
  407444:	01 00 02 11 
  407448:	42 00 00 00 	addu $17,$0,$2
  40744c:	00 11 02 00 
  407450:	51 00 00 00 	ori $2,$17,128
  407454:	80 00 02 11 
  407458:	52 00 00 00 	xor $4,$4,$2
  40745c:	00 04 02 04 
  407460:	5e 00 00 00 	sltiu $4,$4,1
  407464:	01 00 04 04 
  407468:	02 00 00 00 	jal 402c70 <Check_Nonzero>
  40746c:	1c 0b 10 00 
  407470:	43 00 00 00 	addiu $4,$0,1
  407474:	01 00 04 00 
  407478:	02 00 00 00 	jal 4012a0 <FlushMail>
  40747c:	a8 04 10 00 
  407480:	5e 00 00 00 	sltiu $2,$17,4
  407484:	04 00 02 11 
  407488:	06 00 00 00 	bne $2,$0,4073e8 <Hit_ISR_Tests+0x738>
  40748c:	d6 ff 00 02 
  407490:	28 00 00 00 	lw $4,-32488($28)
  407494:	18 81 04 1c 
  407498:	43 00 00 00 	addiu $17,$0,3
  40749c:	03 00 11 00 
  4074a0:	53 00 00 00 	xori $4,$4,11
  4074a4:	0b 00 04 04 
  4074a8:	5e 00 00 00 	sltiu $4,$4,1
  4074ac:	01 00 04 04 
  4074b0:	02 00 00 00 	jal 402c70 <Check_Nonzero>
  4074b4:	1c 0b 10 00 
  4074b8:	a2 00 00 00 	lui $4,4096
  4074bc:	00 10 04 00 
  4074c0:	43 00 00 00 	addiu $4,$4,1772
  4074c4:	ec 06 04 04 
  4074c8:	a2 00 00 00 	lui $5,4096
  4074cc:	00 10 05 00 
  4074d0:	43 00 00 00 	addiu $5,$5,4328
  4074d4:	e8 10 05 05 
  4074d8:	02 00 00 00 	jal 410990 <printf>
  4074dc:	64 42 10 00 
  4074e0:	43 00 00 00 	addiu $2,$0,80
  4074e4:	50 00 02 00 
  4074e8:	34 00 00 00 	sw $2,-32488($28)
  4074ec:	18 81 02 1c 
  4074f0:	02 00 00 00 	jal 401c58 <Random_AD_Delay>
  4074f4:	16 07 10 00 
  4074f8:	42 00 00 00 	addu $4,$0,$17
  4074fc:	00 04 11 00 
  407500:	43 00 00 00 	addiu $5,$0,33
  407504:	21 00 05 00 
  407508:	02 00 00 00 	jal 406b70 <Trigger_SU_Hit>
  40750c:	dc 1a 10 00 
  407510:	a2 00 00 00 	lui $4,4096
  407514:	00 10 04 00 
  407518:	28 00 00 00 	lw $4,11428($4)
  40751c:	a4 2c 04 04 
  407520:	53 00 00 00 	xori $4,$4,1
  407524:	01 00 04 04 
  407528:	5e 00 00 00 	sltiu $4,$4,1
  40752c:	01 00 04 04 
  407530:	02 00 00 00 	jal 402c70 <Check_Nonzero>
  407534:	1c 0b 10 00 
  407538:	a2 00 00 00 	lui $4,4096
  40753c:	00 10 04 00 
  407540:	26 00 00 00 	lhu $4,13762($4)
  407544:	c2 35 04 04 
  407548:	43 00 00 00 	addiu $2,$17,1
  40754c:	01 00 02 11 
  407550:	4f 00 00 00 	andi $4,$4,7
  407554:	07 00 04 04 
  407558:	52 00 00 00 	xor $4,$4,$2
  40755c:	00 04 02 04 
  407560:	5e 00 00 00 	sltiu $4,$4,1
  407564:	01 00 04 04 
  407568:	02 00 00 00 	jal 402c70 <Check_Nonzero>
  40756c:	1c 0b 10 00 
  407570:	43 00 00 00 	addiu $4,$0,1
  407574:	01 00 04 00 
  407578:	02 00 00 00 	jal 4012a0 <FlushMail>
  40757c:	a8 04 10 00 
  407580:	05 00 00 00 	beq $17,$0,407598 <Hit_ISR_Tests+0x8e8>
  407584:	04 00 00 11 
  407588:	43 00 00 00 	addiu $17,$17,-1
  40758c:	ff ff 11 11 
  407590:	01 00 00 00 	j 4075a0 <Hit_ISR_Tests+0x8f0>
  407594:	68 1d 10 00 
  407598:	43 00 00 00 	addiu $17,$0,3
  40759c:	03 00 11 00 
  4075a0:	28 00 00 00 	lw $2,-32488($28)
  4075a4:	18 81 02 1c 
  4075a8:	06 00 00 00 	bne $2,$0,4074f0 <Hit_ISR_Tests+0x840>
  4075ac:	d0 ff 00 02 
  4075b0:	28 00 00 00 	lw $31,32($29)
  4075b4:	20 00 1f 1d 
  4075b8:	28 00 00 00 	lw $19,28($29)
  4075bc:	1c 00 13 1d 
  4075c0:	28 00 00 00 	lw $18,24($29)
  4075c4:	18 00 12 1d 
  4075c8:	28 00 00 00 	lw $17,20($29)
  4075cc:	14 00 11 1d 
  4075d0:	28 00 00 00 	lw $16,16($29)
  4075d4:	10 00 10 1d 
  4075d8:	43 00 00 00 	addiu $29,$29,40
  4075dc:	28 00 1d 1d 
  4075e0:	03 00 00 00 	jr $31
  4075e4:	00 00 00 1f 

004075e8 <Report_Event_Histo>:
  4075e8:	43 00 00 00 	addiu $29,$29,-40
  4075ec:	d8 ff 1d 1d 
  4075f0:	34 00 00 00 	sw $18,24($29)
  4075f4:	18 00 12 1d 
  4075f8:	42 00 00 00 	addu $18,$0,$0
  4075fc:	00 12 00 00 
  407600:	34 00 00 00 	sw $19,28($29)
  407604:	1c 00 13 1d 
  407608:	a2 00 00 00 	lui $19,4097
  40760c:	01 10 13 00 
  407610:	43 00 00 00 	addiu $19,$19,15602
  407614:	f2 3c 13 13 
  407618:	34 00 00 00 	sw $31,32($29)
  40761c:	20 00 1f 1d 
  407620:	34 00 00 00 	sw $17,20($29)
  407624:	14 00 11 1d 
  407628:	34 00 00 00 	sw $16,16($29)
  40762c:	10 00 10 1d 
  407630:	42 00 00 00 	addu $16,$0,$0
  407634:	00 10 00 00 
  407638:	42 00 00 00 	addu $17,$0,$19
  40763c:	00 11 13 00 
  407640:	42 00 00 00 	addu $6,$0,$16
  407644:	00 06 10 00 
  407648:	43 00 00 00 	addiu $16,$16,1
  40764c:	01 00 10 10 
  407650:	22 00 00 00 	lbu $7,0($17)
  407654:	00 00 07 11 
  407658:	a2 00 00 00 	lui $4,4096
  40765c:	00 10 04 00 
  407660:	43 00 00 00 	addiu $4,$4,4384
  407664:	20 11 04 04 
  407668:	42 00 00 00 	addu $5,$0,$18
  40766c:	00 05 12 00 
  407670:	02 00 00 00 	jal 410990 <printf>
  407674:	64 42 10 00 
  407678:	43 00 00 00 	addiu $17,$17,1
  40767c:	01 00 11 11 
  407680:	5c 00 00 00 	slti $2,$16,10
  407684:	0a 00 02 10 
  407688:	06 00 00 00 	bne $2,$0,407640 <Report_Event_Histo+0x58>
  40768c:	ec ff 00 02 
  407690:	43 00 00 00 	addiu $19,$19,10
  407694:	0a 00 13 13 
  407698:	43 00 00 00 	addiu $18,$18,1
  40769c:	01 00 12 12 
  4076a0:	5e 00 00 00 	sltiu $2,$18,4
  4076a4:	04 00 02 12 
  4076a8:	06 00 00 00 	bne $2,$0,407630 <Report_Event_Histo+0x48>
  4076ac:	e0 ff 00 02 
  4076b0:	28 00 00 00 	lw $31,32($29)
  4076b4:	20 00 1f 1d 
  4076b8:	28 00 00 00 	lw $19,28($29)
  4076bc:	1c 00 13 1d 
  4076c0:	28 00 00 00 	lw $18,24($29)
  4076c4:	18 00 12 1d 
  4076c8:	28 00 00 00 	lw $17,20($29)
  4076cc:	14 00 11 1d 
  4076d0:	28 00 00 00 	lw $16,16($29)
  4076d4:	10 00 10 1d 
  4076d8:	43 00 00 00 	addiu $29,$29,40
  4076dc:	28 00 1d 1d 
  4076e0:	03 00 00 00 	jr $31
  4076e4:	00 00 00 1f 

004076e8 <Acquisition_Tests>:
  4076e8:	43 00 00 00 	addiu $29,$29,-32
  4076ec:	e0 ff 1d 1d 
  4076f0:	a2 00 00 00 	lui $4,4096
  4076f4:	00 10 04 00 
  4076f8:	43 00 00 00 	addiu $4,$4,1772
  4076fc:	ec 06 04 04 
  407700:	a2 00 00 00 	lui $5,4096
  407704:	00 10 05 00 
  407708:	43 00 00 00 	addiu $5,$5,4420
  40770c:	44 11 05 05 
  407710:	34 00 00 00 	sw $31,28($29)
  407714:	1c 00 1f 1d 
  407718:	34 00 00 00 	sw $18,24($29)
  40771c:	18 00 12 1d 
  407720:	34 00 00 00 	sw $17,20($29)
  407724:	14 00 11 1d 
  407728:	34 00 00 00 	sw $16,16($29)
  40772c:	10 00 10 1d 
  407730:	02 00 00 00 	jal 410990 <printf>
  407734:	64 42 10 00 
  407738:	42 00 00 00 	addu $16,$0,$0
  40773c:	00 10 00 00 
  407740:	a2 00 00 00 	lui $17,4096
  407744:	00 10 11 00 
  407748:	43 00 00 00 	addiu $17,$17,11936
  40774c:	a0 2e 11 11 
  407750:	28 00 00 00 	lw $4,0($17)
  407754:	00 00 04 11 
  407758:	5e 00 00 00 	sltiu $4,$4,1
  40775c:	01 00 04 04 
  407760:	02 00 00 00 	jal 402c70 <Check_Nonzero>
  407764:	1c 0b 10 00 
  407768:	42 00 00 00 	addu $4,$16,$28
  40776c:	00 04 1c 10 
  407770:	22 00 00 00 	lbu $4,-32576($4)
  407774:	c0 80 04 04 
  407778:	43 00 00 00 	addiu $5,$0,85
  40777c:	55 00 05 00 
  407780:	43 00 00 00 	addiu $6,$0,41
  407784:	29 00 06 00 
  407788:	02 00 00 00 	jal 403648 <Exec_TC>
  40778c:	92 0d 10 00 
  407790:	02 00 00 00 	jal 402cd0 <Check_No_Errors>
  407794:	34 0b 10 00 
  407798:	28 00 00 00 	lw $4,0($17)
  40779c:	00 00 04 11 
  4077a0:	43 00 00 00 	addiu $16,$16,1
  4077a4:	01 00 10 10 
  4077a8:	53 00 00 00 	xori $4,$4,1
  4077ac:	01 00 04 04 
  4077b0:	5e 00 00 00 	sltiu $4,$4,1
  4077b4:	01 00 04 04 
  4077b8:	02 00 00 00 	jal 402c70 <Check_Nonzero>
  4077bc:	1c 0b 10 00 
  4077c0:	43 00 00 00 	addiu $17,$17,4
  4077c4:	04 00 11 11 
  4077c8:	5e 00 00 00 	sltiu $2,$16,4
  4077cc:	04 00 02 10 
  4077d0:	06 00 00 00 	bne $2,$0,407750 <Acquisition_Tests+0x68>
  4077d4:	de ff 00 02 
  4077d8:	02 00 00 00 	jal 401908 <Set_AD_Nominal>
  4077dc:	42 06 10 00 
  4077e0:	43 00 00 00 	addiu $4,$0,61
  4077e4:	3d 00 04 00 
  4077e8:	34 00 00 00 	sw $0,-32676($28)
  4077ec:	5c 80 00 1c 
  4077f0:	34 00 00 00 	sw $0,-32664($28)
  4077f4:	68 80 00 1c 
  4077f8:	34 00 00 00 	sw $0,-32712($28)
  4077fc:	38 80 00 1c 
  407800:	34 00 00 00 	sw $0,-32596($28)
  407804:	ac 80 00 1c 
  407808:	02 00 00 00 	jal 405ab0 <Monitor_Health>
  40780c:	ac 16 10 00 
  407810:	42 00 00 00 	addu $16,$0,$0
  407814:	00 10 00 00 
  407818:	a2 00 00 00 	lui $17,4096
  40781c:	00 10 11 00 
  407820:	43 00 00 00 	addiu $17,$17,11936
  407824:	a0 2e 11 11 
  407828:	28 00 00 00 	lw $4,0($17)
  40782c:	00 00 04 11 
  407830:	43 00 00 00 	addiu $16,$16,1
  407834:	01 00 10 10 
  407838:	53 00 00 00 	xori $4,$4,2
  40783c:	02 00 04 04 
  407840:	5e 00 00 00 	sltiu $4,$4,1
  407844:	01 00 04 04 
  407848:	02 00 00 00 	jal 402c70 <Check_Nonzero>
  40784c:	1c 0b 10 00 
  407850:	43 00 00 00 	addiu $17,$17,4
  407854:	04 00 11 11 
  407858:	5e 00 00 00 	sltiu $2,$16,4
  40785c:	04 00 02 10 
  407860:	06 00 00 00 	bne $2,$0,407828 <Acquisition_Tests+0x140>
  407864:	f0 ff 00 02 
  407868:	43 00 00 00 	addiu $4,$0,61
  40786c:	3d 00 04 00 
  407870:	02 00 00 00 	jal 405ab0 <Monitor_Health>
  407874:	ac 16 10 00 
  407878:	42 00 00 00 	addu $16,$0,$0
  40787c:	00 10 00 00 
  407880:	a2 00 00 00 	lui $17,4096
  407884:	00 10 11 00 
  407888:	43 00 00 00 	addiu $17,$17,11936
  40788c:	a0 2e 11 11 
  407890:	28 00 00 00 	lw $4,0($17)
  407894:	00 00 04 11 
  407898:	43 00 00 00 	addiu $16,$16,1
  40789c:	01 00 10 10 
  4078a0:	53 00 00 00 	xori $4,$4,3
  4078a4:	03 00 04 04 
  4078a8:	5e 00 00 00 	sltiu $4,$4,1
  4078ac:	01 00 04 04 
  4078b0:	02 00 00 00 	jal 402c70 <Check_Nonzero>
  4078b4:	1c 0b 10 00 
  4078b8:	43 00 00 00 	addiu $17,$17,4
  4078bc:	04 00 11 11 
  4078c0:	5e 00 00 00 	sltiu $2,$16,4
  4078c4:	04 00 02 10 
  4078c8:	06 00 00 00 	bne $2,$0,407890 <Acquisition_Tests+0x1a8>
  4078cc:	f0 ff 00 02 
  4078d0:	a2 00 00 00 	lui $16,4096
  4078d4:	00 10 10 00 
  4078d8:	43 00 00 00 	addiu $16,$16,1772
  4078dc:	ec 06 10 10 
  4078e0:	42 00 00 00 	addu $4,$0,$16
  4078e4:	00 04 10 00 
  4078e8:	a2 00 00 00 	lui $5,4096
  4078ec:	00 10 05 00 
  4078f0:	43 00 00 00 	addiu $5,$5,4444
  4078f4:	5c 11 05 05 
  4078f8:	02 00 00 00 	jal 410990 <printf>
  4078fc:	64 42 10 00 
  407900:	43 00 00 00 	addiu $4,$0,48
  407904:	30 00 04 00 
  407908:	43 00 00 00 	addiu $5,$0,85
  40790c:	55 00 05 00 
  407910:	43 00 00 00 	addiu $6,$0,41
  407914:	29 00 06 00 
  407918:	02 00 00 00 	jal 403648 <Exec_TC>
  40791c:	92 0d 10 00 
  407920:	a2 00 00 00 	lui $4,4098
  407924:	02 10 04 00 
  407928:	22 00 00 00 	lbu $4,-14576($4)
  40792c:	10 c7 04 04 
  407930:	53 00 00 00 	xori $4,$4,1
  407934:	01 00 04 04 
  407938:	5e 00 00 00 	sltiu $4,$4,1
  40793c:	01 00 04 04 
  407940:	02 00 00 00 	jal 402c70 <Check_Nonzero>
  407944:	1c 0b 10 00 
  407948:	a2 00 00 00 	lui $17,4096
  40794c:	00 10 11 00 
  407950:	43 00 00 00 	addiu $17,$17,11940
  407954:	a4 2e 11 11 
  407958:	28 00 00 00 	lw $4,0($17)
  40795c:	00 00 04 11 
  407960:	53 00 00 00 	xori $4,$4,3
  407964:	03 00 04 04 
  407968:	5e 00 00 00 	sltiu $4,$4,1
  40796c:	01 00 04 04 
  407970:	02 00 00 00 	jal 402c70 <Check_Nonzero>
  407974:	1c 0b 10 00 
  407978:	02 00 00 00 	jal 403c70 <Clear_Errors>
  40797c:	1c 0f 10 00 
  407980:	42 00 00 00 	addu $4,$0,$16
  407984:	00 04 10 00 
  407988:	a2 00 00 00 	lui $5,4096
  40798c:	00 10 05 00 
  407990:	43 00 00 00 	addiu $5,$5,4480
  407994:	80 11 05 05 
  407998:	02 00 00 00 	jal 410990 <printf>
  40799c:	64 42 10 00 
  4079a0:	a2 00 00 00 	lui $4,4098
  4079a4:	02 10 04 00 
  4079a8:	22 00 00 00 	lbu $4,-14575($4)
  4079ac:	11 c7 04 04 
  4079b0:	4f 00 00 00 	andi $4,$4,3
  4079b4:	03 00 04 04 
  4079b8:	53 00 00 00 	xori $4,$4,1
  4079bc:	01 00 04 04 
  4079c0:	5e 00 00 00 	sltiu $4,$4,1
  4079c4:	01 00 04 04 
  4079c8:	02 00 00 00 	jal 402c70 <Check_Nonzero>
  4079cc:	1c 0b 10 00 
  4079d0:	43 00 00 00 	addiu $4,$0,1
  4079d4:	01 00 04 00 
  4079d8:	43 00 00 00 	addiu $5,$0,1
  4079dc:	01 00 05 00 
  4079e0:	43 00 00 00 	addiu $6,$0,41
  4079e4:	29 00 06 00 
  4079e8:	02 00 00 00 	jal 403648 <Exec_TC>
  4079ec:	92 0d 10 00 
  4079f0:	02 00 00 00 	jal 402cd0 <Check_No_Errors>
  4079f4:	34 0b 10 00 
  4079f8:	a2 00 00 00 	lui $4,4098
  4079fc:	02 10 04 00 
  407a00:	22 00 00 00 	lbu $4,-14575($4)
  407a04:	11 c7 04 04 
  407a08:	42 00 00 00 	addu $16,$0,$0
  407a0c:	00 10 00 00 
  407a10:	43 00 00 00 	addiu $17,$17,-4
  407a14:	fc ff 11 11 
  407a18:	4f 00 00 00 	andi $4,$4,3
  407a1c:	03 00 04 04 
  407a20:	53 00 00 00 	xori $4,$4,2
  407a24:	02 00 04 04 
  407a28:	5e 00 00 00 	sltiu $4,$4,1
  407a2c:	01 00 04 04 
  407a30:	02 00 00 00 	jal 402c70 <Check_Nonzero>
  407a34:	1c 0b 10 00 
  407a38:	28 00 00 00 	lw $4,0($17)
  407a3c:	00 00 04 11 
  407a40:	43 00 00 00 	addiu $16,$16,1
  407a44:	01 00 10 10 
  407a48:	53 00 00 00 	xori $4,$4,7
  407a4c:	07 00 04 04 
  407a50:	5e 00 00 00 	sltiu $4,$4,1
  407a54:	01 00 04 04 
  407a58:	02 00 00 00 	jal 402c70 <Check_Nonzero>
  407a5c:	1c 0b 10 00 
  407a60:	43 00 00 00 	addiu $17,$17,4
  407a64:	04 00 11 11 
  407a68:	5e 00 00 00 	sltiu $2,$16,4
  407a6c:	04 00 02 10 
  407a70:	06 00 00 00 	bne $2,$0,407a38 <Acquisition_Tests+0x350>
  407a74:	f0 ff 00 02 
  407a78:	a2 00 00 00 	lui $16,4096
  407a7c:	00 10 10 00 
  407a80:	43 00 00 00 	addiu $16,$16,1772
  407a84:	ec 06 10 10 
  407a88:	42 00 00 00 	addu $4,$0,$16
  407a8c:	00 04 10 00 
  407a90:	a2 00 00 00 	lui $5,4096
  407a94:	00 10 05 00 
  407a98:	43 00 00 00 	addiu $5,$5,4500
  407a9c:	94 11 05 05 
  407aa0:	02 00 00 00 	jal 410990 <printf>
  407aa4:	64 42 10 00 
  407aa8:	43 00 00 00 	addiu $4,$0,32
  407aac:	20 00 04 00 
  407ab0:	43 00 00 00 	addiu $5,$0,85
  407ab4:	55 00 05 00 
  407ab8:	43 00 00 00 	addiu $6,$0,41
  407abc:	29 00 06 00 
  407ac0:	02 00 00 00 	jal 403648 <Exec_TC>
  407ac4:	92 0d 10 00 
  407ac8:	a2 00 00 00 	lui $17,4098
  407acc:	02 10 11 00 
  407ad0:	43 00 00 00 	addiu $17,$17,-14576
  407ad4:	10 c7 11 11 
  407ad8:	22 00 00 00 	lbu $4,0($17)
  407adc:	00 00 04 11 
  407ae0:	53 00 00 00 	xori $4,$4,1
  407ae4:	01 00 04 04 
  407ae8:	5e 00 00 00 	sltiu $4,$4,1
  407aec:	01 00 04 04 
  407af0:	02 00 00 00 	jal 402c70 <Check_Nonzero>
  407af4:	1c 0b 10 00 
  407af8:	02 00 00 00 	jal 403c70 <Clear_Errors>
  407afc:	1c 0f 10 00 
  407b00:	42 00 00 00 	addu $4,$0,$16
  407b04:	00 04 10 00 
  407b08:	a2 00 00 00 	lui $5,4096
  407b0c:	00 10 05 00 
  407b10:	43 00 00 00 	addiu $5,$5,4536
  407b14:	b8 11 05 05 
  407b18:	02 00 00 00 	jal 410990 <printf>
  407b1c:	64 42 10 00 
  407b20:	43 00 00 00 	addiu $4,$0,1
  407b24:	01 00 04 00 
  407b28:	43 00 00 00 	addiu $5,$0,1
  407b2c:	01 00 05 00 
  407b30:	43 00 00 00 	addiu $6,$0,41
  407b34:	29 00 06 00 
  407b38:	02 00 00 00 	jal 403648 <Exec_TC>
  407b3c:	92 0d 10 00 
  407b40:	22 00 00 00 	lbu $4,0($17)
  407b44:	00 00 04 11 
  407b48:	53 00 00 00 	xori $4,$4,1
  407b4c:	01 00 04 04 
  407b50:	5e 00 00 00 	sltiu $4,$4,1
  407b54:	01 00 04 04 
  407b58:	02 00 00 00 	jal 402c70 <Check_Nonzero>
  407b5c:	1c 0b 10 00 
  407b60:	02 00 00 00 	jal 4091e0 <GetMode>
  407b64:	78 24 10 00 
