
fbw.elf:     file format elf32-powerpc

Disassembly of section .text:

01800074 <to_autopilot_from_last_radio>:
 1800074:	94 21 ff f0 	stwu    r1,-16(r1)
 1800078:	3d 20 01 81 	lis     r9,385
 180007c:	3d 60 01 81 	lis     r11,385
 1800080:	38 e9 19 ac 	addi    r7,r9,6572
 1800084:	39 0b 19 84 	addi    r8,r11,6532
 1800088:	39 40 00 00 	li      r10,0
 180008c:	7d 6a 52 14 	add     r11,r10,r10
 1800090:	38 0a 00 01 	addi    r0,r10,1
 1800094:	54 0a 06 3e 	clrlwi  r10,r0,24
 1800098:	7d 28 5a 2e 	lhzx    r9,r8,r11
 180009c:	28 0a 00 08 	cmplwi  r10,8
 18000a0:	7d 27 5b 2e 	sthx    r9,r7,r11
 18000a4:	40 81 ff e8 	ble+    180008c <to_autopilot_from_last_radio+0x18>
 18000a8:	3d 20 01 81 	lis     r9,385
 18000ac:	89 69 17 99 	lbz     r11,6041(r9)
 18000b0:	3d 40 01 81 	lis     r10,385
 18000b4:	88 0a 17 97 	lbz     r0,6039(r10)
 18000b8:	3d 20 01 81 	lis     r9,385
 18000bc:	89 49 17 88 	lbz     r10,6024(r9)
 18000c0:	7d 6b 00 d0 	neg     r11,r11
 18000c4:	7c 00 00 d0 	neg     r0,r0
 18000c8:	55 6b 0f fe 	rlwinm  r11,r11,1,31,31
 18000cc:	54 00 17 bc 	rlwinm  r0,r0,2,30,30
 18000d0:	2c 0a 00 00 	cmpwi   r10,0
 18000d4:	3d 20 01 81 	lis     r9,385
 18000d8:	39 49 19 ac 	addi    r10,r9,6572
 18000dc:	7d 60 03 78 	or      r0,r11,r0
 18000e0:	98 0a 00 13 	stb     r0,19(r10)
 18000e4:	41 82 00 18 	beq-    18000fc <to_autopilot_from_last_radio+0x88>
 18000e8:	60 0b 00 04 	ori     r11,r0,4
 18000ec:	38 00 00 00 	li      r0,0
 18000f0:	3d 20 01 81 	lis     r9,385
 18000f4:	98 09 17 88 	stb     r0,6024(r9)
 18000f8:	99 6a 00 13 	stb     r11,19(r10)
 18000fc:	3d 20 01 81 	lis     r9,385
 1800100:	a0 09 18 d8 	lhz     r0,6360(r9)
 1800104:	6c 00 80 00 	xoris   r0,r0,32768
 1800108:	90 01 00 0c 	stw     r0,12(r1)
 180010c:	3d 20 43 30 	lis     r9,17200
 1800110:	91 21 00 08 	stw     r9,8(r1)
 1800114:	3d 20 01 80 	lis     r9,384
 1800118:	39 29 16 d0 	addi    r9,r9,5840
 180011c:	c8 01 00 08 	lfd     f0,8(r1)
 1800120:	c9 a9 00 00 	lfd     f13,0(r9)
 1800124:	3d 60 01 80 	lis     r11,384
 1800128:	c9 8b 16 c0 	lfd     f12,5824(r11)
 180012c:	fc 00 68 28 	fsub    f0,f0,f13
 1800130:	3d 20 01 80 	lis     r9,384
 1800134:	c9 29 16 c8 	lfd     f9,5832(r9)
 1800138:	3d 20 01 80 	lis     r9,384
 180013c:	39 29 16 d8 	addi    r9,r9,5848
 1800140:	fc 00 03 32 	fmul    f0,f0,f12
 1800144:	c9 a9 00 00 	lfd     f13,0(r9)
 1800148:	3d 20 01 80 	lis     r9,384
 180014c:	39 29 16 e0 	addi    r9,r9,5856
 1800150:	c9 69 00 00 	lfd     f11,0(r9)
 1800154:	fc 00 4b 7a 	fmadd   f0,f0,f13,f9
 1800158:	3d 20 01 81 	lis     r9,385
 180015c:	88 09 17 95 	lbz     r0,6037(r9)
 1800160:	98 0a 00 12 	stb     r0,18(r10)
 1800164:	fc 00 02 f2 	fmul    f0,f0,f11
 1800168:	fd 40 00 1e 	fctiwz  f10,f0
 180016c:	d9 41 00 08 	stfd    f10,8(r1)
 1800170:	81 61 00 0c 	lwz     r11,12(r1)
 1800174:	99 6a 00 15 	stb     r11,21(r10)
 1800178:	38 21 00 10 	addi    r1,r1,16
 180017c:	4e 80 00 20 	blr

01800180 <send_data_to_autopilot_task>:
 1800180:	94 21 ff f0 	stwu    r1,-16(r1)
 1800184:	7c 08 02 a6 	mflr    r0
 1800188:	90 01 00 14 	stw     r0,20(r1)
 180018c:	39 20 00 36 	li      r9,54
 1800190:	88 09 00 00 	lbz     r0,0(r9)
 1800194:	70 09 00 04 	andi.   r9,r0,4
 1800198:	41 82 00 24 	beq-    18001bc <send_data_to_autopilot_task+0x3c>
 180019c:	3d 20 01 81 	lis     r9,385
 18001a0:	88 09 17 8c 	lbz     r0,6028(r9)
 18001a4:	2c 00 00 00 	cmpwi   r0,0
 18001a8:	41 82 00 14 	beq-    18001bc <send_data_to_autopilot_task+0x3c>
 18001ac:	38 00 00 00 	li      r0,0
 18001b0:	98 09 17 8c 	stb     r0,6028(r9)
 18001b4:	4b ff fe c1 	bl      1800074 <to_autopilot_from_last_radio>
 18001b8:	48 00 0f f9 	bl      18011b0 <spi_reset>
 18001bc:	80 01 00 14 	lwz     r0,20(r1)
 18001c0:	7c 08 03 a6 	mtlr    r0
 18001c4:	38 21 00 10 	addi    r1,r1,16
 18001c8:	4e 80 00 20 	blr

018001cc <main>:
 18001cc:	94 21 ff c0 	stwu    r1,-64(r1)
 18001d0:	7c 08 02 a6 	mflr    r0
 18001d4:	92 a1 00 14 	stw     r21,20(r1)
 18001d8:	92 c1 00 18 	stw     r22,24(r1)
 18001dc:	92 e1 00 1c 	stw     r23,28(r1)
 18001e0:	93 01 00 20 	stw     r24,32(r1)
 18001e4:	93 21 00 24 	stw     r25,36(r1)
 18001e8:	93 41 00 28 	stw     r26,40(r1)
 18001ec:	93 61 00 2c 	stw     r27,44(r1)
 18001f0:	93 81 00 30 	stw     r28,48(r1)
 18001f4:	93 a1 00 34 	stw     r29,52(r1)
 18001f8:	93 c1 00 38 	stw     r30,56(r1)
 18001fc:	93 e1 00 3c 	stw     r31,60(r1)
 1800200:	90 01 00 44 	stw     r0,68(r1)
 1800204:	48 00 11 39 	bl      180133c <uart_init_tx>
 1800208:	3b a0 00 4e 	li      r29,78
 180020c:	3c 60 01 80 	lis     r3,384
 1800210:	38 63 16 e8 	addi    r3,r3,5864
 1800214:	48 00 12 b1 	bl      18014c4 <uart_print_string>
 1800218:	3e a0 01 81 	lis     r21,385
 180021c:	48 00 13 61 	bl      180157c <adc_init>
 1800220:	3f 00 01 81 	lis     r24,385
 1800224:	3c 80 01 81 	lis     r4,385
 1800228:	38 84 18 d8 	addi    r4,r4,6360
 180022c:	38 60 00 03 	li      r3,3
 1800230:	48 00 13 39 	bl      1801568 <adc_buf_channel>
 1800234:	3f 20 01 81 	lis     r25,385
 1800238:	3c 80 01 81 	lis     r4,385
 180023c:	38 84 19 1c 	addi    r4,r4,6428
 1800240:	38 60 00 06 	li      r3,6
 1800244:	48 00 13 25 	bl      1801568 <adc_buf_channel>
 1800248:	3f 40 01 81 	lis     r26,385
 180024c:	39 60 00 4f 	li      r11,79
 1800250:	38 00 00 00 	li      r0,0
 1800254:	98 0b 00 00 	stb     r0,0(r11)
 1800258:	39 20 00 01 	li      r9,1
 180025c:	99 3d 00 00 	stb     r9,0(r29)
 1800260:	39 60 00 45 	li      r11,69
 1800264:	38 00 00 07 	li      r0,7
 1800268:	98 0b 00 00 	stb     r0,0(r11)
 180026c:	48 00 09 c9 	bl      1800c34 <servo_init>
 1800270:	3b 60 00 58 	li      r27,88
 1800274:	88 1d 00 00 	lbz     r0,0(r29)
 1800278:	39 60 00 37 	li      r11,55
 180027c:	70 00 00 bf 	andi.   r0,r0,191
 1800280:	98 1d 00 00 	stb     r0,0(r29)
 1800284:	89 3d 00 00 	lbz     r9,0(r29)
 1800288:	39 40 00 59 	li      r10,89
 180028c:	61 29 00 80 	ori     r9,r9,128
 1800290:	99 3d 00 00 	stb     r9,0(r29)
 1800294:	88 0b 00 00 	lbz     r0,0(r11)
 1800298:	3a c0 00 40 	li      r22,64
 180029c:	54 00 06 3c 	rlwinm  r0,r0,0,24,30
 18002a0:	98 0b 00 00 	stb     r0,0(r11)
 18002a4:	89 2a 00 00 	lbz     r9,0(r10)
 18002a8:	3f 80 01 81 	lis     r28,385
 18002ac:	61 29 00 20 	ori     r9,r9,32
 18002b0:	99 2a 00 00 	stb     r9,0(r10)
 18002b4:	48 00 0f 41 	bl      18011f4 <spi_init>
 18002b8:	3f c0 01 81 	lis     r30,385
 18002bc:	3b a0 00 00 	li      r29,0
 18002c0:	3e e0 01 81 	lis     r23,385
 18002c4:	3f e0 01 81 	lis     r31,385
 18002c8:	48 00 00 a9 	bl      1800370 <test_ppm_task>
 18002cc:	48 00 02 29 	bl      18004f4 <check_mega128_values_task>
 18002d0:	4b ff fe b1 	bl      1800180 <send_data_to_autopilot_task>
 18002d4:	48 00 01 c1 	bl      1800494 <check_failsafe_task>
 18002d8:	88 1b 00 00 	lbz     r0,0(r27)
 18002dc:	70 09 00 40 	andi.   r9,r0,64
 18002e0:	40 82 00 0c 	bne-    18002ec <main+0x120>
 18002e4:	38 00 00 00 	li      r0,0
 18002e8:	48 00 00 0c 	b       18002f4 <main+0x128>
 18002ec:	9a db 00 00 	stb     r22,0(r27)
 18002f0:	38 00 00 01 	li      r0,1
 18002f4:	2c 00 00 00 	cmpwi   r0,0
 18002f8:	41 82 ff d0 	beq+    18002c8 <main+0xfc>
 18002fc:	89 7c 17 8e 	lbz     r11,6030(r28)
 1800300:	89 3e 17 8f 	lbz     r9,6031(r30)
 1800304:	39 6b 00 01 	addi    r11,r11,1
 1800308:	55 60 06 3e 	clrlwi  r0,r11,24
 180030c:	28 00 00 3b 	cmplwi  r0,59
 1800310:	39 29 00 01 	addi    r9,r9,1
 1800314:	99 3e 17 8f 	stb     r9,6031(r30)
 1800318:	99 7c 17 8e 	stb     r11,6030(r28)
 180031c:	40 81 00 14 	ble-    1800330 <main+0x164>
 1800320:	88 1f 17 94 	lbz     r0,6036(r31)
 1800324:	9b b5 17 8e 	stb     r29,6030(r21)
 1800328:	98 17 17 95 	stb     r0,6037(r23)
 180032c:	9b bf 17 94 	stb     r29,6036(r31)
 1800330:	88 18 17 8f 	lbz     r0,6031(r24)
 1800334:	28 00 00 02 	cmplwi  r0,2
 1800338:	40 81 00 0c 	ble-    1800344 <main+0x178>
 180033c:	9b b8 17 8f 	stb     r29,6031(r24)
 1800340:	48 00 0a 65 	bl      1800da4 <servo_transmit>
 1800344:	89 39 17 90 	lbz     r9,6032(r25)
 1800348:	28 09 00 1d 	cmplwi  r9,29
 180034c:	41 81 00 0c 	bgt-    1800358 <main+0x18c>
 1800350:	38 09 00 01 	addi    r0,r9,1
 1800354:	98 19 17 90 	stb     r0,6032(r25)
 1800358:	a1 3a 17 92 	lhz     r9,6034(r26)
 180035c:	28 09 01 2b 	cmplwi  r9,299
 1800360:	41 81 ff 68 	bgt+    18002c8 <main+0xfc>
 1800364:	38 09 00 01 	addi    r0,r9,1
 1800368:	b0 1a 17 92 	sth     r0,6034(r26)
 180036c:	4b ff ff 5c 	b       18002c8 <main+0xfc>

01800370 <test_ppm_task>:
 1800370:	94 21 ff f0 	stwu    r1,-16(r1)
 1800374:	7c 08 02 a6 	mflr    r0
 1800378:	93 e1 00 0c 	stw     r31,12(r1)
 180037c:	90 01 00 14 	stw     r0,20(r1)
 1800380:	3c 80 01 81 	lis     r4,385
 1800384:	88 04 17 9e 	lbz     r0,6046(r4)
 1800388:	2c 00 00 00 	cmpwi   r0,0
 180038c:	41 82 00 94 	beq-    1800420 <test_ppm_task+0xb0>
 1800390:	3c e0 01 81 	lis     r7,385
 1800394:	89 27 17 94 	lbz     r9,6036(r7)
 1800398:	38 a0 00 00 	li      r5,0
 180039c:	39 29 00 01 	addi    r9,r9,1
 18003a0:	38 00 00 00 	li      r0,0
 18003a4:	3c c0 01 81 	lis     r6,385
 18003a8:	39 60 00 01 	li      r11,1
 18003ac:	3d 40 01 81 	lis     r10,385
 18003b0:	3d 00 01 81 	lis     r8,385
 18003b4:	99 27 17 94 	stb     r9,6036(r7)
 18003b8:	b0 08 17 92 	sth     r0,6034(r8)
 18003bc:	99 66 17 99 	stb     r11,6041(r6)
 18003c0:	98 aa 17 97 	stb     r5,6039(r10)
 18003c4:	98 a4 17 9e 	stb     r5,6046(r4)
 18003c8:	48 00 02 89 	bl      1800650 <last_radio_from_ppm>
 18003cc:	3f e0 01 81 	lis     r31,385
 18003d0:	3d 20 01 81 	lis     r9,385
 18003d4:	88 09 17 88 	lbz     r0,6024(r9)
 18003d8:	2c 00 00 00 	cmpwi   r0,0
 18003dc:	41 82 00 24 	beq-    1800400 <test_ppm_task+0x90>
 18003e0:	3d 20 01 81 	lis     r9,385
 18003e4:	a8 09 19 8c 	lha     r0,6540(r9)
 18003e8:	3d 20 01 81 	lis     r9,385
 18003ec:	2f 80 ed 40 	cmpwi   cr7,r0,-4800
 18003f0:	4f fe eb 82 	cror    4*cr7+so,4*cr7+eq,4*cr7+gt
 18003f4:	7d 60 00 26 	mfcr    r11
 18003f8:	55 6b 07 fe 	clrlwi  r11,r11,31
 18003fc:	99 69 17 96 	stb     r11,6038(r9)
 1800400:	3d 20 01 81 	lis     r9,385
 1800404:	88 09 17 96 	lbz     r0,6038(r9)
 1800408:	2c 00 00 00 	cmpwi   r0,0
 180040c:	40 82 00 40 	bne-    180044c <test_ppm_task+0xdc>
 1800410:	3c 60 01 81 	lis     r3,385
 1800414:	38 63 19 84 	addi    r3,r3,6532
 1800418:	48 00 0a 11 	bl      1800e28 <servo_set>
 180041c:	48 00 00 30 	b       180044c <test_ppm_task+0xdc>
 1800420:	3d 60 01 81 	lis     r11,385
 1800424:	88 0b 17 96 	lbz     r0,6038(r11)
 1800428:	3f e0 01 81 	lis     r31,385
 180042c:	2c 00 00 00 	cmpwi   r0,0
 1800430:	40 82 00 1c 	bne-    180044c <test_ppm_task+0xdc>
 1800434:	3d 20 01 81 	lis     r9,385
 1800438:	88 09 17 97 	lbz     r0,6039(r9)
 180043c:	2c 00 00 00 	cmpwi   r0,0
 1800440:	41 82 00 0c 	beq-    180044c <test_ppm_task+0xdc>
 1800444:	38 00 00 01 	li      r0,1
 1800448:	98 0b 17 96 	stb     r0,6038(r11)
 180044c:	3d 20 01 81 	lis     r9,385
 1800450:	a0 09 17 92 	lhz     r0,6034(r9)
 1800454:	28 00 00 1d 	cmplwi  r0,29
 1800458:	40 81 00 10 	ble-    1800468 <test_ppm_task+0xf8>
 180045c:	3d 20 01 81 	lis     r9,385
 1800460:	38 00 00 00 	li      r0,0
 1800464:	98 09 17 99 	stb     r0,6041(r9)
 1800468:	a0 1f 17 92 	lhz     r0,6034(r31)
 180046c:	28 00 01 2b 	cmplwi  r0,299
 1800470:	40 81 00 10 	ble-    1800480 <test_ppm_task+0x110>
 1800474:	3d 20 01 81 	lis     r9,385
 1800478:	38 00 00 01 	li      r0,1
 180047c:	98 09 17 97 	stb     r0,6039(r9)
 1800480:	80 01 00 14 	lwz     r0,20(r1)
 1800484:	7c 08 03 a6 	mtlr    r0
 1800488:	83 e1 00 0c 	lwz     r31,12(r1)
 180048c:	38 21 00 10 	addi    r1,r1,16
 1800490:	4e 80 00 20 	blr

01800494 <check_failsafe_task>:
 1800494:	94 21 ff f0 	stwu    r1,-16(r1)
 1800498:	7c 08 02 a6 	mflr    r0
 180049c:	90 01 00 14 	stw     r0,20(r1)
 18004a0:	3d 20 01 81 	lis     r9,385
 18004a4:	89 69 17 96 	lbz     r11,6038(r9)
 18004a8:	2c 0b 00 00 	cmpwi   r11,0
 18004ac:	40 82 00 14 	bne-    18004c0 <check_failsafe_task+0x2c>
 18004b0:	3d 20 01 81 	lis     r9,385
 18004b4:	88 09 17 99 	lbz     r0,6041(r9)
 18004b8:	2c 00 00 00 	cmpwi   r0,0
 18004bc:	41 82 00 1c 	beq-    18004d8 <check_failsafe_task+0x44>
 18004c0:	2c 0b 00 01 	cmpwi   r11,1
 18004c4:	40 82 00 20 	bne-    18004e4 <check_failsafe_task+0x50>
 18004c8:	3d 20 01 81 	lis     r9,385
 18004cc:	88 09 17 98 	lbz     r0,6040(r9)
 18004d0:	2c 00 00 00 	cmpwi   r0,0
 18004d4:	40 82 00 10 	bne-    18004e4 <check_failsafe_task+0x50>
 18004d8:	3c 60 01 80 	lis     r3,384
 18004dc:	38 63 16 a8 	addi    r3,r3,5800
 18004e0:	48 00 09 49 	bl      1800e28 <servo_set>
 18004e4:	80 01 00 14 	lwz     r0,20(r1)
 18004e8:	7c 08 03 a6 	mtlr    r0
 18004ec:	38 21 00 10 	addi    r1,r1,16
 18004f0:	4e 80 00 20 	blr

018004f4 <check_mega128_values_task>:
 18004f4:	94 21 ff f0 	stwu    r1,-16(r1)
 18004f8:	7c 08 02 a6 	mflr    r0
 18004fc:	90 01 00 14 	stw     r0,20(r1)
 1800500:	39 20 00 36 	li      r9,54
 1800504:	88 09 00 00 	lbz     r0,0(r9)
 1800508:	3d 40 01 81 	lis     r10,385
 180050c:	70 09 00 04 	andi.   r9,r0,4
 1800510:	41 82 00 54 	beq-    1800564 <check_mega128_values_task+0x70>
 1800514:	3d 20 01 81 	lis     r9,385
 1800518:	88 09 17 8c 	lbz     r0,6028(r9)
 180051c:	2c 00 00 00 	cmpwi   r0,0
 1800520:	41 82 00 44 	beq-    1800564 <check_mega128_values_task+0x70>
 1800524:	3d 20 01 81 	lis     r9,385
 1800528:	88 09 17 8b 	lbz     r0,6027(r9)
 180052c:	2c 00 00 00 	cmpwi   r0,0
 1800530:	41 82 00 34 	beq-    1800564 <check_mega128_values_task+0x70>
 1800534:	3d 20 01 81 	lis     r9,385
 1800538:	88 09 17 96 	lbz     r0,6038(r9)
 180053c:	39 60 00 00 	li      r11,0
 1800540:	2c 00 00 01 	cmpwi   r0,1
 1800544:	3d 20 01 81 	lis     r9,385
 1800548:	38 00 00 01 	li      r0,1
 180054c:	99 6a 17 90 	stb     r11,6032(r10)
 1800550:	98 09 17 98 	stb     r0,6040(r9)
 1800554:	40 82 00 10 	bne-    1800564 <check_mega128_values_task+0x70>
 1800558:	3c 60 01 81 	lis     r3,385
 180055c:	38 63 19 96 	addi    r3,r3,6550
 1800560:	48 00 08 c9 	bl      1800e28 <servo_set>
 1800564:	3d 20 01 81 	lis     r9,385
 1800568:	88 09 17 90 	lbz     r0,6032(r9)
 180056c:	2c 00 00 1e 	cmpwi   r0,30
 1800570:	40 82 00 10 	bne-    1800580 <check_mega128_values_task+0x8c>
 1800574:	3d 20 01 81 	lis     r9,385
 1800578:	38 00 00 00 	li      r0,0
 180057c:	98 09 17 98 	stb     r0,6040(r9)
 1800580:	80 01 00 14 	lwz     r0,20(r1)
 1800584:	7c 08 03 a6 	mtlr    r0
 1800588:	38 21 00 10 	addi    r1,r1,16
 180058c:	4e 80 00 20 	blr

01800590 <__vector_5>:
 1800590:	3c a0 01 81 	lis     r5,385
 1800594:	88 c5 17 9c 	lbz     r6,6044(r5)
 1800598:	3d 40 01 81 	lis     r10,385
 180059c:	39 20 00 46 	li      r9,70
 18005a0:	a1 69 00 00 	lhz     r11,0(r9)
 18005a4:	a0 0a 17 9a 	lhz     r0,6042(r10)
 18005a8:	54 c8 06 3e 	clrlwi  r8,r6,24
 18005ac:	2c 08 00 00 	cmpwi   r8,0
 18005b0:	7c 00 58 50 	subf    r0,r0,r11
 18005b4:	54 07 04 3e 	clrlwi  r7,r0,16
 18005b8:	b1 6a 17 9a 	sth     r11,6042(r10)
 18005bc:	40 82 00 34 	bne-    18005f0 <__vector_5+0x60>
 18005c0:	39 20 00 44 	li      r9,68
 18005c4:	3d 40 01 81 	lis     r10,385
 18005c8:	88 09 00 00 	lbz     r0,0(r9)
 18005cc:	89 6a 17 9d 	lbz     r11,6045(r10)
 18005d0:	98 0a 17 9d 	stb     r0,6045(r10)
 18005d4:	7c 0b 00 50 	subf    r0,r11,r0
 18005d8:	54 00 06 3e 	clrlwi  r0,r0,24
 18005dc:	28 00 00 6d 	cmplwi  r0,109
 18005e0:	4c 81 00 20 	blelr   
 18005e4:	38 00 00 01 	li      r0,1
 18005e8:	98 05 17 9c 	stb     r0,6044(r5)
 18005ec:	4e 80 00 20 	blr
 18005f0:	38 07 d4 40 	addi    r0,r7,-11200
 18005f4:	28 00 64 00 	cmplwi  r0,25600
 18005f8:	40 81 00 20 	ble-    1800618 <__vector_5+0x88>
 18005fc:	39 20 00 44 	li      r9,68
 1800600:	89 69 00 00 	lbz     r11,0(r9)
 1800604:	38 00 00 00 	li      r0,0
 1800608:	3d 20 01 81 	lis     r9,385
 180060c:	98 05 17 9c 	stb     r0,6044(r5)
 1800610:	99 69 17 9d 	stb     r11,6045(r9)
 1800614:	4e 80 00 20 	blr
 1800618:	3d 20 01 81 	lis     r9,385
 180061c:	38 08 ff ff 	addi    r0,r8,-1
 1800620:	28 08 00 08 	cmplwi  r8,8
 1800624:	39 29 19 60 	addi    r9,r9,6496
 1800628:	7c 00 02 14 	add     r0,r0,r0
 180062c:	7c e9 03 2e 	sthx    r7,r9,r0
 1800630:	40 81 00 14 	ble-    1800644 <__vector_5+0xb4>
 1800634:	3d 60 01 81 	lis     r11,385
 1800638:	38 00 00 01 	li      r0,1
 180063c:	98 0b 17 9e 	stb     r0,6046(r11)
 1800640:	4b ff ff bc 	b       18005fc <__vector_5+0x6c>
 1800644:	38 06 00 01 	addi    r0,r6,1
 1800648:	98 05 17 9c 	stb     r0,6044(r5)
 180064c:	4e 80 00 20 	blr

01800650 <last_radio_from_ppm>:
 1800650:	94 21 ff c0 	stwu    r1,-64(r1)
 1800654:	92 81 00 10 	stw     r20,16(r1)
 1800658:	92 a1 00 14 	stw     r21,20(r1)
 180065c:	92 c1 00 18 	stw     r22,24(r1)
 1800660:	92 e1 00 1c 	stw     r23,28(r1)
 1800664:	93 01 00 20 	stw     r24,32(r1)
 1800668:	93 21 00 24 	stw     r25,36(r1)
 180066c:	93 41 00 28 	stw     r26,40(r1)
 1800670:	93 61 00 2c 	stw     r27,44(r1)
 1800674:	93 81 00 30 	stw     r28,48(r1)
 1800678:	93 a1 00 34 	stw     r29,52(r1)
 180067c:	93 c1 00 38 	stw     r30,56(r1)
 1800680:	93 e1 00 3c 	stw     r31,60(r1)
 1800684:	3d 40 01 81 	lis     r10,385
 1800688:	a1 2a 19 60 	lhz     r9,6496(r10)
 180068c:	39 29 c1 80 	addi    r9,r9,-16000
 1800690:	7d 29 07 34 	extsh   r9,r9
 1800694:	6d 20 80 00 	xoris   r0,r9,32768
 1800698:	90 01 00 0c 	stw     r0,12(r1)
 180069c:	3d 20 43 30 	lis     r9,17200
 18006a0:	91 21 00 08 	stw     r9,8(r1)
 18006a4:	3d 20 01 80 	lis     r9,384
 18006a8:	39 29 17 30 	addi    r9,r9,5936
 18006ac:	c8 01 00 08 	lfd     f0,8(r1)
 18006b0:	c9 a9 00 00 	lfd     f13,0(r9)
 18006b4:	3d 20 01 80 	lis     r9,384
 18006b8:	39 29 17 38 	addi    r9,r9,5944
 18006bc:	fc 00 68 28 	fsub    f0,f0,f13
 18006c0:	c1 69 00 00 	lfs     f11,0(r9)
 18006c4:	7d 69 5b 78 	mr      r9,r11
 18006c8:	3d 60 01 81 	lis     r11,385
 18006cc:	3d 40 01 81 	lis     r10,385
 18006d0:	fc 00 00 18 	frsp    f0,f0
 18006d4:	ec 00 02 f2 	fmuls   f0,f0,f11
 18006d8:	fd a0 00 90 	fmr     f13,f0
 18006dc:	fd 80 68 1e 	fctiwz  f12,f13
 18006e0:	d9 81 00 08 	stfd    f12,8(r1)
 18006e4:	81 21 00 0c 	lwz     r9,12(r1)
 18006e8:	7d 20 07 34 	extsh   r0,r9
 18006ec:	2c 00 25 80 	cmpwi   r0,9600
 18006f0:	b1 2b 19 84 	sth     r9,6532(r11)
 18006f4:	40 81 00 0c 	ble-    1800700 <last_radio_from_ppm+0xb0>
 18006f8:	38 00 25 80 	li      r0,9600
 18006fc:	48 00 00 10 	b       180070c <last_radio_from_ppm+0xbc>
 1800700:	2c 00 00 00 	cmpwi   r0,0
 1800704:	40 80 00 0c 	bge-    1800710 <last_radio_from_ppm+0xc0>
 1800708:	38 00 00 00 	li      r0,0
 180070c:	b0 0a 19 84 	sth     r0,6532(r10)
 1800710:	3d 40 01 81 	lis     r10,385
 1800714:	a1 2a 19 62 	lhz     r9,6498(r10)
 1800718:	39 29 9c 00 	addi    r9,r9,-25600
 180071c:	7d 29 07 34 	extsh   r9,r9
 1800720:	6d 20 80 00 	xoris   r0,r9,32768
 1800724:	90 01 00 0c 	stw     r0,12(r1)
 1800728:	3d 20 43 30 	lis     r9,17200
 180072c:	91 21 00 08 	stw     r9,8(r1)
 1800730:	3d 20 01 80 	lis     r9,384
 1800734:	39 29 17 30 	addi    r9,r9,5936
 1800738:	c9 a1 00 08 	lfd     f13,8(r1)
 180073c:	c8 09 00 00 	lfd     f0,0(r9)
 1800740:	3d 20 01 81 	lis     r9,385
 1800744:	39 29 19 84 	addi    r9,r9,6532
 1800748:	fd ad 00 28 	fsub    f13,f13,f0
 180074c:	fd a0 68 18 	frsp    f13,f13
 1800750:	fc 00 68 90 	fmr     f0,f13
 1800754:	fd 80 00 1e 	fctiwz  f12,f0
 1800758:	d9 81 00 08 	stfd    f12,8(r1)
 180075c:	81 61 00 0c 	lwz     r11,12(r1)
 1800760:	7d 60 07 34 	extsh   r0,r11
 1800764:	2c 00 25 80 	cmpwi   r0,9600
 1800768:	b1 69 00 02 	sth     r11,2(r9)
 180076c:	40 81 00 0c 	ble-    1800778 <last_radio_from_ppm+0x128>
 1800770:	38 00 25 80 	li      r0,9600
 1800774:	48 00 00 10 	b       1800784 <last_radio_from_ppm+0x134>
 1800778:	2c 00 da 80 	cmpwi   r0,-9600
 180077c:	40 80 00 0c 	bge-    1800788 <last_radio_from_ppm+0x138>
 1800780:	38 00 da 80 	li      r0,-9600
 1800784:	b0 09 00 02 	sth     r0,2(r9)
 1800788:	3d 40 01 81 	lis     r10,385
 180078c:	a1 2a 19 64 	lhz     r9,6500(r10)
 1800790:	39 29 9c 00 	addi    r9,r9,-25600
 1800794:	7d 29 07 34 	extsh   r9,r9
 1800798:	6d 20 80 00 	xoris   r0,r9,32768
 180079c:	90 01 00 0c 	stw     r0,12(r1)
 18007a0:	3d 20 43 30 	lis     r9,17200
 18007a4:	91 21 00 08 	stw     r9,8(r1)
 18007a8:	3d 20 01 80 	lis     r9,384
 18007ac:	39 29 17 30 	addi    r9,r9,5936
 18007b0:	c9 a1 00 08 	lfd     f13,8(r1)
 18007b4:	c8 09 00 00 	lfd     f0,0(r9)
 18007b8:	3d 20 01 81 	lis     r9,385
 18007bc:	39 29 19 84 	addi    r9,r9,6532
 18007c0:	fd ad 00 28 	fsub    f13,f13,f0
 18007c4:	fd a0 68 18 	frsp    f13,f13
 18007c8:	fc 00 68 90 	fmr     f0,f13
 18007cc:	fd 80 00 1e 	fctiwz  f12,f0
 18007d0:	d9 81 00 08 	stfd    f12,8(r1)
 18007d4:	81 61 00 0c 	lwz     r11,12(r1)
 18007d8:	7d 60 07 34 	extsh   r0,r11
 18007dc:	2c 00 25 80 	cmpwi   r0,9600
 18007e0:	b1 69 00 04 	sth     r11,4(r9)
 18007e4:	40 81 00 0c 	ble-    18007f0 <last_radio_from_ppm+0x1a0>
 18007e8:	38 00 25 80 	li      r0,9600
 18007ec:	48 00 00 10 	b       18007fc <last_radio_from_ppm+0x1ac>
 18007f0:	2c 00 da 80 	cmpwi   r0,-9600
 18007f4:	40 80 00 0c 	bge-    1800800 <last_radio_from_ppm+0x1b0>
 18007f8:	38 00 da 80 	li      r0,-9600
 18007fc:	b0 09 00 04 	sth     r0,4(r9)
 1800800:	3d 40 01 81 	lis     r10,385
 1800804:	a1 2a 19 66 	lhz     r9,6502(r10)
 1800808:	39 29 9c 00 	addi    r9,r9,-25600
 180080c:	7d 29 07 34 	extsh   r9,r9
 1800810:	6d 20 80 00 	xoris   r0,r9,32768
 1800814:	90 01 00 0c 	stw     r0,12(r1)
 1800818:	3d 20 43 30 	lis     r9,17200
 180081c:	91 21 00 08 	stw     r9,8(r1)
 1800820:	3d 20 01 80 	lis     r9,384
 1800824:	39 29 17 30 	addi    r9,r9,5936
 1800828:	c9 a1 00 08 	lfd     f13,8(r1)
 180082c:	c8 09 00 00 	lfd     f0,0(r9)
 1800830:	3d 20 01 81 	lis     r9,385
 1800834:	39 29 19 84 	addi    r9,r9,6532
 1800838:	fd ad 00 28 	fsub    f13,f13,f0
 180083c:	fd a0 68 18 	frsp    f13,f13
 1800840:	fc 00 68 90 	fmr     f0,f13
 1800844:	fd 80 00 1e 	fctiwz  f12,f0
 1800848:	d9 81 00 08 	stfd    f12,8(r1)
 180084c:	81 61 00 0c 	lwz     r11,12(r1)
 1800850:	7d 60 07 34 	extsh   r0,r11
 1800854:	2c 00 25 80 	cmpwi   r0,9600
 1800858:	b1 69 00 06 	sth     r11,6(r9)
 180085c:	40 81 00 0c 	ble-    1800868 <last_radio_from_ppm+0x218>
 1800860:	38 00 25 80 	li      r0,9600
 1800864:	48 00 00 10 	b       1800874 <last_radio_from_ppm+0x224>
 1800868:	2c 00 da 80 	cmpwi   r0,-9600
 180086c:	40 80 00 0c 	bge-    1800878 <last_radio_from_ppm+0x228>
 1800870:	38 00 da 80 	li      r0,-9600
 1800874:	b0 09 00 06 	sth     r0,6(r9)
 1800878:	3d 20 01 81 	lis     r9,385
 180087c:	3d 00 01 81 	lis     r8,385
 1800880:	39 89 19 72 	addi    r12,r9,6514
 1800884:	39 08 19 60 	addi    r8,r8,6496
 1800888:	a1 28 00 08 	lhz     r9,8(r8)
 180088c:	a8 0c 00 08 	lha     r0,8(r12)
 1800890:	6c 00 80 00 	xoris   r0,r0,32768
 1800894:	39 29 9c 00 	addi    r9,r9,-25600
 1800898:	3c e0 43 30 	lis     r7,17200
 180089c:	7d 29 07 34 	extsh   r9,r9
 18008a0:	90 01 00 0c 	stw     r0,12(r1)
 18008a4:	6d 20 80 00 	xoris   r0,r9,32768
 18008a8:	90 e1 00 08 	stw     r7,8(r1)
 18008ac:	7d 69 5b 78 	mr      r9,r11
 18008b0:	c9 a1 00 08 	lfd     f13,8(r1)
 18008b4:	90 01 00 0c 	stw     r0,12(r1)
 18008b8:	90 e1 00 08 	stw     r7,8(r1)
 18008bc:	c8 01 00 08 	lfd     f0,8(r1)
 18008c0:	3d 20 01 80 	lis     r9,384
 18008c4:	39 29 17 30 	addi    r9,r9,5936
 18008c8:	c9 69 00 00 	lfd     f11,0(r9)
 18008cc:	3d 20 01 80 	lis     r9,384
 18008d0:	c0 c9 17 28 	lfs     f6,5928(r9)
 18008d4:	fd ad 58 28 	fsub    f13,f13,f11
 18008d8:	7d 66 5b 78 	mr      r6,r11
 18008dc:	fc 00 58 28 	fsub    f0,f0,f11
 18008e0:	a8 0c 00 0a 	lha     r0,10(r12)
 18008e4:	a1 28 00 0a 	lhz     r9,10(r8)
 18008e8:	7d 6a 5b 78 	mr      r10,r11
 18008ec:	fd a0 68 18 	frsp    f13,f13
 18008f0:	6c 00 80 00 	xoris   r0,r0,32768
 18008f4:	fc 00 00 18 	frsp    f0,f0
 18008f8:	39 29 9c 00 	addi    r9,r9,-25600
 18008fc:	7d 29 07 34 	extsh   r9,r9
 1800900:	6d 23 80 00 	xoris   r3,r9,32768
 1800904:	7d 64 5b 78 	mr      r4,r11
 1800908:	ec 00 69 ba 	fmadds  f0,f0,f6,f13
 180090c:	ab 6c 00 0c 	lha     r27,12(r12)
 1800910:	a1 28 00 0c 	lhz     r9,12(r8)
 1800914:	7d 7d 5b 78 	mr      r29,r11
 1800918:	6f 7b 80 00 	xoris   r27,r27,32768
 180091c:	fd a0 00 90 	fmr     f13,f0
 1800920:	39 29 9c 00 	addi    r9,r9,-25600
 1800924:	7d 29 07 34 	extsh   r9,r9
 1800928:	6d 36 80 00 	xoris   r22,r9,32768
 180092c:	7d 65 5b 78 	mr      r5,r11
 1800930:	fd 80 68 1e 	fctiwz  f12,f13
 1800934:	7d 78 5b 78 	mr      r24,r11
 1800938:	ab 8c 00 0e 	lha     r28,14(r12)
 180093c:	a1 28 00 0e 	lhz     r9,14(r8)
 1800940:	6f 9c 80 00 	xoris   r28,r28,32768
 1800944:	d9 81 00 08 	stfd    f12,8(r1)
 1800948:	83 e1 00 0c 	lwz     r31,12(r1)
 180094c:	90 01 00 0c 	stw     r0,12(r1)
 1800950:	90 e1 00 08 	stw     r7,8(r1)
 1800954:	c9 a1 00 08 	lfd     f13,8(r1)
 1800958:	90 61 00 0c 	stw     r3,12(r1)
 180095c:	90 e1 00 08 	stw     r7,8(r1)
 1800960:	c8 01 00 08 	lfd     f0,8(r1)
 1800964:	fd ad 58 28 	fsub    f13,f13,f11
 1800968:	39 29 9c 00 	addi    r9,r9,-25600
 180096c:	fc 00 58 28 	fsub    f0,f0,f11
 1800970:	7d 29 07 34 	extsh   r9,r9
 1800974:	fd a0 68 18 	frsp    f13,f13
 1800978:	6d 37 80 00 	xoris   r23,r9,32768
 180097c:	7d 63 5b 78 	mr      r3,r11
 1800980:	ab 2c 00 10 	lha     r25,16(r12)
 1800984:	fc 00 00 18 	frsp    f0,f0
 1800988:	a1 28 00 10 	lhz     r9,16(r8)
 180098c:	7d 7a 5b 78 	mr      r26,r11
 1800990:	6f 39 80 00 	xoris   r25,r25,32768
 1800994:	39 29 9c 00 	addi    r9,r9,-25600
 1800998:	ec 00 69 ba 	fmadds  f0,f0,f6,f13
 180099c:	7d 29 07 34 	extsh   r9,r9
 18009a0:	7d 68 5b 78 	mr      r8,r11
 18009a4:	6d 35 80 00 	xoris   r21,r9,32768
 18009a8:	3f c0 01 81 	lis     r30,385
 18009ac:	fd a0 00 90 	fmr     f13,f0
 18009b0:	89 3e 17 89 	lbz     r9,6025(r30)
 18009b4:	39 29 00 01 	addi    r9,r9,1
 18009b8:	55 20 06 3e 	clrlwi  r0,r9,24
 18009bc:	fd 40 68 1e 	fctiwz  f10,f13
 18009c0:	2c 00 00 0a 	cmpwi   r0,10
 18009c4:	7f f4 fb 78 	mr      r20,r31
 18009c8:	b3 ec 00 08 	sth     r31,8(r12)
 18009cc:	99 3e 17 89 	stb     r9,6025(r30)
 18009d0:	d9 41 00 08 	stfd    f10,8(r1)
 18009d4:	80 81 00 0c 	lwz     r4,12(r1)
 18009d8:	93 61 00 0c 	stw     r27,12(r1)
 18009dc:	90 e1 00 08 	stw     r7,8(r1)
 18009e0:	c9 81 00 08 	lfd     f12,8(r1)
 18009e4:	92 c1 00 0c 	stw     r22,12(r1)
 18009e8:	90 e1 00 08 	stw     r7,8(r1)
 18009ec:	c8 01 00 08 	lfd     f0,8(r1)
 18009f0:	fd 8c 58 28 	fsub    f12,f12,f11
 18009f4:	b0 8c 00 0a 	sth     r4,10(r12)
 18009f8:	fc 00 58 28 	fsub    f0,f0,f11
 18009fc:	fd 80 60 18 	frsp    f12,f12
 1800a00:	fc 00 00 18 	frsp    f0,f0
 1800a04:	ec 00 61 ba 	fmadds  f0,f0,f6,f12
 1800a08:	fd a0 00 90 	fmr     f13,f0
 1800a0c:	fd 20 68 1e 	fctiwz  f9,f13
 1800a10:	d9 21 00 08 	stfd    f9,8(r1)
 1800a14:	83 01 00 0c 	lwz     r24,12(r1)
 1800a18:	93 81 00 0c 	stw     r28,12(r1)
 1800a1c:	90 e1 00 08 	stw     r7,8(r1)
 1800a20:	c9 81 00 08 	lfd     f12,8(r1)
 1800a24:	92 e1 00 0c 	stw     r23,12(r1)
 1800a28:	90 e1 00 08 	stw     r7,8(r1)
 1800a2c:	c8 01 00 08 	lfd     f0,8(r1)
 1800a30:	fd 8c 58 28 	fsub    f12,f12,f11
 1800a34:	b3 0c 00 0c 	sth     r24,12(r12)
 1800a38:	fc 00 58 28 	fsub    f0,f0,f11
 1800a3c:	fd 80 60 18 	frsp    f12,f12
 1800a40:	fc 00 00 18 	frsp    f0,f0
 1800a44:	ec 00 61 ba 	fmadds  f0,f0,f6,f12
 1800a48:	fd a0 00 90 	fmr     f13,f0
 1800a4c:	fd 00 68 1e 	fctiwz  f8,f13
 1800a50:	d9 01 00 08 	stfd    f8,8(r1)
 1800a54:	80 61 00 0c 	lwz     r3,12(r1)
 1800a58:	93 21 00 0c 	stw     r25,12(r1)
 1800a5c:	90 e1 00 08 	stw     r7,8(r1)
 1800a60:	c9 81 00 08 	lfd     f12,8(r1)
 1800a64:	92 a1 00 0c 	stw     r21,12(r1)
 1800a68:	90 e1 00 08 	stw     r7,8(r1)
 1800a6c:	c8 01 00 08 	lfd     f0,8(r1)
 1800a70:	fd 8c 58 28 	fsub    f12,f12,f11
 1800a74:	b0 6c 00 0e 	sth     r3,14(r12)
 1800a78:	fc 00 58 28 	fsub    f0,f0,f11
 1800a7c:	fd 80 60 18 	frsp    f12,f12
 1800a80:	fc 00 00 18 	frsp    f0,f0
 1800a84:	ec 00 61 ba 	fmadds  f0,f0,f6,f12
 1800a88:	fd a0 00 90 	fmr     f13,f0
 1800a8c:	fc e0 68 1e 	fctiwz  f7,f13
 1800a90:	d8 e1 00 08 	stfd    f7,8(r1)
 1800a94:	81 41 00 0c 	lwz     r10,12(r1)
 1800a98:	b1 4c 00 10 	sth     r10,16(r12)
 1800a9c:	40 82 01 60 	bne-    1800bfc <last_radio_from_ppm+0x5ac>
 1800aa0:	3d 20 01 81 	lis     r9,385
 1800aa4:	39 69 19 84 	addi    r11,r9,6532
 1800aa8:	7e 8a 07 34 	extsh   r10,r20
 1800aac:	38 00 00 00 	li      r0,0
 1800ab0:	39 20 00 00 	li      r9,0
 1800ab4:	2c 0a 25 80 	cmpwi   r10,9600
 1800ab8:	98 1e 17 89 	stb     r0,6025(r30)
 1800abc:	b1 2c 00 08 	sth     r9,8(r12)
 1800ac0:	b3 eb 00 08 	sth     r31,8(r11)
 1800ac4:	40 81 00 0c 	ble-    1800ad0 <last_radio_from_ppm+0x480>
 1800ac8:	38 00 25 80 	li      r0,9600
 1800acc:	48 00 00 10 	b       1800adc <last_radio_from_ppm+0x48c>
 1800ad0:	2c 0a da 80 	cmpwi   r10,-9600
 1800ad4:	40 80 00 0c 	bge-    1800ae0 <last_radio_from_ppm+0x490>
 1800ad8:	38 00 da 80 	li      r0,-9600
 1800adc:	b0 0b 00 08 	sth     r0,8(r11)
 1800ae0:	3d 20 01 81 	lis     r9,385
 1800ae4:	39 29 19 72 	addi    r9,r9,6514
 1800ae8:	a9 49 00 0a 	lha     r10,10(r9)
 1800aec:	3d 60 01 81 	lis     r11,385
 1800af0:	7d 48 53 78 	mr      r8,r10
 1800af4:	38 00 00 00 	li      r0,0
 1800af8:	2c 08 25 80 	cmpwi   r8,9600
 1800afc:	39 6b 19 84 	addi    r11,r11,6532
 1800b00:	b0 09 00 0a 	sth     r0,10(r9)
 1800b04:	b1 4b 00 0a 	sth     r10,10(r11)
 1800b08:	40 81 00 0c 	ble-    1800b14 <last_radio_from_ppm+0x4c4>
 1800b0c:	38 00 25 80 	li      r0,9600
 1800b10:	48 00 00 10 	b       1800b20 <last_radio_from_ppm+0x4d0>
 1800b14:	2c 08 da 80 	cmpwi   r8,-9600
 1800b18:	40 80 00 0c 	bge-    1800b24 <last_radio_from_ppm+0x4d4>
 1800b1c:	38 00 da 80 	li      r0,-9600
 1800b20:	b0 0b 00 0a 	sth     r0,10(r11)
 1800b24:	3d 20 01 81 	lis     r9,385
 1800b28:	39 29 19 72 	addi    r9,r9,6514
 1800b2c:	a9 49 00 0c 	lha     r10,12(r9)
 1800b30:	3d 60 01 81 	lis     r11,385
 1800b34:	7d 48 53 78 	mr      r8,r10
 1800b38:	38 00 00 00 	li      r0,0
 1800b3c:	2c 08 25 80 	cmpwi   r8,9600
 1800b40:	39 6b 19 84 	addi    r11,r11,6532
 1800b44:	b0 09 00 0c 	sth     r0,12(r9)
 1800b48:	b1 4b 00 0c 	sth     r10,12(r11)
 1800b4c:	40 81 00 0c 	ble-    1800b58 <last_radio_from_ppm+0x508>
 1800b50:	38 00 25 80 	li      r0,9600
 1800b54:	48 00 00 10 	b       1800b64 <last_radio_from_ppm+0x514>
 1800b58:	2c 08 da 80 	cmpwi   r8,-9600
 1800b5c:	40 80 00 0c 	bge-    1800b68 <last_radio_from_ppm+0x518>
 1800b60:	38 00 da 80 	li      r0,-9600
 1800b64:	b0 0b 00 0c 	sth     r0,12(r11)
 1800b68:	3d 20 01 81 	lis     r9,385
 1800b6c:	39 29 19 72 	addi    r9,r9,6514
 1800b70:	a9 49 00 0e 	lha     r10,14(r9)
 1800b74:	3d 60 01 81 	lis     r11,385
 1800b78:	7d 48 53 78 	mr      r8,r10
 1800b7c:	38 00 00 00 	li      r0,0
 1800b80:	2c 08 25 80 	cmpwi   r8,9600
 1800b84:	39 6b 19 84 	addi    r11,r11,6532
 1800b88:	b0 09 00 0e 	sth     r0,14(r9)
 1800b8c:	b1 4b 00 0e 	sth     r10,14(r11)
 1800b90:	40 81 00 0c 	ble-    1800b9c <last_radio_from_ppm+0x54c>
 1800b94:	38 00 25 80 	li      r0,9600
 1800b98:	48 00 00 10 	b       1800ba8 <last_radio_from_ppm+0x558>
 1800b9c:	2c 08 da 80 	cmpwi   r8,-9600
 1800ba0:	40 80 00 0c 	bge-    1800bac <last_radio_from_ppm+0x55c>
 1800ba4:	38 00 da 80 	li      r0,-9600
 1800ba8:	b0 0b 00 0e 	sth     r0,14(r11)
 1800bac:	3d 20 01 81 	lis     r9,385
 1800bb0:	39 29 19 72 	addi    r9,r9,6514
 1800bb4:	a9 49 00 10 	lha     r10,16(r9)
 1800bb8:	3d 60 01 81 	lis     r11,385
 1800bbc:	7d 48 53 78 	mr      r8,r10
 1800bc0:	38 00 00 00 	li      r0,0
 1800bc4:	2c 08 25 80 	cmpwi   r8,9600
 1800bc8:	39 6b 19 84 	addi    r11,r11,6532
 1800bcc:	b0 09 00 10 	sth     r0,16(r9)
 1800bd0:	b1 4b 00 10 	sth     r10,16(r11)
 1800bd4:	40 81 00 0c 	ble-    1800be0 <last_radio_from_ppm+0x590>
 1800bd8:	38 00 25 80 	li      r0,9600
 1800bdc:	48 00 00 10 	b       1800bec <last_radio_from_ppm+0x59c>
 1800be0:	2c 08 da 80 	cmpwi   r8,-9600
 1800be4:	40 80 00 0c 	bge-    1800bf0 <last_radio_from_ppm+0x5a0>
 1800be8:	38 00 da 80 	li      r0,-9600
 1800bec:	b0 0b 00 10 	sth     r0,16(r11)
 1800bf0:	3d 20 01 81 	lis     r9,385
 1800bf4:	38 00 00 01 	li      r0,1
 1800bf8:	98 09 17 88 	stb     r0,6024(r9)
 1800bfc:	82 81 00 10 	lwz     r20,16(r1)
 1800c00:	82 a1 00 14 	lwz     r21,20(r1)
 1800c04:	82 c1 00 18 	lwz     r22,24(r1)
 1800c08:	82 e1 00 1c 	lwz     r23,28(r1)
 1800c0c:	83 01 00 20 	lwz     r24,32(r1)
 1800c10:	83 21 00 24 	lwz     r25,36(r1)
 1800c14:	83 41 00 28 	lwz     r26,40(r1)
 1800c18:	83 61 00 2c 	lwz     r27,44(r1)
 1800c1c:	83 81 00 30 	lwz     r28,48(r1)
 1800c20:	83 a1 00 34 	lwz     r29,52(r1)
 1800c24:	83 c1 00 38 	lwz     r30,56(r1)
 1800c28:	83 e1 00 3c 	lwz     r31,60(r1)
 1800c2c:	38 21 00 40 	addi    r1,r1,64
 1800c30:	4e 80 00 20 	blr

01800c34 <servo_init>:
 1800c34:	39 60 00 31 	li      r11,49
 1800c38:	88 0b 00 00 	lbz     r0,0(r11)
 1800c3c:	39 40 00 37 	li      r10,55
 1800c40:	60 00 00 80 	ori     r0,r0,128
 1800c44:	98 0b 00 00 	stb     r0,0(r11)
 1800c48:	89 2a 00 00 	lbz     r9,0(r10)
 1800c4c:	39 60 00 32 	li      r11,50
 1800c50:	61 29 00 02 	ori     r9,r9,2
 1800c54:	99 2a 00 00 	stb     r9,0(r10)
 1800c58:	88 0b 00 00 	lbz     r0,0(r11)
 1800c5c:	39 40 00 38 	li      r10,56
 1800c60:	60 00 00 80 	ori     r0,r0,128
 1800c64:	98 0b 00 00 	stb     r0,0(r11)
 1800c68:	89 2a 00 00 	lbz     r9,0(r10)
 1800c6c:	3d 60 01 81 	lis     r11,385
 1800c70:	71 29 00 fd 	andi.   r9,r9,253
 1800c74:	99 2a 00 00 	stb     r9,0(r10)
 1800c78:	39 6b 17 a4 	addi    r11,r11,6052
 1800c7c:	39 40 00 00 	li      r10,0
 1800c80:	39 00 5d c0 	li      r8,24000
 1800c84:	7d 2a 52 14 	add     r9,r10,r10
 1800c88:	38 0a 00 01 	addi    r0,r10,1
 1800c8c:	54 0a 06 3e 	clrlwi  r10,r0,24
 1800c90:	28 0a 00 09 	cmplwi  r10,9
 1800c94:	7d 0b 4b 2e 	sthx    r8,r11,r9
 1800c98:	40 81 ff ec 	ble+    1800c84 <servo_init+0x50>
 1800c9c:	39 20 00 4a 	li      r9,74
 1800ca0:	38 00 80 00 	li      r0,-32768
 1800ca4:	b0 09 00 00 	sth     r0,0(r9)
 1800ca8:	39 60 00 4f 	li      r11,79
 1800cac:	88 0b 00 00 	lbz     r0,0(r11)
 1800cb0:	39 40 00 58 	li      r10,88
 1800cb4:	60 00 00 40 	ori     r0,r0,64
 1800cb8:	98 0b 00 00 	stb     r0,0(r11)
 1800cbc:	39 20 00 10 	li      r9,16
 1800cc0:	99 2a 00 00 	stb     r9,0(r10)
 1800cc4:	39 60 00 32 	li      r11,50
 1800cc8:	89 2b 00 00 	lbz     r9,0(r11)
 1800ccc:	39 40 00 59 	li      r10,89
 1800cd0:	55 29 06 7e 	clrlwi  r9,r9,25
 1800cd4:	99 2b 00 00 	stb     r9,0(r11)
 1800cd8:	88 0a 00 00 	lbz     r0,0(r10)
 1800cdc:	60 00 00 10 	ori     r0,r0,16
 1800ce0:	98 0a 00 00 	stb     r0,0(r10)
 1800ce4:	4e 80 00 20 	blr

01800ce8 <__vector_6>:
 1800ce8:	3c c0 01 81 	lis     r6,385
 1800cec:	88 06 17 8a 	lbz     r0,6026(r6)
 1800cf0:	28 00 00 09 	cmplwi  r0,9
 1800cf4:	40 81 00 28 	ble-    1800d1c <__vector_6+0x34>
 1800cf8:	39 60 00 32 	li      r11,50
 1800cfc:	88 0b 00 00 	lbz     r0,0(r11)
 1800d00:	39 40 00 00 	li      r10,0
 1800d04:	60 00 00 80 	ori     r0,r0,128
 1800d08:	98 0b 00 00 	stb     r0,0(r11)
 1800d0c:	89 2b 00 00 	lbz     r9,0(r11)
 1800d10:	99 46 17 8a 	stb     r10,6026(r6)
 1800d14:	55 29 06 7e 	clrlwi  r9,r9,25
 1800d18:	99 2b 00 00 	stb     r9,0(r11)
 1800d1c:	89 06 17 8a 	lbz     r8,6026(r6)
 1800d20:	3d 20 01 81 	lis     r9,385
 1800d24:	55 00 08 3c 	rlwinm  r0,r8,1,0,30
 1800d28:	39 29 17 a4 	addi    r9,r9,6052
 1800d2c:	38 e0 00 4a 	li      r7,74
 1800d30:	7d 69 02 2e 	lhzx    r11,r9,r0
 1800d34:	a1 47 00 00 	lhz     r10,0(r7)
 1800d38:	39 20 00 4f 	li      r9,79
 1800d3c:	7d 6b 52 14 	add     r11,r11,r10
 1800d40:	b1 67 00 00 	sth     r11,0(r7)
 1800d44:	88 09 00 00 	lbz     r0,0(r9)
 1800d48:	39 08 00 01 	addi    r8,r8,1
 1800d4c:	60 00 00 08 	ori     r0,r0,8
 1800d50:	98 09 00 00 	stb     r0,0(r9)
 1800d54:	99 06 17 8a 	stb     r8,6026(r6)
 1800d58:	4e 80 00 20 	blr

01800d5c <servo_set_one>:
 1800d5c:	54 84 20 36 	rlwinm  r4,r4,4,0,27
 1800d60:	28 04 3e 7f 	cmplwi  r4,15999
 1800d64:	3d 20 01 81 	lis     r9,385
 1800d68:	39 69 17 a4 	addi    r11,r9,6052
 1800d6c:	54 63 08 3c 	rlwinm  r3,r3,1,0,30
 1800d70:	40 81 00 28 	ble-    1800d98 <servo_set_one+0x3c>
 1800d74:	20 04 7d 00 	subfic  r0,r4,32000
 1800d78:	7c 00 01 10 	subfe   r0,r0,r0
 1800d7c:	7c 00 03 b8 	nand    r0,r0,r0
 1800d80:	7c 09 00 f8 	not     r9,r0
 1800d84:	7c 80 00 38 	and     r0,r4,r0
 1800d88:	71 29 7d 00 	andi.   r9,r9,32000
 1800d8c:	7c 00 4b 78 	or      r0,r0,r9
 1800d90:	7c 0b 1b 2e 	sthx    r0,r11,r3
 1800d94:	4e 80 00 20 	blr
 1800d98:	38 00 3e 80 	li      r0,16000
 1800d9c:	7c 0b 1b 2e 	sthx    r0,r11,r3
 1800da0:	4e 80 00 20 	blr

01800da4 <servo_transmit>:
 1800da4:	94 21 ff e0 	stwu    r1,-32(r1)
 1800da8:	7c 08 02 a6 	mflr    r0
 1800dac:	93 a1 00 14 	stw     r29,20(r1)
 1800db0:	93 c1 00 18 	stw     r30,24(r1)
 1800db4:	93 e1 00 1c 	stw     r31,28(r1)
 1800db8:	90 01 00 24 	stw     r0,36(r1)
 1800dbc:	38 60 00 00 	li      r3,0
 1800dc0:	48 00 05 d5 	bl      1801394 <uart_transmit>
 1800dc4:	3b e0 00 00 	li      r31,0
 1800dc8:	38 60 00 00 	li      r3,0
 1800dcc:	48 00 05 c9 	bl      1801394 <uart_transmit>
 1800dd0:	3d 20 01 81 	lis     r9,385
 1800dd4:	3b c9 17 a4 	addi    r30,r9,6052
 1800dd8:	7f bf fa 14 	add     r29,r31,r31
 1800ddc:	7c 7e ea 2e 	lhzx    r3,r30,r29
 1800de0:	54 63 c2 3e 	rlwinm  r3,r3,24,8,31
 1800de4:	48 00 05 b1 	bl      1801394 <uart_transmit>
 1800de8:	7f bd f2 14 	add     r29,r29,r30
 1800dec:	88 7d 00 01 	lbz     r3,1(r29)
 1800df0:	48 00 05 a5 	bl      1801394 <uart_transmit>
 1800df4:	38 1f 00 01 	addi    r0,r31,1
 1800df8:	54 1f 06 3e 	clrlwi  r31,r0,24
 1800dfc:	28 1f 00 09 	cmplwi  r31,9
 1800e00:	40 81 ff d8 	ble+    1800dd8 <servo_transmit+0x34>
 1800e04:	38 60 00 0a 	li      r3,10
 1800e08:	48 00 05 8d 	bl      1801394 <uart_transmit>
 1800e0c:	80 01 00 24 	lwz     r0,36(r1)
 1800e10:	7c 08 03 a6 	mtlr    r0
 1800e14:	83 a1 00 14 	lwz     r29,20(r1)
 1800e18:	83 c1 00 18 	lwz     r30,24(r1)
 1800e1c:	83 e1 00 1c 	lwz     r31,28(r1)
 1800e20:	38 21 00 20 	addi    r1,r1,32
 1800e24:	4e 80 00 20 	blr

01800e28 <servo_set>:
 1800e28:	94 21 ff f0 	stwu    r1,-16(r1)
 1800e2c:	a8 03 00 0a 	lha     r0,10(r3)
 1800e30:	7c 00 02 14 	add     r0,r0,r0
 1800e34:	6c 00 80 00 	xoris   r0,r0,32768
 1800e38:	90 01 00 0c 	stw     r0,12(r1)
 1800e3c:	3d 20 43 30 	lis     r9,17200
 1800e40:	91 21 00 08 	stw     r9,8(r1)
 1800e44:	3d 20 01 80 	lis     r9,384
 1800e48:	39 29 17 70 	addi    r9,r9,6000
 1800e4c:	c8 01 00 08 	lfd     f0,8(r1)
 1800e50:	c9 a9 00 00 	lfd     f13,0(r9)
 1800e54:	3d 20 01 80 	lis     r9,384
 1800e58:	c9 89 17 40 	lfd     f12,5952(r9)
 1800e5c:	fc 00 68 28 	fsub    f0,f0,f13
 1800e60:	3d 20 01 81 	lis     r9,385
 1800e64:	39 49 17 a4 	addi    r10,r9,6052
 1800e68:	3d 00 01 81 	lis     r8,385
 1800e6c:	fc 00 03 32 	fmul    f0,f0,f12
 1800e70:	fd 60 00 1e 	fctiwz  f11,f0
 1800e74:	d9 61 00 08 	stfd    f11,8(r1)
 1800e78:	81 61 00 0c 	lwz     r11,12(r1)
 1800e7c:	39 6b 3e 80 	addi    r11,r11,16000
 1800e80:	55 6b 04 3e 	clrlwi  r11,r11,16
 1800e84:	28 0b 3e 7f 	cmplwi  r11,15999
 1800e88:	40 81 00 24 	ble-    1800eac <servo_set+0x84>
 1800e8c:	20 0b 7d 00 	subfic  r0,r11,32000
 1800e90:	7c 00 01 10 	subfe   r0,r0,r0
 1800e94:	7c 00 03 b8 	nand    r0,r0,r0
 1800e98:	7c 09 00 f8 	not     r9,r0
 1800e9c:	7d 60 00 38 	and     r0,r11,r0
 1800ea0:	71 29 7d 00 	andi.   r9,r9,32000
 1800ea4:	7c 00 4b 78 	or      r0,r0,r9
 1800ea8:	48 00 00 08 	b       1800eb0 <servo_set+0x88>
 1800eac:	38 00 3e 80 	li      r0,16000
 1800eb0:	b0 0a 00 06 	sth     r0,6(r10)
 1800eb4:	a8 03 00 00 	lha     r0,0(r3)
 1800eb8:	7c 00 02 14 	add     r0,r0,r0
 1800ebc:	6c 00 80 00 	xoris   r0,r0,32768
 1800ec0:	90 01 00 0c 	stw     r0,12(r1)
 1800ec4:	3d 20 43 30 	lis     r9,17200
 1800ec8:	91 21 00 08 	stw     r9,8(r1)
 1800ecc:	3d 20 01 80 	lis     r9,384
 1800ed0:	39 29 17 70 	addi    r9,r9,6000
 1800ed4:	c8 01 00 08 	lfd     f0,8(r1)
 1800ed8:	c9 a9 00 00 	lfd     f13,0(r9)
 1800edc:	3d 20 01 80 	lis     r9,384
 1800ee0:	c9 89 17 40 	lfd     f12,5952(r9)
 1800ee4:	fc 00 68 28 	fsub    f0,f0,f13
 1800ee8:	3d 20 01 81 	lis     r9,385
 1800eec:	39 49 17 a4 	addi    r10,r9,6052
 1800ef0:	fc 00 03 32 	fmul    f0,f0,f12
 1800ef4:	fd 60 00 1e 	fctiwz  f11,f0
 1800ef8:	d9 61 00 08 	stfd    f11,8(r1)
 1800efc:	81 61 00 0c 	lwz     r11,12(r1)
 1800f00:	39 6b 3e 80 	addi    r11,r11,16000
 1800f04:	55 6b 04 3e 	clrlwi  r11,r11,16
 1800f08:	28 0b 3e 7f 	cmplwi  r11,15999
 1800f0c:	40 81 00 24 	ble-    1800f30 <servo_set+0x108>
 1800f10:	20 0b 7d 00 	subfic  r0,r11,32000
 1800f14:	7c 00 01 10 	subfe   r0,r0,r0
 1800f18:	7c 00 03 b8 	nand    r0,r0,r0
 1800f1c:	7c 09 00 f8 	not     r9,r0
 1800f20:	7d 60 00 38 	and     r0,r11,r0
 1800f24:	71 29 7d 00 	andi.   r9,r9,32000
 1800f28:	7c 00 4b 78 	or      r0,r0,r9
 1800f2c:	48 00 00 08 	b       1800f34 <servo_set+0x10c>
 1800f30:	38 00 3e 80 	li      r0,16000
 1800f34:	b0 0a 00 12 	sth     r0,18(r10)
 1800f38:	a8 03 00 04 	lha     r0,4(r3)
 1800f3c:	6c 00 80 00 	xoris   r0,r0,32768
 1800f40:	90 01 00 0c 	stw     r0,12(r1)
 1800f44:	3d 20 43 30 	lis     r9,17200
 1800f48:	91 21 00 08 	stw     r9,8(r1)
 1800f4c:	3d 20 01 80 	lis     r9,384
 1800f50:	39 29 17 70 	addi    r9,r9,6000
 1800f54:	c8 01 00 08 	lfd     f0,8(r1)
 1800f58:	c9 a9 00 00 	lfd     f13,0(r9)
 1800f5c:	3d 20 01 80 	lis     r9,384
 1800f60:	c9 89 17 48 	lfd     f12,5960(r9)
 1800f64:	fc 00 68 28 	fsub    f0,f0,f13
 1800f68:	3d 20 01 81 	lis     r9,385
 1800f6c:	39 49 17 a4 	addi    r10,r9,6052
 1800f70:	fc 00 03 32 	fmul    f0,f0,f12
 1800f74:	fd 60 00 1e 	fctiwz  f11,f0
 1800f78:	d9 61 00 08 	stfd    f11,8(r1)
 1800f7c:	81 61 00 0c 	lwz     r11,12(r1)
 1800f80:	39 6b 5f a0 	addi    r11,r11,24480
 1800f84:	55 6b 04 3e 	clrlwi  r11,r11,16
 1800f88:	28 0b 3e 7f 	cmplwi  r11,15999
 1800f8c:	40 81 00 24 	ble-    1800fb0 <servo_set+0x188>
 1800f90:	20 0b 7d 00 	subfic  r0,r11,32000
 1800f94:	7c 00 01 10 	subfe   r0,r0,r0
 1800f98:	7c 00 03 b8 	nand    r0,r0,r0
 1800f9c:	7c 09 00 f8 	not     r9,r0
 1800fa0:	7d 60 00 38 	and     r0,r11,r0
 1800fa4:	71 29 7d 00 	andi.   r9,r9,32000
 1800fa8:	7c 00 4b 78 	or      r0,r0,r9
 1800fac:	48 00 00 08 	b       1800fb4 <servo_set+0x18c>
 1800fb0:	38 00 3e 80 	li      r0,16000
 1800fb4:	b0 0a 00 0c 	sth     r0,12(r10)
 1800fb8:	a9 43 00 02 	lha     r10,2(r3)
 1800fbc:	6d 40 80 00 	xoris   r0,r10,32768
 1800fc0:	3d 20 43 30 	lis     r9,17200
 1800fc4:	90 01 00 0c 	stw     r0,12(r1)
 1800fc8:	91 21 00 08 	stw     r9,8(r1)
 1800fcc:	3d 20 01 80 	lis     r9,384
 1800fd0:	39 29 17 70 	addi    r9,r9,6000
 1800fd4:	c9 61 00 08 	lfd     f11,8(r1)
 1800fd8:	c8 09 00 00 	lfd     f0,0(r9)
 1800fdc:	2c 0a 00 00 	cmpwi   r10,0
 1800fe0:	fd 6b 00 28 	fsub    f11,f11,f0
 1800fe4:	41 81 00 28 	bgt-    180100c <servo_set+0x1e4>
 1800fe8:	3d 20 01 80 	lis     r9,384
 1800fec:	c8 09 17 50 	lfd     f0,5968(r9)
 1800ff0:	3d 60 01 80 	lis     r11,384
 1800ff4:	c9 ab 17 58 	lfd     f13,5976(r11)
 1800ff8:	fc 0b 00 32 	fmul    f0,f11,f0
 1800ffc:	fc 00 03 72 	fmul    f0,f0,f13
 1801000:	fd 80 00 1e 	fctiwz  f12,f0
 1801004:	d9 81 00 08 	stfd    f12,8(r1)
 1801008:	48 00 00 18 	b       1801020 <servo_set+0x1f8>
 180100c:	3d 60 01 80 	lis     r11,384
 1801010:	c8 0b 17 58 	lfd     f0,5976(r11)
 1801014:	fc 0b 00 32 	fmul    f0,f11,f0
 1801018:	fd a0 00 1e 	fctiwz  f13,f0
 180101c:	d9 a1 00 08 	stfd    f13,8(r1)
 1801020:	81 21 00 0c 	lwz     r9,12(r1)
 1801024:	39 29 64 00 	addi    r9,r9,25600
 1801028:	55 20 04 3e 	clrlwi  r0,r9,16
 180102c:	7c 0b 03 78 	mr      r11,r0
 1801030:	28 0b 3e 7f 	cmplwi  r11,15999
 1801034:	40 81 00 24 	ble-    1801058 <servo_set+0x230>
 1801038:	20 0b 7d 00 	subfic  r0,r11,32000
 180103c:	7c 00 01 10 	subfe   r0,r0,r0
 1801040:	7c 00 03 b8 	nand    r0,r0,r0
 1801044:	7c 09 00 f8 	not     r9,r0
 1801048:	7d 60 00 38 	and     r0,r11,r0
 180104c:	71 29 7d 00 	andi.   r9,r9,32000
 1801050:	7c 00 4b 78 	or      r0,r0,r9
 1801054:	48 00 00 08 	b       180105c <servo_set+0x234>
 1801058:	38 00 3e 80 	li      r0,16000
 180105c:	b0 08 17 a4 	sth     r0,6052(r8)
 1801060:	6d 40 80 00 	xoris   r0,r10,32768
 1801064:	3d 20 43 30 	lis     r9,17200
 1801068:	90 01 00 0c 	stw     r0,12(r1)
 180106c:	91 21 00 08 	stw     r9,8(r1)
 1801070:	3d 20 01 80 	lis     r9,384
 1801074:	39 29 17 70 	addi    r9,r9,6000
 1801078:	c9 61 00 08 	lfd     f11,8(r1)
 180107c:	c8 09 00 00 	lfd     f0,0(r9)
 1801080:	2c 0a 00 00 	cmpwi   r10,0
 1801084:	fd 6b 00 28 	fsub    f11,f11,f0
 1801088:	40 81 00 28 	ble-    18010b0 <servo_set+0x288>
 180108c:	3d 20 01 80 	lis     r9,384
 1801090:	c8 09 17 50 	lfd     f0,5968(r9)
 1801094:	3d 60 01 80 	lis     r11,384
 1801098:	c9 ab 17 60 	lfd     f13,5984(r11)
 180109c:	fc 0b 00 32 	fmul    f0,f11,f0
 18010a0:	fc 00 03 72 	fmul    f0,f0,f13
 18010a4:	fd 80 00 1e 	fctiwz  f12,f0
 18010a8:	d9 81 00 08 	stfd    f12,8(r1)
 18010ac:	48 00 00 18 	b       18010c4 <servo_set+0x29c>
 18010b0:	3d 60 01 80 	lis     r11,384
 18010b4:	c8 0b 17 60 	lfd     f0,5984(r11)
 18010b8:	fc 0b 00 32 	fmul    f0,f11,f0
 18010bc:	fd a0 00 1e 	fctiwz  f13,f0
 18010c0:	d9 a1 00 08 	stfd    f13,8(r1)
 18010c4:	81 21 00 0c 	lwz     r9,12(r1)
 18010c8:	39 29 67 20 	addi    r9,r9,26400
 18010cc:	55 20 04 3e 	clrlwi  r0,r9,16
 18010d0:	7c 0b 03 78 	mr      r11,r0
 18010d4:	28 0b 3e 7f 	cmplwi  r11,15999
 18010d8:	3d 20 01 81 	lis     r9,385
 18010dc:	39 49 17 a4 	addi    r10,r9,6052
 18010e0:	40 81 00 24 	ble-    1801104 <servo_set+0x2dc>
 18010e4:	20 0b 7d 00 	subfic  r0,r11,32000
 18010e8:	7c 00 01 10 	subfe   r0,r0,r0
 18010ec:	7c 00 03 b8 	nand    r0,r0,r0
 18010f0:	7c 09 00 f8 	not     r9,r0
 18010f4:	7d 60 00 38 	and     r0,r11,r0
 18010f8:	71 29 7d 00 	andi.   r9,r9,32000
 18010fc:	7c 00 4b 78 	or      r0,r0,r9
 1801100:	48 00 00 08 	b       1801108 <servo_set+0x2e0>
 1801104:	38 00 3e 80 	li      r0,16000
 1801108:	b0 0a 00 04 	sth     r0,4(r10)
 180110c:	a8 03 00 06 	lha     r0,6(r3)
 1801110:	6c 00 80 00 	xoris   r0,r0,32768
 1801114:	90 01 00 0c 	stw     r0,12(r1)
 1801118:	3c 00 43 30 	lis     r0,17200
 180111c:	a9 63 00 02 	lha     r11,2(r3)
 1801120:	90 01 00 08 	stw     r0,8(r1)
 1801124:	c8 01 00 08 	lfd     f0,8(r1)
 1801128:	6d 6b 80 00 	xoris   r11,r11,32768
 180112c:	91 61 00 0c 	stw     r11,12(r1)
 1801130:	90 01 00 08 	stw     r0,8(r1)
 1801134:	c9 81 00 08 	lfd     f12,8(r1)
 1801138:	3d 20 01 80 	lis     r9,384
 180113c:	39 29 17 70 	addi    r9,r9,6000
 1801140:	c9 a9 00 00 	lfd     f13,0(r9)
 1801144:	3d 20 01 80 	lis     r9,384
 1801148:	c9 69 17 68 	lfd     f11,5992(r9)
 180114c:	fc 00 68 28 	fsub    f0,f0,f13
 1801150:	fd 8c 68 28 	fsub    f12,f12,f13
 1801154:	3d 20 01 81 	lis     r9,385
 1801158:	39 49 17 a4 	addi    r10,r9,6052
 180115c:	fc 00 60 2a 	fadd    f0,f0,f12
 1801160:	fc 00 02 f2 	fmul    f0,f0,f11
 1801164:	fd 40 00 1e 	fctiwz  f10,f0
 1801168:	d9 41 00 08 	stfd    f10,8(r1)
 180116c:	81 61 00 0c 	lwz     r11,12(r1)
 1801170:	39 6b 5a a0 	addi    r11,r11,23200
 1801174:	55 6b 04 3e 	clrlwi  r11,r11,16
 1801178:	28 0b 3e 7f 	cmplwi  r11,15999
 180117c:	40 81 00 24 	ble-    18011a0 <servo_set+0x378>
 1801180:	20 0b 7d 00 	subfic  r0,r11,32000
 1801184:	7c 00 01 10 	subfe   r0,r0,r0
 1801188:	7c 00 03 b8 	nand    r0,r0,r0
 180118c:	7c 09 00 f8 	not     r9,r0
 1801190:	7d 60 00 38 	and     r0,r11,r0
 1801194:	71 29 7d 00 	andi.   r9,r9,32000
 1801198:	7c 00 4b 78 	or      r0,r0,r9
 180119c:	48 00 00 08 	b       18011a4 <servo_set+0x37c>
 18011a0:	38 00 3e 80 	li      r0,16000
 18011a4:	b0 0a 00 0e 	sth     r0,14(r10)
 18011a8:	38 21 00 10 	addi    r1,r1,16
 18011ac:	4e 80 00 20 	blr

018011b0 <spi_reset>:
 18011b0:	39 00 00 00 	li      r8,0
 18011b4:	3d 60 01 81 	lis     r11,385
 18011b8:	99 0b 17 8d 	stb     r8,6029(r11)
 18011bc:	3d 20 01 81 	lis     r9,385
 18011c0:	99 09 17 a0 	stb     r8,6048(r9)
 18011c4:	89 4b 17 8d 	lbz     r10,6029(r11)
 18011c8:	3d 20 01 81 	lis     r9,385
 18011cc:	39 29 19 ac 	addi    r9,r9,6572
 18011d0:	7c 0a 48 ae 	lbzx    r0,r10,r9
 18011d4:	3d 60 01 81 	lis     r11,385
 18011d8:	98 0b 17 a1 	stb     r0,6049(r11)
 18011dc:	89 4b 17 a1 	lbz     r10,6049(r11)
 18011e0:	39 20 00 2f 	li      r9,47
 18011e4:	99 49 00 00 	stb     r10,0(r9)
 18011e8:	3d 60 01 81 	lis     r11,385
 18011ec:	99 0b 17 8b 	stb     r8,6027(r11)
 18011f0:	4e 80 00 20 	blr

018011f4 <spi_init>:
 18011f4:	39 60 00 37 	li      r11,55
 18011f8:	88 0b 00 00 	lbz     r0,0(r11)
 18011fc:	39 40 00 2d 	li      r10,45
 1801200:	60 00 00 10 	ori     r0,r0,16
 1801204:	98 0b 00 00 	stb     r0,0(r11)
 1801208:	39 20 00 40 	li      r9,64
 180120c:	99 2a 00 00 	stb     r9,0(r10)
 1801210:	88 0a 00 00 	lbz     r0,0(r10)
 1801214:	3d 20 01 81 	lis     r9,385
 1801218:	39 29 19 ac 	addi    r9,r9,6572
 180121c:	39 60 00 00 	li      r11,0
 1801220:	60 00 00 80 	ori     r0,r0,128
 1801224:	99 69 00 14 	stb     r11,20(r9)
 1801228:	98 0a 00 00 	stb     r0,0(r10)
 180122c:	99 69 00 13 	stb     r11,19(r9)
 1801230:	4e 80 00 20 	blr

01801234 <__vector_10>:
 1801234:	3d 60 01 81 	lis     r11,385
 1801238:	89 2b 17 8d 	lbz     r9,6029(r11)
 180123c:	3d 40 01 81 	lis     r10,385
 1801240:	39 29 00 01 	addi    r9,r9,1
 1801244:	99 2b 17 8d 	stb     r9,6029(r11)
 1801248:	38 e0 00 01 	li      r7,1
 180124c:	98 ea 17 8c 	stb     r7,6028(r10)
 1801250:	88 0b 17 8d 	lbz     r0,6029(r11)
 1801254:	3d 20 01 81 	lis     r9,385
 1801258:	28 00 00 17 	cmplwi  r0,23
 180125c:	4d 81 00 20 	bgtlr   
 1801260:	88 09 17 8d 	lbz     r0,6029(r9)
 1801264:	2c 00 00 17 	cmpwi   r0,23
 1801268:	40 82 00 4c 	bne-    18012b4 <__vector_10+0x80>
 180126c:	39 20 00 2f 	li      r9,47
 1801270:	89 09 00 00 	lbz     r8,0(r9)
 1801274:	3d 60 01 81 	lis     r11,385
 1801278:	89 4b 17 a0 	lbz     r10,6048(r11)
 180127c:	55 00 06 3e 	clrlwi  r0,r8,24
 1801280:	7c 00 50 00 	cmpw    r0,r10
 1801284:	3d 20 01 81 	lis     r9,385
 1801288:	99 09 17 9f 	stb     r8,6047(r9)
 180128c:	40 82 00 10 	bne-    180129c <__vector_10+0x68>
 1801290:	3d 20 01 81 	lis     r9,385
 1801294:	98 e9 17 8b 	stb     r7,6027(r9)
 1801298:	4e 80 00 20 	blr
 180129c:	3d 60 01 81 	lis     r11,385
 18012a0:	39 6b 19 ac 	addi    r11,r11,6572
 18012a4:	89 2b 00 14 	lbz     r9,20(r11)
 18012a8:	39 29 00 01 	addi    r9,r9,1
 18012ac:	99 2b 00 14 	stb     r9,20(r11)
 18012b0:	4e 80 00 20 	blr
 18012b4:	88 09 17 8d 	lbz     r0,6029(r9)
 18012b8:	28 00 00 15 	cmplwi  r0,21
 18012bc:	41 81 00 38 	bgt-    18012f4 <__vector_10+0xc0>
 18012c0:	88 09 17 8d 	lbz     r0,6029(r9)
 18012c4:	3d 20 01 81 	lis     r9,385
 18012c8:	39 29 19 ac 	addi    r9,r9,6572
 18012cc:	7d 49 00 ae 	lbzx    r10,r9,r0
 18012d0:	39 60 00 2f 	li      r11,47
 18012d4:	99 4b 00 00 	stb     r10,0(r11)
 18012d8:	3d 20 01 81 	lis     r9,385
 18012dc:	88 09 17 a1 	lbz     r0,6049(r9)
 18012e0:	3d 60 01 81 	lis     r11,385
 18012e4:	7c 00 52 78 	xor     r0,r0,r10
 18012e8:	98 09 17 a1 	stb     r0,6049(r9)
 18012ec:	99 4b 17 9f 	stb     r10,6047(r11)
 18012f0:	48 00 00 14 	b       1801304 <__vector_10+0xd0>
 18012f4:	3d 20 01 81 	lis     r9,385
 18012f8:	88 09 17 a1 	lbz     r0,6049(r9)
 18012fc:	39 60 00 2f 	li      r11,47
 1801300:	98 0b 00 00 	stb     r0,0(r11)
 1801304:	39 20 00 2f 	li      r9,47
 1801308:	89 49 00 00 	lbz     r10,0(r9)
 180130c:	3d 60 01 81 	lis     r11,385
 1801310:	88 eb 17 8d 	lbz     r7,6029(r11)
 1801314:	3d 00 01 81 	lis     r8,385
 1801318:	88 08 17 a0 	lbz     r0,6048(r8)
 180131c:	3d 20 01 81 	lis     r9,385
 1801320:	39 29 19 95 	addi    r9,r9,6549
 1801324:	7d 47 49 ae 	stbx    r10,r7,r9
 1801328:	7c 00 52 78 	xor     r0,r0,r10
 180132c:	3d 60 01 81 	lis     r11,385
 1801330:	98 08 17 a0 	stb     r0,6048(r8)
 1801334:	99 4b 17 9f 	stb     r10,6047(r11)
 1801338:	4e 80 00 20 	blr

0180133c <uart_init_tx>:
 180133c:	39 00 00 40 	li      r8,64
 1801340:	39 40 00 00 	li      r10,0
 1801344:	99 48 00 00 	stb     r10,0(r8)
 1801348:	39 60 00 29 	li      r11,41
 180134c:	38 00 00 19 	li      r0,25
 1801350:	98 0b 00 00 	stb     r0,0(r11)
 1801354:	39 20 00 2b 	li      r9,43
 1801358:	99 49 00 00 	stb     r10,0(r9)
 180135c:	39 60 00 2a 	li      r11,42
 1801360:	38 00 00 08 	li      r0,8
 1801364:	98 0b 00 00 	stb     r0,0(r11)
 1801368:	39 20 00 86 	li      r9,134
 180136c:	99 28 00 00 	stb     r9,0(r8)
 1801370:	4e 80 00 20 	blr

01801374 <uart_init_rx>:
 1801374:	39 20 00 2a 	li      r9,42
 1801378:	88 09 00 00 	lbz     r0,0(r9)
 180137c:	60 00 00 10 	ori     r0,r0,16
 1801380:	98 09 00 00 	stb     r0,0(r9)
 1801384:	89 69 00 00 	lbz     r11,0(r9)
 1801388:	61 6b 00 80 	ori     r11,r11,128
 180138c:	99 69 00 00 	stb     r11,0(r9)
 1801390:	4e 80 00 20 	blr

01801394 <uart_transmit>:
 1801394:	39 60 00 2a 	li      r11,42
 1801398:	88 0b 00 00 	lbz     r0,0(r11)
 180139c:	70 09 00 40 	andi.   r9,r0,64
 18013a0:	41 82 00 3c 	beq-    18013dc <uart_transmit+0x48>
 18013a4:	3c e0 01 81 	lis     r7,385
 18013a8:	89 07 17 a2 	lbz     r8,6050(r7)
 18013ac:	3d 20 01 81 	lis     r9,385
 18013b0:	55 0a 06 3e 	clrlwi  r10,r8,24
 18013b4:	89 69 17 a3 	lbz     r11,6051(r9)
 18013b8:	38 0a 00 01 	addi    r0,r10,1
 18013bc:	7c 0b 00 00 	cmpw    r11,r0
 18013c0:	4d 82 00 20 	beqlr   
 18013c4:	3d 20 01 81 	lis     r9,385
 18013c8:	39 29 17 b8 	addi    r9,r9,6072
 18013cc:	38 08 00 01 	addi    r0,r8,1
 18013d0:	7c 69 51 ae 	stbx    r3,r9,r10
 18013d4:	98 07 17 a2 	stb     r0,6050(r7)
 18013d8:	4e 80 00 20 	blr
 18013dc:	39 20 00 2c 	li      r9,44
 18013e0:	98 69 00 00 	stb     r3,0(r9)
 18013e4:	88 0b 00 00 	lbz     r0,0(r11)
 18013e8:	60 00 00 40 	ori     r0,r0,64
 18013ec:	98 0b 00 00 	stb     r0,0(r11)
 18013f0:	4e 80 00 20 	blr

018013f4 <uart_print_hex>:
 18013f4:	94 21 ff d0 	stwu    r1,-48(r1)
 18013f8:	7c 08 02 a6 	mflr    r0
 18013fc:	93 81 00 20 	stw     r28,32(r1)
 1801400:	93 a1 00 24 	stw     r29,36(r1)
 1801404:	93 c1 00 28 	stw     r30,40(r1)
 1801408:	93 e1 00 2c 	stw     r31,44(r1)
 180140c:	90 01 00 34 	stw     r0,52(r1)
 1801410:	3d 20 01 80 	lis     r9,384
 1801414:	80 09 17 78 	lwz     r0,6008(r9)
 1801418:	39 29 17 78 	addi    r9,r9,6008
 180141c:	81 09 00 0c 	lwz     r8,12(r9)
 1801420:	81 69 00 04 	lwz     r11,4(r9)
 1801424:	81 49 00 08 	lwz     r10,8(r9)
 1801428:	90 01 00 08 	stw     r0,8(r1)
 180142c:	3b a1 00 08 	addi    r29,r1,8
 1801430:	7c 7c 1b 78 	mr      r28,r3
 1801434:	57 80 e1 3e 	rlwinm  r0,r28,28,4,31
 1801438:	91 7d 00 04 	stw     r11,4(r29)
 180143c:	91 5d 00 08 	stw     r10,8(r29)
 1801440:	91 1d 00 0c 	stw     r8,12(r29)
 1801444:	7c 7d 00 ae 	lbzx    r3,r29,r0
 1801448:	57 9c 07 3e 	clrlwi  r28,r28,28
 180144c:	4b ff ff 49 	bl      1801394 <uart_transmit>
 1801450:	7c 7d e0 ae 	lbzx    r3,r29,r28
 1801454:	4b ff ff 41 	bl      1801394 <uart_transmit>
 1801458:	80 01 00 34 	lwz     r0,52(r1)
 180145c:	7c 08 03 a6 	mtlr    r0
 1801460:	83 81 00 20 	lwz     r28,32(r1)
 1801464:	83 a1 00 24 	lwz     r29,36(r1)
 1801468:	83 c1 00 28 	lwz     r30,40(r1)
 180146c:	83 e1 00 2c 	lwz     r31,44(r1)
 1801470:	38 21 00 30 	addi    r1,r1,48
 1801474:	4e 80 00 20 	blr

01801478 <uart_print_hex16>:
 1801478:	94 21 ff e0 	stwu    r1,-32(r1)
 180147c:	7c 08 02 a6 	mflr    r0
 1801480:	93 a1 00 14 	stw     r29,20(r1)
 1801484:	93 c1 00 18 	stw     r30,24(r1)
 1801488:	93 e1 00 1c 	stw     r31,28(r1)
 180148c:	90 01 00 24 	stw     r0,36(r1)
 1801490:	7c 7d 1b 78 	mr      r29,r3
 1801494:	57 a3 c2 3e 	rlwinm  r3,r29,24,8,31
 1801498:	57 bd 06 3e 	clrlwi  r29,r29,24
 180149c:	4b ff ff 59 	bl      18013f4 <uart_print_hex>
 18014a0:	7f a3 eb 78 	mr      r3,r29
 18014a4:	4b ff ff 51 	bl      18013f4 <uart_print_hex>
 18014a8:	80 01 00 24 	lwz     r0,36(r1)
 18014ac:	7c 08 03 a6 	mtlr    r0
 18014b0:	83 a1 00 14 	lwz     r29,20(r1)
 18014b4:	83 c1 00 18 	lwz     r30,24(r1)
 18014b8:	83 e1 00 1c 	lwz     r31,28(r1)
 18014bc:	38 21 00 20 	addi    r1,r1,32
 18014c0:	4e 80 00 20 	blr

018014c4 <uart_print_string>:
 18014c4:	94 21 ff f0 	stwu    r1,-16(r1)
 18014c8:	7c 08 02 a6 	mflr    r0
 18014cc:	93 c1 00 08 	stw     r30,8(r1)
 18014d0:	93 e1 00 0c 	stw     r31,12(r1)
 18014d4:	90 01 00 14 	stw     r0,20(r1)
 18014d8:	7c 7e 1b 78 	mr      r30,r3
 18014dc:	3b e0 00 00 	li      r31,0
 18014e0:	48 00 00 10 	b       18014f0 <uart_print_string+0x2c>
 18014e4:	4b ff fe b1 	bl      1801394 <uart_transmit>
 18014e8:	38 1f 00 01 	addi    r0,r31,1
 18014ec:	54 1f 06 3e 	clrlwi  r31,r0,24
 18014f0:	7c 7e f8 ae 	lbzx    r3,r30,r31
 18014f4:	2c 03 00 00 	cmpwi   r3,0
 18014f8:	40 82 ff ec 	bne+    18014e4 <uart_print_string+0x20>
 18014fc:	80 01 00 14 	lwz     r0,20(r1)
 1801500:	7c 08 03 a6 	mtlr    r0
 1801504:	83 c1 00 08 	lwz     r30,8(r1)
 1801508:	83 e1 00 0c 	lwz     r31,12(r1)
 180150c:	38 21 00 10 	addi    r1,r1,16
 1801510:	4e 80 00 20 	blr

01801514 <__vector_13>:
 1801514:	3d 20 01 81 	lis     r9,385
 1801518:	3d 00 01 81 	lis     r8,385
 180151c:	89 69 17 a2 	lbz     r11,6050(r9)
 1801520:	88 08 17 a3 	lbz     r0,6051(r8)
 1801524:	7c 0b 00 00 	cmpw    r11,r0
 1801528:	40 82 00 18 	bne-    1801540 <__vector_13+0x2c>
 180152c:	39 20 00 2a 	li      r9,42
 1801530:	88 09 00 00 	lbz     r0,0(r9)
 1801534:	70 00 00 bf 	andi.   r0,r0,191
 1801538:	98 09 00 00 	stb     r0,0(r9)
 180153c:	4e 80 00 20 	blr
 1801540:	89 48 17 a3 	lbz     r10,6051(r8)
 1801544:	3d 20 01 81 	lis     r9,385
 1801548:	39 29 17 b8 	addi    r9,r9,6072
 180154c:	7c 09 50 ae 	lbzx    r0,r9,r10
 1801550:	39 60 00 2c 	li      r11,44
 1801554:	98 0b 00 00 	stb     r0,0(r11)
 1801558:	89 28 17 a3 	lbz     r9,6051(r8)
 180155c:	39 29 00 01 	addi    r9,r9,1
 1801560:	99 28 17 a3 	stb     r9,6051(r8)
 1801564:	4e 80 00 20 	blr

01801568 <adc_buf_channel>:
 1801568:	3d 20 01 81 	lis     r9,385
 180156c:	39 29 18 b8 	addi    r9,r9,6328
 1801570:	54 63 10 3a 	rlwinm  r3,r3,2,0,29
 1801574:	7c 89 19 2e 	stwx    r4,r9,r3
 1801578:	4e 80 00 20 	blr

0180157c <adc_init>:
 180157c:	38 00 00 00 	li      r0,0
 1801580:	39 20 00 35 	li      r9,53
 1801584:	98 09 00 00 	stb     r0,0(r9)
 1801588:	39 60 00 34 	li      r11,52
 180158c:	98 0b 00 00 	stb     r0,0(r11)
 1801590:	39 20 00 27 	li      r9,39
 1801594:	38 00 00 c0 	li      r0,192
 1801598:	98 09 00 00 	stb     r0,0(r9)
 180159c:	39 60 00 26 	li      r11,38
 18015a0:	38 00 00 cf 	li      r0,207
 18015a4:	3d 20 01 81 	lis     r9,385
 18015a8:	98 0b 00 00 	stb     r0,0(r11)
 18015ac:	39 09 18 b8 	addi    r8,r9,6328
 18015b0:	39 60 00 00 	li      r11,0
 18015b4:	39 40 00 00 	li      r10,0
 18015b8:	55 69 10 3a 	rlwinm  r9,r11,2,0,29
 18015bc:	38 0b 00 01 	addi    r0,r11,1
 18015c0:	54 0b 06 3e 	clrlwi  r11,r0,24
 18015c4:	28 0b 00 07 	cmplwi  r11,7
 18015c8:	7d 48 49 2e 	stwx    r10,r8,r9
 18015cc:	40 81 ff ec 	ble+    18015b8 <adc_init+0x3c>
 18015d0:	4e 80 00 20 	blr

018015d4 <__vector_14>:
 18015d4:	38 80 00 27 	li      r4,39
 18015d8:	88 04 00 00 	lbz     r0,0(r4)
 18015dc:	3d 20 01 81 	lis     r9,385
 18015e0:	54 06 07 7e 	clrlwi  r6,r0,29
 18015e4:	39 29 18 b8 	addi    r9,r9,6328
 18015e8:	54 c0 10 3a 	rlwinm  r0,r6,2,0,29
 18015ec:	7c e9 00 2e 	lwzx    r7,r9,r0
 18015f0:	39 60 00 24 	li      r11,36
 18015f4:	a0 ab 00 00 	lhz     r5,0(r11)
 18015f8:	3d 20 01 81 	lis     r9,385
 18015fc:	2c 07 00 00 	cmpwi   r7,0
 1801600:	39 29 19 c2 	addi    r9,r9,6594
 1801604:	7c 06 32 14 	add     r0,r6,r6
 1801608:	7c a9 03 2e 	sthx    r5,r9,r0
 180160c:	41 82 00 4c 	beq-    1801658 <__vector_14+0x84>
 1801610:	89 27 00 42 	lbz     r9,66(r7)
 1801614:	39 07 00 02 	addi    r8,r7,2
 1801618:	39 29 00 01 	addi    r9,r9,1
 180161c:	55 29 06 3e 	clrlwi  r9,r9,24
 1801620:	20 09 00 1f 	subfic  r0,r9,31
 1801624:	7c 00 01 10 	subfe   r0,r0,r0
 1801628:	7c 00 03 b8 	nand    r0,r0,r0
 180162c:	7d 29 00 38 	and     r9,r9,r0
 1801630:	7d 49 4a 14 	add     r10,r9,r9
 1801634:	7d 68 52 2e 	lhzx    r11,r8,r10
 1801638:	a0 07 00 00 	lhz     r0,0(r7)
 180163c:	7c 0b 00 50 	subf    r0,r11,r0
 1801640:	b0 07 00 00 	sth     r0,0(r7)
 1801644:	7c a8 53 2e 	sthx    r5,r8,r10
 1801648:	a0 07 00 00 	lhz     r0,0(r7)
 180164c:	99 27 00 42 	stb     r9,66(r7)
 1801650:	7c 05 02 14 	add     r0,r5,r0
 1801654:	b0 07 00 00 	sth     r0,0(r7)
 1801658:	39 26 00 01 	addi    r9,r6,1
 180165c:	55 26 06 3e 	clrlwi  r6,r9,24
 1801660:	68 c0 00 04 	xori    r0,r6,4
 1801664:	7c 00 00 d0 	neg     r0,r0
 1801668:	7c 00 fe 70 	srawi   r0,r0,31
 180166c:	7c 09 00 f8 	not     r9,r0
 1801670:	7c c0 00 38 	and     r0,r6,r0
 1801674:	55 29 07 7c 	rlwinm  r9,r9,0,29,30
 1801678:	7c 06 4b 78 	or      r6,r0,r9
 180167c:	21 66 00 07 	subfic  r11,r6,7
 1801680:	7d 6b 59 10 	subfe   r11,r11,r11
 1801684:	7d 6b 5b b8 	nand    r11,r11,r11
 1801688:	7c c6 58 38 	and     r6,r6,r11
 180168c:	60 c0 00 c0 	ori     r0,r6,192
 1801690:	98 04 00 00 	stb     r0,0(r4)
 1801694:	39 20 00 26 	li      r9,38
 1801698:	88 09 00 00 	lbz     r0,0(r9)
 180169c:	60 00 00 40 	ori     r0,r0,64
 18016a0:	98 09 00 00 	stb     r0,0(r9)
 18016a4:	4e 80 00 20 	blr
